Archive member included to satisfy reference by file (symbol)

C:/Users/Dell/ide-8.0-workspace/hw.x86_64/src/hardware/startup/boards/../../../../install/x86_64/usr/lib\libstartup.a(_main.o)
                              main.o (shdr)
C:/Users/Dell/ide-8.0-workspace/hw.x86_64/src/hardware/startup/boards/../../../../install/x86_64/usr/lib\libstartup.a(board_init.o)
                              C:/Users/Dell/ide-8.0-workspace/hw.x86_64/src/hardware/startup/boards/../../../../install/x86_64/usr/lib\libstartup.a(_main.o) (board_init)
C:/Users/Dell/ide-8.0-workspace/hw.x86_64/src/hardware/startup/boards/../../../../install/x86_64/usr/lib\libstartup.a(callout_debug_8250.o)
                              main.o (display_char_8250)
C:/Users/Dell/ide-8.0-workspace/hw.x86_64/src/hardware/startup/boards/../../../../install/x86_64/usr/lib\libstartup.a(callout_debug_con.o)
                              main.o (display_char_vga)
C:/Users/Dell/ide-8.0-workspace/hw.x86_64/src/hardware/startup/boards/../../../../install/x86_64/usr/lib\libstartup.a(callout_debug_dummy.o)
                              main.o (display_char_dummy)
C:/Users/Dell/ide-8.0-workspace/hw.x86_64/src/hardware/startup/boards/../../../../install/x86_64/usr/lib\libstartup.a(common_options.o)
                              main.o (handle_common_option)
C:/Users/Dell/ide-8.0-workspace/hw.x86_64/src/hardware/startup/boards/../../../../install/x86_64/usr/lib\libstartup.a(cpu_cluster_add.o)
                              C:/Users/Dell/ide-8.0-workspace/hw.x86_64/src/hardware/startup/boards/../../../../install/x86_64/usr/lib\libstartup.a(common_options.o) (cpu_cluster_add)
C:/Users/Dell/ide-8.0-workspace/hw.x86_64/src/hardware/startup/boards/../../../../install/x86_64/usr/lib\libstartup.a(cpu_common_options.o)
                              C:/Users/Dell/ide-8.0-workspace/hw.x86_64/src/hardware/startup/boards/../../../../install/x86_64/usr/lib\libstartup.a(common_options.o) (cpu_handle_common_option)
C:/Users/Dell/ide-8.0-workspace/hw.x86_64/src/hardware/startup/boards/../../../../install/x86_64/usr/lib\libstartup.a(cpu_startup.o)
                              C:/Users/Dell/ide-8.0-workspace/hw.x86_64/src/hardware/startup/boards/../../../../install/x86_64/usr/lib\libstartup.a(_main.o) (cpu_startup)
C:/Users/Dell/ide-8.0-workspace/hw.x86_64/src/hardware/startup/boards/../../../../install/x86_64/usr/lib\libstartup.a(cstart64.o)
                              C:/Users/Dell/ide-8.0-workspace/hw.x86_64/src/hardware/startup/boards/../../../../install/x86_64/usr/lib\libstartup.a(_main.o) (stack_addr_lo)
C:/Users/Dell/ide-8.0-workspace/hw.x86_64/src/hardware/startup/boards/../../../../install/x86_64/usr/lib\libstartup.a(debug.o)
                              main.o (print_syspage)
C:/Users/Dell/ide-8.0-workspace/hw.x86_64/src/hardware/startup/boards/../../../../install/x86_64/usr/lib\libstartup.a(early_setup.o)
                              C:/Users/Dell/ide-8.0-workspace/hw.x86_64/src/hardware/startup/boards/../../../../install/x86_64/usr/lib\libstartup.a(cstart64.o) (early_cpu_setup)
C:/Users/Dell/ide-8.0-workspace/hw.x86_64/src/hardware/startup/boards/../../../../install/x86_64/usr/lib\libstartup.a(entry_32prot.o)
                              C:/Users/Dell/ide-8.0-workspace/hw.x86_64/src/hardware/startup/boards/../../../../install/x86_64/usr/lib\libstartup.a(cstart64.o) (entry_32prot)
C:/Users/Dell/ide-8.0-workspace/hw.x86_64/src/hardware/startup/boards/../../../../install/x86_64/usr/lib\libstartup.a(getopt.o)
                              main.o (getopt)
C:/Users/Dell/ide-8.0-workspace/hw.x86_64/src/hardware/startup/boards/../../../../install/x86_64/usr/lib\libstartup.a(getsize.o)
                              main.o (getsize)
C:/Users/Dell/ide-8.0-workspace/hw.x86_64/src/hardware/startup/boards/../../../../install/x86_64/usr/lib\libstartup.a(hw_cputype.o)
                              C:/Users/Dell/ide-8.0-workspace/hw.x86_64/src/hardware/startup/boards/../../../../install/x86_64/usr/lib\libstartup.a(cpu_startup.o) (x86_cputype)
C:/Users/Dell/ide-8.0-workspace/hw.x86_64/src/hardware/startup/boards/../../../../install/x86_64/usr/lib\libstartup.a(hw_ser8250.o)
                              main.o (init_8250)
C:/Users/Dell/ide-8.0-workspace/hw.x86_64/src/hardware/startup/boards/../../../../install/x86_64/usr/lib\libstartup.a(hw_ser8250_pci.o)
                              main.o (init_8250_pci)
C:/Users/Dell/ide-8.0-workspace/hw.x86_64/src/hardware/startup/boards/../../../../install/x86_64/usr/lib\libstartup.a(hw_vgaout32.o)
                              main.o (init_vga)
C:/Users/Dell/ide-8.0-workspace/hw.x86_64/src/hardware/startup/boards/../../../../install/x86_64/usr/lib\libstartup.a(hwi_add_nanospin.o)
                              C:/Users/Dell/ide-8.0-workspace/hw.x86_64/src/hardware/startup/boards/../../../../install/x86_64/usr/lib\libstartup.a(common_options.o) (hwi_add_nanospin)
C:/Users/Dell/ide-8.0-workspace/hw.x86_64/src/hardware/startup/boards/../../../../install/x86_64/usr/lib\libstartup.a(hwi_alloc.o)
                              C:/Users/Dell/ide-8.0-workspace/hw.x86_64/src/hardware/startup/boards/../../../../install/x86_64/usr/lib\libstartup.a(hwi_add_nanospin.o) (hwi_alloc_tag)
C:/Users/Dell/ide-8.0-workspace/hw.x86_64/src/hardware/startup/boards/../../../../install/x86_64/usr/lib\libstartup.a(hypervisor_setup.o)
                              C:/Users/Dell/ide-8.0-workspace/hw.x86_64/src/hardware/startup/boards/../../../../install/x86_64/usr/lib\libstartup.a(cpu_common_options.o) (hypervisor_set_options)
C:/Users/Dell/ide-8.0-workspace/hw.x86_64/src/hardware/startup/boards/../../../../install/x86_64/usr/lib\libstartup.a(init_cacheattr.o)
                              main.o (init_cacheattr)
C:/Users/Dell/ide-8.0-workspace/hw.x86_64/src/hardware/startup/boards/../../../../install/x86_64/usr/lib\libstartup.a(init_cpuinfo.o)
                              main.o (init_cpuinfo)
C:/Users/Dell/ide-8.0-workspace/hw.x86_64/src/hardware/startup/boards/../../../../install/x86_64/usr/lib\libstartup.a(init_hwinfo.o)
                              main.o (init_hwinfo)
C:/Users/Dell/ide-8.0-workspace/hw.x86_64/src/hardware/startup/boards/../../../../install/x86_64/usr/lib\libstartup.a(init_intrinfo.o)
                              main.o (init_intrinfo)
C:/Users/Dell/ide-8.0-workspace/hw.x86_64/src/hardware/startup/boards/../../../../install/x86_64/usr/lib\libstartup.a(init_intrinfo_msi.o)
                              C:/Users/Dell/ide-8.0-workspace/hw.x86_64/src/hardware/startup/boards/../../../../install/x86_64/usr/lib\libstartup.a(init_intrinfo.o) (init_intrinfo_msi)
C:/Users/Dell/ide-8.0-workspace/hw.x86_64/src/hardware/startup/boards/../../../../install/x86_64/usr/lib\libstartup.a(init_mmu.o)
                              main.o (init_mmu)
C:/Users/Dell/ide-8.0-workspace/hw.x86_64/src/hardware/startup/boards/../../../../install/x86_64/usr/lib\libstartup.a(init_qtime.o)
                              main.o (init_qtime)
C:/Users/Dell/ide-8.0-workspace/hw.x86_64/src/hardware/startup/boards/../../../../install/x86_64/usr/lib\libstartup.a(init_qtime_hpet.o)
                              C:/Users/Dell/ide-8.0-workspace/hw.x86_64/src/hardware/startup/boards/../../../../install/x86_64/usr/lib\libstartup.a(init_qtime.o) (init_qtime_disable_hpet)
C:/Users/Dell/ide-8.0-workspace/hw.x86_64/src/hardware/startup/boards/../../../../install/x86_64/usr/lib\libstartup.a(init_qtime_lapic.o)
                              C:/Users/Dell/ide-8.0-workspace/hw.x86_64/src/hardware/startup/boards/../../../../install/x86_64/usr/lib\libstartup.a(init_qtime.o) (init_qtime_lapic)
C:/Users/Dell/ide-8.0-workspace/hw.x86_64/src/hardware/startup/boards/../../../../install/x86_64/usr/lib\libstartup.a(init_raminfo.o)
                              main.o (init_raminfo)
C:/Users/Dell/ide-8.0-workspace/hw.x86_64/src/hardware/startup/boards/../../../../install/x86_64/usr/lib\libstartup.a(init_raminfo_uefi.o)
                              main.o (init_raminfo_uefi)
C:/Users/Dell/ide-8.0-workspace/hw.x86_64/src/hardware/startup/boards/../../../../install/x86_64/usr/lib\libstartup.a(init_reboot_callout.o)
                              main.o (init_reboot_callout)
C:/Users/Dell/ide-8.0-workspace/hw.x86_64/src/hardware/startup/boards/../../../../install/x86_64/usr/lib\libstartup.a(init_smp.o)
                              main.o (init_smp)
C:/Users/Dell/ide-8.0-workspace/hw.x86_64/src/hardware/startup/boards/../../../../install/x86_64/usr/lib\libstartup.a(init_system_private.o)
                              main.o (init_system_private)
C:/Users/Dell/ide-8.0-workspace/hw.x86_64/src/hardware/startup/boards/../../../../install/x86_64/usr/lib\libstartup.a(intel_microcode_updates.o)
                              C:/Users/Dell/ide-8.0-workspace/hw.x86_64/src/hardware/startup/boards/../../../../install/x86_64/usr/lib\libstartup.a(cpu_startup.o) (intel_microcode_updates)
C:/Users/Dell/ide-8.0-workspace/hw.x86_64/src/hardware/startup/boards/../../../../install/x86_64/usr/lib\libstartup.a(intel_misc.o)
                              C:/Users/Dell/ide-8.0-workspace/hw.x86_64/src/hardware/startup/boards/../../../../install/x86_64/usr/lib\libstartup.a(init_intrinfo.o) (is_intel_chipset)
C:/Users/Dell/ide-8.0-workspace/hw.x86_64/src/hardware/startup/boards/../../../../install/x86_64/usr/lib\libstartup.a(intel_pxh.o)
                              C:/Users/Dell/ide-8.0-workspace/hw.x86_64/src/hardware/startup/boards/../../../../install/x86_64/usr/lib\libstartup.a(init_intrinfo.o) (find_pxh_ioapic)
C:/Users/Dell/ide-8.0-workspace/hw.x86_64/src/hardware/startup/boards/../../../../install/x86_64/usr/lib\libstartup.a(invert_timer_freq.o)
                              C:/Users/Dell/ide-8.0-workspace/hw.x86_64/src/hardware/startup/boards/../../../../install/x86_64/usr/lib\libstartup.a(init_qtime_lapic.o) (invert_timer_freq)
C:/Users/Dell/ide-8.0-workspace/hw.x86_64/src/hardware/startup/boards/../../../../install/x86_64/usr/lib\libstartup.a(ioapic.o)
                              C:/Users/Dell/ide-8.0-workspace/hw.x86_64/src/hardware/startup/boards/../../../../install/x86_64/usr/lib\libstartup.a(init_intrinfo.o) (ioapic_get_id_first)
C:/Users/Dell/ide-8.0-workspace/hw.x86_64/src/hardware/startup/boards/../../../../install/x86_64/usr/lib\libstartup.a(ioapic_amd.o)
                              C:/Users/Dell/ide-8.0-workspace/hw.x86_64/src/hardware/startup/boards/../../../../install/x86_64/usr/lib\libstartup.a(init_intrinfo.o) (ioapic_accessfncs_amd)
C:/Users/Dell/ide-8.0-workspace/hw.x86_64/src/hardware/startup/boards/../../../../install/x86_64/usr/lib\libstartup.a(ioapic_find.o)
                              C:/Users/Dell/ide-8.0-workspace/hw.x86_64/src/hardware/startup/boards/../../../../install/x86_64/usr/lib\libstartup.a(init_intrinfo.o) (ioapic_find)
C:/Users/Dell/ide-8.0-workspace/hw.x86_64/src/hardware/startup/boards/../../../../install/x86_64/usr/lib\libstartup.a(ioapic_generic.o)
                              C:/Users/Dell/ide-8.0-workspace/hw.x86_64/src/hardware/startup/boards/../../../../install/x86_64/usr/lib\libstartup.a(init_intrinfo.o) (ioapic_accessfncs_generic)
C:/Users/Dell/ide-8.0-workspace/hw.x86_64/src/hardware/startup/boards/../../../../install/x86_64/usr/lib\libstartup.a(ioapic_ich.o)
                              C:/Users/Dell/ide-8.0-workspace/hw.x86_64/src/hardware/startup/boards/../../../../install/x86_64/usr/lib\libstartup.a(init_intrinfo.o) (ioapic_accessfncs_ich)
C:/Users/Dell/ide-8.0-workspace/hw.x86_64/src/hardware/startup/boards/../../../../install/x86_64/usr/lib\libstartup.a(ioapic_intsrc_disposition.o)
                              C:/Users/Dell/ide-8.0-workspace/hw.x86_64/src/hardware/startup/boards/../../../../install/x86_64/usr/lib\libstartup.a(init_intrinfo.o) (ioapic_intsrc_cfg_check)
C:/Users/Dell/ide-8.0-workspace/hw.x86_64/src/hardware/startup/boards/../../../../install/x86_64/usr/lib\libstartup.a(ioapic_ioh.o)
                              C:/Users/Dell/ide-8.0-workspace/hw.x86_64/src/hardware/startup/boards/../../../../install/x86_64/usr/lib\libstartup.a(init_intrinfo.o) (ioapic_accessfncs_ioh)
C:/Users/Dell/ide-8.0-workspace/hw.x86_64/src/hardware/startup/boards/../../../../install/x86_64/usr/lib\libstartup.a(is_uefi_boot.o)
                              main.o (is_uefi_boot)
C:/Users/Dell/ide-8.0-workspace/hw.x86_64/src/hardware/startup/boards/../../../../install/x86_64/usr/lib\libstartup.a(itss_misc.o)
                              C:/Users/Dell/ide-8.0-workspace/hw.x86_64/src/hardware/startup/boards/../../../../install/x86_64/usr/lib\libstartup.a(init_intrinfo.o) (itss_pirq_remap_adjust)
C:/Users/Dell/ide-8.0-workspace/hw.x86_64/src/hardware/startup/boards/../../../../install/x86_64/usr/lib\libstartup.a(jtag.o)
                              C:/Users/Dell/ide-8.0-workspace/hw.x86_64/src/hardware/startup/boards/../../../../install/x86_64/usr/lib\libstartup.a(init_system_private.o) (jtag_reserve_memory)
C:/Users/Dell/ide-8.0-workspace/hw.x86_64/src/hardware/startup/boards/../../../../install/x86_64/usr/lib\libstartup.a(kprintf.o)
                              main.o (kprintf)
C:/Users/Dell/ide-8.0-workspace/hw.x86_64/src/hardware/startup/boards/../../../../install/x86_64/usr/lib\libstartup.a(load_ifs.o)
                              C:/Users/Dell/ide-8.0-workspace/hw.x86_64/src/hardware/startup/boards/../../../../install/x86_64/usr/lib\libstartup.a(init_system_private.o) (load_ifs)
C:/Users/Dell/ide-8.0-workspace/hw.x86_64/src/hardware/startup/boards/../../../../install/x86_64/usr/lib\libstartup.a(map_callout_mem.o)
                              C:/Users/Dell/ide-8.0-workspace/hw.x86_64/src/hardware/startup/boards/../../../../install/x86_64/usr/lib\libstartup.a(callout_debug_con.o) (callout_memory_map)
C:/Users/Dell/ide-8.0-workspace/hw.x86_64/src/hardware/startup/boards/../../../../install/x86_64/usr/lib\libstartup.a(map_startup_mem.o)
                              C:/Users/Dell/ide-8.0-workspace/hw.x86_64/src/hardware/startup/boards/../../../../install/x86_64/usr/lib\libstartup.a(init_qtime_hpet.o) (startup_memory_map)
C:/Users/Dell/ide-8.0-workspace/hw.x86_64/src/hardware/startup/boards/../../../../install/x86_64/usr/lib\libstartup.a(memcpy.o)
                              C:/Users/Dell/ide-8.0-workspace/hw.x86_64/src/hardware/startup/boards/../../../../install/x86_64/usr/lib\libstartup.a(ioapic.o) (memcpy)
C:/Users/Dell/ide-8.0-workspace/hw.x86_64/src/hardware/startup/boards/../../../../install/x86_64/usr/lib\libstartup.a(memfuncs.o)
                              C:/Users/Dell/ide-8.0-workspace/hw.x86_64/src/hardware/startup/boards/../../../../install/x86_64/usr/lib\libstartup.a(load_ifs.o) (copy_memory)
C:/Users/Dell/ide-8.0-workspace/hw.x86_64/src/hardware/startup/boards/../../../../install/x86_64/usr/lib\libstartup.a(memmove.o)
                              C:/Users/Dell/ide-8.0-workspace/hw.x86_64/src/hardware/startup/boards/../../../../install/x86_64/usr/lib\libstartup.a(hw_vgaout32.o) (memmove)
C:/Users/Dell/ide-8.0-workspace/hw.x86_64/src/hardware/startup/boards/../../../../install/x86_64/usr/lib\libstartup.a(p2sb_misc.o)
                              C:/Users/Dell/ide-8.0-workspace/hw.x86_64/src/hardware/startup/boards/../../../../install/x86_64/usr/lib\libstartup.a(init_qtime_hpet.o) (find_P2SB)
C:/Users/Dell/ide-8.0-workspace/hw.x86_64/src/hardware/startup/boards/../../../../install/x86_64/usr/lib\libstartup.a(pci_known_devs_table.o)
                              main.o (add_known_pci_device)
C:/Users/Dell/ide-8.0-workspace/hw.x86_64/src/hardware/startup/boards/../../../../install/x86_64/usr/lib\libstartup.a(pci_misc.o)
                              C:/Users/Dell/ide-8.0-workspace/hw.x86_64/src/hardware/startup/boards/../../../../install/x86_64/usr/lib\libstartup.a(intel_pxh.o) (pci_find_class)
C:/Users/Dell/ide-8.0-workspace/hw.x86_64/src/hardware/startup/boards/../../../../install/x86_64/usr/lib\libstartup.a(pci_read_cfg16.o)
                              C:/Users/Dell/ide-8.0-workspace/hw.x86_64/src/hardware/startup/boards/../../../../install/x86_64/usr/lib\libstartup.a(hw_ser8250_pci.o) (pci_read_cfg16)
C:/Users/Dell/ide-8.0-workspace/hw.x86_64/src/hardware/startup/boards/../../../../install/x86_64/usr/lib\libstartup.a(pci_read_cfg32.o)
                              C:/Users/Dell/ide-8.0-workspace/hw.x86_64/src/hardware/startup/boards/../../../../install/x86_64/usr/lib\libstartup.a(hw_ser8250_pci.o) (pci_read_cfg32)
C:/Users/Dell/ide-8.0-workspace/hw.x86_64/src/hardware/startup/boards/../../../../install/x86_64/usr/lib\libstartup.a(pci_read_cfg8.o)
                              C:/Users/Dell/ide-8.0-workspace/hw.x86_64/src/hardware/startup/boards/../../../../install/x86_64/usr/lib\libstartup.a(init_qtime_hpet.o) (pci_read_cfg8)
C:/Users/Dell/ide-8.0-workspace/hw.x86_64/src/hardware/startup/boards/../../../../install/x86_64/usr/lib\libstartup.a(pci_write_cfg16.o)
                              C:/Users/Dell/ide-8.0-workspace/hw.x86_64/src/hardware/startup/boards/../../../../install/x86_64/usr/lib\libstartup.a(hw_ser8250_pci.o) (pci_write_cfg16)
C:/Users/Dell/ide-8.0-workspace/hw.x86_64/src/hardware/startup/boards/../../../../install/x86_64/usr/lib\libstartup.a(pci_write_cfg32.o)
                              C:/Users/Dell/ide-8.0-workspace/hw.x86_64/src/hardware/startup/boards/../../../../install/x86_64/usr/lib\libstartup.a(p2sb_misc.o) (pci_write_cfg32)
C:/Users/Dell/ide-8.0-workspace/hw.x86_64/src/hardware/startup/boards/../../../../install/x86_64/usr/lib\libstartup.a(pci_write_cfg8.o)
                              C:/Users/Dell/ide-8.0-workspace/hw.x86_64/src/hardware/startup/boards/../../../../install/x86_64/usr/lib\libstartup.a(init_qtime_hpet.o) (pci_write_cfg8)
C:/Users/Dell/ide-8.0-workspace/hw.x86_64/src/hardware/startup/boards/../../../../install/x86_64/usr/lib\libstartup.a(pcu_misc.o)
                              C:/Users/Dell/ide-8.0-workspace/hw.x86_64/src/hardware/startup/boards/../../../../install/x86_64/usr/lib\libstartup.a(init_intrinfo.o) (pcu_ilb_pirq_remap_adjust)
C:/Users/Dell/ide-8.0-workspace/hw.x86_64/src/hardware/startup/boards/../../../../install/x86_64/usr/lib\libstartup.a(piix4_misc.o)
                              C:/Users/Dell/ide-8.0-workspace/hw.x86_64/src/hardware/startup/boards/../../../../install/x86_64/usr/lib\libstartup.a(init_intrinfo.o) (piix4_pirq_remap_adjust)
C:/Users/Dell/ide-8.0-workspace/hw.x86_64/src/hardware/startup/boards/../../../../install/x86_64/usr/lib\libstartup.a(print_sysp.o)
                              C:/Users/Dell/ide-8.0-workspace/hw.x86_64/src/hardware/startup/boards/../../../../install/x86_64/usr/lib\libstartup.a(debug.o) (print_syspage_enable)
C:/Users/Dell/ide-8.0-workspace/hw.x86_64/src/hardware/startup/boards/../../../../install/x86_64/usr/lib\libstartup.a(processor64.o)
                              C:/Users/Dell/ide-8.0-workspace/hw.x86_64/src/hardware/startup/boards/../../../../install/x86_64/usr/lib\libstartup.a(init_mmu.o) (x86_64_init_pgdir)
C:/Users/Dell/ide-8.0-workspace/hw.x86_64/src/hardware/startup/boards/../../../../install/x86_64/usr/lib\libstartup.a(ram.o)
                              C:/Users/Dell/ide-8.0-workspace/hw.x86_64/src/hardware/startup/boards/../../../../install/x86_64/usr/lib\libstartup.a(load_ifs.o) (find_ram)
C:/Users/Dell/ide-8.0-workspace/hw.x86_64/src/hardware/startup/boards/../../../../install/x86_64/usr/lib\libstartup.a(restore_ifs.o)
                              C:/Users/Dell/ide-8.0-workspace/hw.x86_64/src/hardware/startup/boards/../../../../install/x86_64/usr/lib\libstartup.a(common_options.o) (ifs2_paddr_dst)
C:/Users/Dell/ide-8.0-workspace/hw.x86_64/src/hardware/startup/boards/../../../../install/x86_64/usr/lib\libstartup.a(sbx00_misc.o)
                              C:/Users/Dell/ide-8.0-workspace/hw.x86_64/src/hardware/startup/boards/../../../../install/x86_64/usr/lib\libstartup.a(init_intrinfo.o) (sbx00_pirq_remap_adjust)
C:/Users/Dell/ide-8.0-workspace/hw.x86_64/src/hardware/startup/boards/../../../../install/x86_64/usr/lib\libstartup.a(sch_misc.o)
                              C:/Users/Dell/ide-8.0-workspace/hw.x86_64/src/hardware/startup/boards/../../../../install/x86_64/usr/lib\libstartup.a(init_intrinfo.o) (sch_pirq_remap_adjust)
C:/Users/Dell/ide-8.0-workspace/hw.x86_64/src/hardware/startup/boards/../../../../install/x86_64/usr/lib\libstartup.a(set_cycles.o)
                              C:/Users/Dell/ide-8.0-workspace/hw.x86_64/src/hardware/startup/boards/../../../../install/x86_64/usr/lib\libstartup.a(init_qtime_lapic.o) (set_cycles_per_sec)
C:/Users/Dell/ide-8.0-workspace/hw.x86_64/src/hardware/startup/boards/../../../../install/x86_64/usr/lib\libstartup.a(ssp.o)
                              (__ssp_fail)
C:/Users/Dell/ide-8.0-workspace/hw.x86_64/src/hardware/startup/boards/../../../../install/x86_64/usr/lib\libstartup.a(startnext.o)
                              C:/Users/Dell/ide-8.0-workspace/hw.x86_64/src/hardware/startup/boards/../../../../install/x86_64/usr/lib\libstartup.a(_main.o) (startnext)
C:/Users/Dell/ide-8.0-workspace/hw.x86_64/src/hardware/startup/boards/../../../../install/x86_64/usr/lib\libstartup.a(startup_info.o)
                              C:/Users/Dell/ide-8.0-workspace/hw.x86_64/src/hardware/startup/boards/../../../../install/x86_64/usr/lib\libstartup.a(init_hwinfo.o) (find_startup_info)
C:/Users/Dell/ide-8.0-workspace/hw.x86_64/src/hardware/startup/boards/../../../../install/x86_64/usr/lib\libstartup.a(strings.o)
                              C:/Users/Dell/ide-8.0-workspace/hw.x86_64/src/hardware/startup/boards/../../../../install/x86_64/usr/lib\libstartup.a(init_system_private.o) (find_typed_string)
C:/Users/Dell/ide-8.0-workspace/hw.x86_64/src/hardware/startup/boards/../../../../install/x86_64/usr/lib\libstartup.a(strtoul.o)
                              C:/Users/Dell/ide-8.0-workspace/hw.x86_64/src/hardware/startup/boards/../../../../install/x86_64/usr/lib\libstartup.a(getsize.o) (strtopaddr)
C:/Users/Dell/ide-8.0-workspace/hw.x86_64/src/hardware/startup/boards/../../../../install/x86_64/usr/lib\libstartup.a(syspage_memory.o)
                              C:/Users/Dell/ide-8.0-workspace/hw.x86_64/src/hardware/startup/boards/../../../../install/x86_64/usr/lib\libstartup.a(cpu_cluster_add.o) (grow_syspage_section)
C:/Users/Dell/ide-8.0-workspace/hw.x86_64/src/hardware/startup/boards/../../../../install/x86_64/usr/lib\libstartup.a(tweak_cmdline.o)
                              C:/Users/Dell/ide-8.0-workspace/hw.x86_64/src/hardware/startup/boards/../../../../install/x86_64/usr/lib\libstartup.a(_main.o) (tweak_cmdline)
C:/Users/Dell/ide-8.0-workspace/hw.x86_64/src/hardware/startup/boards/../../../../install/x86_64/usr/lib\libstartup.a(uefi.o)
                              C:/Users/Dell/ide-8.0-workspace/hw.x86_64/src/hardware/startup/boards/../../../../install/x86_64/usr/lib\libstartup.a(init_raminfo_uefi.o) (efi_system_table)
C:/Users/Dell/ide-8.0-workspace/hw.x86_64/src/hardware/startup/boards/../../../../install/x86_64/usr/lib\libstartup.a(uefi_init.o)
                              main.o (uefi_init)
C:/Users/Dell/ide-8.0-workspace/hw.x86_64/src/hardware/startup/boards/../../../../install/x86_64/usr/lib\libstartup.a(uefi_io.o)
                              main.o (uefi_print_char)
C:/Users/Dell/ide-8.0-workspace/hw.x86_64/src/hardware/startup/boards/../../../../install/x86_64/usr/lib\libstartup.a(ultoa_end.o)
                              C:/Users/Dell/ide-8.0-workspace/hw.x86_64/src/hardware/startup/boards/../../../../install/x86_64/usr/lib\libstartup.a(init_cpuinfo.o) (ultoa_end)
C:/Users/Dell/ide-8.0-workspace/hw.x86_64/src/hardware/startup/boards/../../../../install/x86_64/usr/lib\libstartup.a(uncompress.o)
                              C:/Users/Dell/ide-8.0-workspace/hw.x86_64/src/hardware/startup/boards/../../../../install/x86_64/usr/lib\libstartup.a(load_ifs.o) (uncompress)
C:/Users/Dell/ide-8.0-workspace/hw.x86_64/src/hardware/startup/boards/../../../../install/x86_64/usr/lib\libstartup.a(uncompress_ucl.o)
                              C:/Users/Dell/ide-8.0-workspace/hw.x86_64/src/hardware/startup/boards/../../../../install/x86_64/usr/lib\libstartup.a(uncompress.o) (uncompress_ucl)
C:/Users/Dell/ide-8.0-workspace/hw.x86_64/src/hardware/startup/boards/../../../../install/x86_64/usr/lib\libstartup.a(x86_64_pcbios_shadow.o)
                              main.o (x86_pcbios_shadow_rom)
C:/Users/Dell/ide-8.0-workspace/hw.x86_64/src/hardware/startup/boards/../../../../install/x86_64/usr/lib\libstartup.a(64apstart.o)
                              C:/Users/Dell/ide-8.0-workspace/hw.x86_64/src/hardware/startup/boards/../../../../install/x86_64/usr/lib\libstartup.a(init_smp.o) (smp_start)
C:/Users/Dell/ide-8.0-workspace/hw.x86_64/src/hardware/startup/boards/../../../../install/x86_64/usr/lib\libstartup.a(acpi.o)
                              C:/Users/Dell/ide-8.0-workspace/hw.x86_64/src/hardware/startup/boards/../../../../install/x86_64/usr/lib\libstartup.a(init_qtime_hpet.o) (acpi_find_table_next)
C:/Users/Dell/ide-8.0-workspace/hw.x86_64/src/hardware/startup/boards/../../../../install/x86_64/usr/lib\libstartup.a(acpi_ioapic.o)
                              C:/Users/Dell/ide-8.0-workspace/hw.x86_64/src/hardware/startup/boards/../../../../install/x86_64/usr/lib\libstartup.a(ioapic_find.o) (ioapic_discover_acpi)
C:/Users/Dell/ide-8.0-workspace/hw.x86_64/src/hardware/startup/boards/../../../../install/x86_64/usr/lib\libstartup.a(add_interrupt.o)
                              C:/Users/Dell/ide-8.0-workspace/hw.x86_64/src/hardware/startup/boards/../../../../install/x86_64/usr/lib\libstartup.a(init_intrinfo_msi.o) (add_interrupt)
C:/Users/Dell/ide-8.0-workspace/hw.x86_64/src/hardware/startup/boards/../../../../install/x86_64/usr/lib\libstartup.a(alloc_qtime.o)
                              C:/Users/Dell/ide-8.0-workspace/hw.x86_64/src/hardware/startup/boards/../../../../install/x86_64/usr/lib\libstartup.a(init_qtime_lapic.o) (alloc_qtime)
C:/Users/Dell/ide-8.0-workspace/hw.x86_64/src/hardware/startup/boards/../../../../install/x86_64/usr/lib\libstartup.a(amd_misc.o)
                              C:/Users/Dell/ide-8.0-workspace/hw.x86_64/src/hardware/startup/boards/../../../../install/x86_64/usr/lib\libstartup.a(init_intrinfo.o) (is_amd_chipset)
C:/Users/Dell/ide-8.0-workspace/hw.x86_64/src/hardware/startup/boards/../../../../install/x86_64/usr/lib\libstartup.a(ap_fail.o)
                              C:/Users/Dell/ide-8.0-workspace/hw.x86_64/src/hardware/startup/boards/../../../../install/x86_64/usr/lib\libstartup.a(init_smp.o) (ap_fail)
C:/Users/Dell/ide-8.0-workspace/hw.x86_64/src/hardware/startup/boards/../../../../install/x86_64/usr/lib\libstartup.a(apic_io_intr.o)
                              C:/Users/Dell/ide-8.0-workspace/hw.x86_64/src/hardware/startup/boards/../../../../install/x86_64/usr/lib\libstartup.a(init_intrinfo.o) (init_intrinfo_ioapic)
C:/Users/Dell/ide-8.0-workspace/hw.x86_64/src/hardware/startup/boards/../../../../install/x86_64/usr/lib\libstartup.a(apic_local_intr.o)
                              C:/Users/Dell/ide-8.0-workspace/hw.x86_64/src/hardware/startup/boards/../../../../install/x86_64/usr/lib\libstartup.a(64apstart.o) (lapic_configure)
C:/Users/Dell/ide-8.0-workspace/hw.x86_64/src/hardware/startup/boards/../../../../install/x86_64/usr/lib\libstartup.a(apic_paddr.o)
                              C:/Users/Dell/ide-8.0-workspace/hw.x86_64/src/hardware/startup/boards/../../../../install/x86_64/usr/lib\libstartup.a(init_cpuinfo.o) (lapic_id)
C:/Users/Dell/ide-8.0-workspace/hw.x86_64/src/hardware/startup/boards/../../../../install/x86_64/usr/lib\libstartup.a(as_add.o)
                              C:/Users/Dell/ide-8.0-workspace/hw.x86_64/src/hardware/startup/boards/../../../../install/x86_64/usr/lib\libstartup.a(init_system_private.o) (as_add)
C:/Users/Dell/ide-8.0-workspace/hw.x86_64/src/hardware/startup/boards/../../../../install/x86_64/usr/lib\libstartup.a(as_add64.o)
                              C:/Users/Dell/ide-8.0-workspace/hw.x86_64/src/hardware/startup/boards/../../../../install/x86_64/usr/lib\libstartup.a(init_hwinfo.o) (as_add64)
C:/Users/Dell/ide-8.0-workspace/hw.x86_64/src/hardware/startup/boards/../../../../install/x86_64/usr/lib\libstartup.a(as_add_containing.o)
                              C:/Users/Dell/ide-8.0-workspace/hw.x86_64/src/hardware/startup/boards/../../../../install/x86_64/usr/lib\libstartup.a(ram.o) (as_add_containing)
C:/Users/Dell/ide-8.0-workspace/hw.x86_64/src/hardware/startup/boards/../../../../install/x86_64/usr/lib\libstartup.a(as_default.o)
                              C:/Users/Dell/ide-8.0-workspace/hw.x86_64/src/hardware/startup/boards/../../../../install/x86_64/usr/lib\libstartup.a(ram.o) (as_default)
C:/Users/Dell/ide-8.0-workspace/hw.x86_64/src/hardware/startup/boards/../../../../install/x86_64/usr/lib\libstartup.a(as_find.o)
                              C:/Users/Dell/ide-8.0-workspace/hw.x86_64/src/hardware/startup/boards/../../../../install/x86_64/usr/lib\libstartup.a(init_hwinfo.o) (as_find)
C:/Users/Dell/ide-8.0-workspace/hw.x86_64/src/hardware/startup/boards/../../../../install/x86_64/usr/lib\libstartup.a(as_find_containing.o)
                              C:/Users/Dell/ide-8.0-workspace/hw.x86_64/src/hardware/startup/boards/../../../../install/x86_64/usr/lib\libstartup.a(ram.o) (as_find_containing)
C:/Users/Dell/ide-8.0-workspace/hw.x86_64/src/hardware/startup/boards/../../../../install/x86_64/usr/lib\libstartup.a(as_off2info.o)
                              C:/Users/Dell/ide-8.0-workspace/hw.x86_64/src/hardware/startup/boards/../../../../install/x86_64/usr/lib\libstartup.a(ram.o) (as_off2info)
C:/Users/Dell/ide-8.0-workspace/hw.x86_64/src/hardware/startup/boards/../../../../install/x86_64/usr/lib\libstartup.a(board_find_acpi_rsdp.o)
                              C:/Users/Dell/ide-8.0-workspace/hw.x86_64/src/hardware/startup/boards/../../../../install/x86_64/usr/lib\libstartup.a(acpi.o) (board_find_acpi_rsdp)
C:/Users/Dell/ide-8.0-workspace/hw.x86_64/src/hardware/startup/boards/../../../../install/x86_64/usr/lib\libstartup.a(board_find_acpi_rsdp_bios.o)
                              C:/Users/Dell/ide-8.0-workspace/hw.x86_64/src/hardware/startup/boards/../../../../install/x86_64/usr/lib\libstartup.a(board_find_acpi_rsdp.o) (board_find_acpi_rsdp_bios)
C:/Users/Dell/ide-8.0-workspace/hw.x86_64/src/hardware/startup/boards/../../../../install/x86_64/usr/lib\libstartup.a(board_find_acpi_rsdp_uefi.o)
                              C:/Users/Dell/ide-8.0-workspace/hw.x86_64/src/hardware/startup/boards/../../../../install/x86_64/usr/lib\libstartup.a(board_find_acpi_rsdp.o) (board_find_acpi_rsdp_uefi)
C:/Users/Dell/ide-8.0-workspace/hw.x86_64/src/hardware/startup/boards/../../../../install/x86_64/usr/lib\libstartup.a(board_smp.o)
                              C:/Users/Dell/ide-8.0-workspace/hw.x86_64/src/hardware/startup/boards/../../../../install/x86_64/usr/lib\libstartup.a(init_smp.o) (board_smp_num_cpu)
C:/Users/Dell/ide-8.0-workspace/hw.x86_64/src/hardware/startup/boards/../../../../install/x86_64/usr/lib\libstartup.a(board_sysctl.o)
                              C:/Users/Dell/ide-8.0-workspace/hw.x86_64/src/hardware/startup/boards/../../../../install/x86_64/usr/lib\libstartup.a(load_ifs.o) (board_enable_caches)
C:/Users/Dell/ide-8.0-workspace/hw.x86_64/src/hardware/startup/boards/../../../../install/x86_64/usr/lib\libstartup.a(calc_cksum.o)
                              C:/Users/Dell/ide-8.0-workspace/hw.x86_64/src/hardware/startup/boards/../../../../install/x86_64/usr/lib\libstartup.a(board_find_acpi_rsdp_bios.o) (calc_cksum)
C:/Users/Dell/ide-8.0-workspace/hw.x86_64/src/hardware/startup/boards/../../../../install/x86_64/usr/lib\libstartup.a(callout_apstart.o)
                              C:/Users/Dell/ide-8.0-workspace/hw.x86_64/src/hardware/startup/boards/../../../../install/x86_64/usr/lib\libstartup.a(init_smp.o) (smp_spin)
C:/Users/Dell/ide-8.0-workspace/hw.x86_64/src/hardware/startup/boards/../../../../install/x86_64/usr/lib\libstartup.a(callout_interrupt_apic.o)
                              C:/Users/Dell/ide-8.0-workspace/hw.x86_64/src/hardware/startup/boards/../../../../install/x86_64/usr/lib\libstartup.a(init_intrinfo_msi.o) (interrupt_lapic_stub)
C:/Users/Dell/ide-8.0-workspace/hw.x86_64/src/hardware/startup/boards/../../../../install/x86_64/usr/lib\libstartup.a(callout_interrupt_ioapic.o)
                              C:/Users/Dell/ide-8.0-workspace/hw.x86_64/src/hardware/startup/boards/../../../../install/x86_64/usr/lib\libstartup.a(apic_io_intr.o) (interrupt_id_ioapic)
C:/Users/Dell/ide-8.0-workspace/hw.x86_64/src/hardware/startup/boards/../../../../install/x86_64/usr/lib\libstartup.a(callout_reboot.o)
                              C:/Users/Dell/ide-8.0-workspace/hw.x86_64/src/hardware/startup/boards/../../../../install/x86_64/usr/lib\libstartup.a(init_reboot_callout.o) (reboot)
C:/Users/Dell/ide-8.0-workspace/hw.x86_64/src/hardware/startup/boards/../../../../install/x86_64/usr/lib\libstartup.a(callouts.o)
                              C:/Users/Dell/ide-8.0-workspace/hw.x86_64/src/hardware/startup/boards/../../../../install/x86_64/usr/lib\libstartup.a(syspage_memory.o) (output_callouts)
C:/Users/Dell/ide-8.0-workspace/hw.x86_64/src/hardware/startup/boards/../../../../install/x86_64/usr/lib\libstartup.a(chip_access.o)
                              C:/Users/Dell/ide-8.0-workspace/hw.x86_64/src/hardware/startup/boards/../../../../install/x86_64/usr/lib\libstartup.a(hw_ser8250.o) (chip_access)
C:/Users/Dell/ide-8.0-workspace/hw.x86_64/src/hardware/startup/boards/../../../../install/x86_64/usr/lib\libstartup.a(cpu_family_clock.o)
                              C:/Users/Dell/ide-8.0-workspace/hw.x86_64/src/hardware/startup/boards/../../../../install/x86_64/usr/lib\libstartup.a(init_qtime_lapic.o) (get_processor_base_freq)
C:/Users/Dell/ide-8.0-workspace/hw.x86_64/src/hardware/startup/boards/../../../../install/x86_64/usr/lib\libstartup.a(cpu_family_model.o)
                              C:/Users/Dell/ide-8.0-workspace/hw.x86_64/src/hardware/startup/boards/../../../../install/x86_64/usr/lib\libstartup.a(cpu_startup.o) (cpu_family_model)
C:/Users/Dell/ide-8.0-workspace/hw.x86_64/src/hardware/startup/boards/../../../../install/x86_64/usr/lib\libstartup.a(cpu_features.o)
                              C:/Users/Dell/ide-8.0-workspace/hw.x86_64/src/hardware/startup/boards/../../../../install/x86_64/usr/lib\libstartup.a(hw_cputype.o) (cpu_features_set)
C:/Users/Dell/ide-8.0-workspace/hw.x86_64/src/hardware/startup/boards/../../../../install/x86_64/usr/lib\libstartup.a(cpu_id.o)
                              C:/Users/Dell/ide-8.0-workspace/hw.x86_64/src/hardware/startup/boards/../../../../install/x86_64/usr/lib\libstartup.a(cpu_startup.o) (x86_cpuid)
C:/Users/Dell/ide-8.0-workspace/hw.x86_64/src/hardware/startup/boards/../../../../install/x86_64/usr/lib\libstartup.a(cpu_startnext.o)
                              C:/Users/Dell/ide-8.0-workspace/hw.x86_64/src/hardware/startup/boards/../../../../install/x86_64/usr/lib\libstartup.a(startnext.o) (cpu_startnext)
C:/Users/Dell/ide-8.0-workspace/hw.x86_64/src/hardware/startup/boards/../../../../install/x86_64/usr/lib\libstartup.a(cpu_syspage_memory.o)
                              C:/Users/Dell/ide-8.0-workspace/hw.x86_64/src/hardware/startup/boards/../../../../install/x86_64/usr/lib\libstartup.a(syspage_memory.o) (cpu_init_syspage_memory)
C:/Users/Dell/ide-8.0-workspace/hw.x86_64/src/hardware/startup/boards/../../../../install/x86_64/usr/lib\libstartup.a(cpu_tsc.o)
                              C:/Users/Dell/ide-8.0-workspace/hw.x86_64/src/hardware/startup/boards/../../../../install/x86_64/usr/lib\libstartup.a(init_cpuinfo.o) (fix_tsc)
C:/Users/Dell/ide-8.0-workspace/hw.x86_64/src/hardware/startup/boards/../../../../install/x86_64/usr/lib\libstartup.a(cpu_tweak_cmdline.o)
                              C:/Users/Dell/ide-8.0-workspace/hw.x86_64/src/hardware/startup/boards/../../../../install/x86_64/usr/lib\libstartup.a(tweak_cmdline.o) (cpu_tweak_cmdline)
C:/Users/Dell/ide-8.0-workspace/hw.x86_64/src/hardware/startup/boards/../../../../install/x86_64/usr/lib\libstartup.a(crash_done.o)
                              C:/Users/Dell/ide-8.0-workspace/hw.x86_64/src/hardware/startup/boards/../../../../install/x86_64/usr/lib\libstartup.a(kprintf.o) (crash_done)
C:/Users/Dell/ide-8.0-workspace/hw.x86_64/src/hardware/startup/boards/../../../../install/x86_64/usr/lib\libstartup.a(dummy_print_char.o)
                              C:/Users/Dell/ide-8.0-workspace/hw.x86_64/src/hardware/startup/boards/../../../../install/x86_64/usr/lib\libstartup.a(kprintf.o) (dummy_print_char)
C:/Users/Dell/ide-8.0-workspace/hw.x86_64/src/hardware/startup/boards/../../../../install/x86_64/usr/lib\libstartup.a(elf.o)
                              C:/Users/Dell/ide-8.0-workspace/hw.x86_64/src/hardware/startup/boards/../../../../install/x86_64/usr/lib\libstartup.a(init_system_private.o) (load_elf)
C:/Users/Dell/ide-8.0-workspace/hw.x86_64/src/hardware/startup/boards/../../../../install/x86_64/usr/lib\libstartup.a(elf32.o)
                              C:/Users/Dell/ide-8.0-workspace/hw.x86_64/src/hardware/startup/boards/../../../../install/x86_64/usr/lib\libstartup.a(elf.o) (load_elf32)
C:/Users/Dell/ide-8.0-workspace/hw.x86_64/src/hardware/startup/boards/../../../../install/x86_64/usr/lib\libstartup.a(elf64.o)
                              C:/Users/Dell/ide-8.0-workspace/hw.x86_64/src/hardware/startup/boards/../../../../install/x86_64/usr/lib\libstartup.a(elf.o) (load_elf64)
C:/Users/Dell/ide-8.0-workspace/hw.x86_64/src/hardware/startup/boards/../../../../install/x86_64/usr/lib\libstartup.a(elf_map.o)
                              C:/Users/Dell/ide-8.0-workspace/hw.x86_64/src/hardware/startup/boards/../../../../install/x86_64/usr/lib\libstartup.a(init_mmu.o) (elf_map)
C:/Users/Dell/ide-8.0-workspace/hw.x86_64/src/hardware/startup/boards/../../../../install/x86_64/usr/lib\libstartup.a(fdt_vars.o)
                              C:/Users/Dell/ide-8.0-workspace/hw.x86_64/src/hardware/startup/boards/../../../../install/x86_64/usr/lib\libstartup.a(init_system_private.o) (fdt_boot_option)
C:/Users/Dell/ide-8.0-workspace/hw.x86_64/src/hardware/startup/boards/../../../../install/x86_64/usr/lib\libstartup.a(find_ecam_base.o)
                              C:/Users/Dell/ide-8.0-workspace/hw.x86_64/src/hardware/startup/boards/../../../../install/x86_64/usr/lib\libstartup.a(init_hwinfo.o) (find_ecam_base)
C:/Users/Dell/ide-8.0-workspace/hw.x86_64/src/hardware/startup/boards/../../../../install/x86_64/usr/lib\libstartup.a(find_top_intr.o)
                              C:/Users/Dell/ide-8.0-workspace/hw.x86_64/src/hardware/startup/boards/../../../../install/x86_64/usr/lib\libstartup.a(cpu_syspage_memory.o) (find_top_cpu_intr)
C:/Users/Dell/ide-8.0-workspace/hw.x86_64/src/hardware/startup/boards/../../../../install/x86_64/usr/lib\libstartup.a(hv_guest.o)
                              C:/Users/Dell/ide-8.0-workspace/hw.x86_64/src/hardware/startup/boards/../../../../install/x86_64/usr/lib\libstartup.a(set_cycles.o) (hvg_tsc_frequency)
C:/Users/Dell/ide-8.0-workspace/hw.x86_64/src/hardware/startup/boards/../../../../install/x86_64/usr/lib\libstartup.a(hw_cpuid_string.o)
                              C:/Users/Dell/ide-8.0-workspace/hw.x86_64/src/hardware/startup/boards/../../../../install/x86_64/usr/lib\libstartup.a(init_cpuinfo.o) (x86_cpuid_string)
C:/Users/Dell/ide-8.0-workspace/hw.x86_64/src/hardware/startup/boards/../../../../install/x86_64/usr/lib\libstartup.a(hw_cpuspeed.o)
                              C:/Users/Dell/ide-8.0-workspace/hw.x86_64/src/hardware/startup/boards/../../../../install/x86_64/usr/lib\libstartup.a(init_cpuinfo.o) (x86_cpuspeed)
C:/Users/Dell/ide-8.0-workspace/hw.x86_64/src/hardware/startup/boards/../../../../install/x86_64/usr/lib\libstartup.a(hw_scanmem.o)
                              C:/Users/Dell/ide-8.0-workspace/hw.x86_64/src/hardware/startup/boards/../../../../install/x86_64/usr/lib\libstartup.a(init_raminfo.o) (x86_scanmem)
C:/Users/Dell/ide-8.0-workspace/hw.x86_64/src/hardware/startup/boards/../../../../install/x86_64/usr/lib\libstartup.a(hwi_add_device.o)
                              C:/Users/Dell/ide-8.0-workspace/hw.x86_64/src/hardware/startup/boards/../../../../install/x86_64/usr/lib\libstartup.a(hwi_add_nanospin.o) (hwi_add_device)
C:/Users/Dell/ide-8.0-workspace/hw.x86_64/src/hardware/startup/boards/../../../../install/x86_64/usr/lib\libstartup.a(hwi_add_irq.o)
                              C:/Users/Dell/ide-8.0-workspace/hw.x86_64/src/hardware/startup/boards/../../../../install/x86_64/usr/lib\libstartup.a(init_hwinfo.o) (hwi_add_irq)
C:/Users/Dell/ide-8.0-workspace/hw.x86_64/src/hardware/startup/boards/../../../../install/x86_64/usr/lib\libstartup.a(hwi_add_location.o)
                              C:/Users/Dell/ide-8.0-workspace/hw.x86_64/src/hardware/startup/boards/../../../../install/x86_64/usr/lib\libstartup.a(init_hwinfo.o) (hwi_add_location)
C:/Users/Dell/ide-8.0-workspace/hw.x86_64/src/hardware/startup/boards/../../../../install/x86_64/usr/lib\libstartup.a(hwi_default.o)
                              C:/Users/Dell/ide-8.0-workspace/hw.x86_64/src/hardware/startup/boards/../../../../install/x86_64/usr/lib\libstartup.a(syspage_memory.o) (hwi_default)
C:/Users/Dell/ide-8.0-workspace/hw.x86_64/src/hardware/startup/boards/../../../../install/x86_64/usr/lib\libstartup.a(hwi_find_as.o)
                              C:/Users/Dell/ide-8.0-workspace/hw.x86_64/src/hardware/startup/boards/../../../../install/x86_64/usr/lib\libstartup.a(init_hwinfo.o) (hwi_find_as)
C:/Users/Dell/ide-8.0-workspace/hw.x86_64/src/hardware/startup/boards/../../../../install/x86_64/usr/lib\libstartup.a(hwidev_add.o)
                              C:/Users/Dell/ide-8.0-workspace/hw.x86_64/src/hardware/startup/boards/../../../../install/x86_64/usr/lib\libstartup.a(init_hwinfo.o) (hwidev_add)
C:/Users/Dell/ide-8.0-workspace/hw.x86_64/src/hardware/startup/boards/../../../../install/x86_64/usr/lib\libstartup.a(hwitag_add_irq.o)
                              C:/Users/Dell/ide-8.0-workspace/hw.x86_64/src/hardware/startup/boards/../../../../install/x86_64/usr/lib\libstartup.a(hwi_add_irq.o) (hwitag_add_irq)
C:/Users/Dell/ide-8.0-workspace/hw.x86_64/src/hardware/startup/boards/../../../../install/x86_64/usr/lib\libstartup.a(hwitag_add_location.o)
                              C:/Users/Dell/ide-8.0-workspace/hw.x86_64/src/hardware/startup/boards/../../../../install/x86_64/usr/lib\libstartup.a(init_hwinfo.o) (hwitag_add_location)
C:/Users/Dell/ide-8.0-workspace/hw.x86_64/src/hardware/startup/boards/../../../../install/x86_64/usr/lib\libstartup.a(hypervisor.o)
                              C:/Users/Dell/ide-8.0-workspace/hw.x86_64/src/hardware/startup/boards/../../../../install/x86_64/usr/lib\libstartup.a(hypervisor_setup.o) (arch_hypervisor_validate_flags)
C:/Users/Dell/ide-8.0-workspace/hw.x86_64/src/hardware/startup/boards/../../../../install/x86_64/usr/lib\libstartup.a(ich_misc.o)
                              C:/Users/Dell/ide-8.0-workspace/hw.x86_64/src/hardware/startup/boards/../../../../install/x86_64/usr/lib\libstartup.a(ioapic_ich.o) (ich_corporate_model)
C:/Users/Dell/ide-8.0-workspace/hw.x86_64/src/hardware/startup/boards/../../../../install/x86_64/usr/lib\libstartup.a(imps.o)
                              C:/Users/Dell/ide-8.0-workspace/hw.x86_64/src/hardware/startup/boards/../../../../install/x86_64/usr/lib\libstartup.a(apic_local_intr.o) (is_imcr_present)
C:/Users/Dell/ide-8.0-workspace/hw.x86_64/src/hardware/startup/boards/../../../../install/x86_64/usr/lib\libstartup.a(imps_ioapic.o)
                              C:/Users/Dell/ide-8.0-workspace/hw.x86_64/src/hardware/startup/boards/../../../../install/x86_64/usr/lib\libstartup.a(ioapic_find.o) (ioapic_discover_imps)
C:/Users/Dell/ide-8.0-workspace/hw.x86_64/src/hardware/startup/boards/../../../../install/x86_64/usr/lib\libstartup.a(imps_smp.o)
                              C:/Users/Dell/ide-8.0-workspace/hw.x86_64/src/hardware/startup/boards/../../../../install/x86_64/usr/lib\libstartup.a(apic_paddr.o) (imps_smp_num_cpu)
C:/Users/Dell/ide-8.0-workspace/hw.x86_64/src/hardware/startup/boards/../../../../install/x86_64/usr/lib\libstartup.a(init_asinfo.o)
                              C:/Users/Dell/ide-8.0-workspace/hw.x86_64/src/hardware/startup/boards/../../../../install/x86_64/usr/lib\libstartup.a(ram.o) (init_asinfo)
C:/Users/Dell/ide-8.0-workspace/hw.x86_64/src/hardware/startup/boards/../../../../install/x86_64/usr/lib\libstartup.a(init_gdt.o)
                              C:/Users/Dell/ide-8.0-workspace/hw.x86_64/src/hardware/startup/boards/../../../../install/x86_64/usr/lib\libstartup.a(cpu_syspage_memory.o) (init_gdt)
C:/Users/Dell/ide-8.0-workspace/hw.x86_64/src/hardware/startup/boards/../../../../install/x86_64/usr/lib\libstartup.a(init_mitigation_mem.o)
                              C:/Users/Dell/ide-8.0-workspace/hw.x86_64/src/hardware/startup/boards/../../../../install/x86_64/usr/lib\libstartup.a(init_system_private.o) (init_mitigation_mem)
C:/Users/Dell/ide-8.0-workspace/hw.x86_64/src/hardware/startup/boards/../../../../install/x86_64/usr/lib\libstartup.a(ioapic_auto_config.o)
                              C:/Users/Dell/ide-8.0-workspace/hw.x86_64/src/hardware/startup/boards/../../../../install/x86_64/usr/lib\libstartup.a(apic_io_intr.o) (ioapic_auto_config)
C:/Users/Dell/ide-8.0-workspace/hw.x86_64/src/hardware/startup/boards/../../../../install/x86_64/usr/lib\libstartup.a(ioapic_default_configs.o)
                              C:/Users/Dell/ide-8.0-workspace/hw.x86_64/src/hardware/startup/boards/../../../../install/x86_64/usr/lib\libstartup.a(ioapic_auto_config.o) (ioapic_autofill_defaults)
C:/Users/Dell/ide-8.0-workspace/hw.x86_64/src/hardware/startup/boards/../../../../install/x86_64/usr/lib\libstartup.a(map_startup_io.o)
                              C:/Users/Dell/ide-8.0-workspace/hw.x86_64/src/hardware/startup/boards/../../../../install/x86_64/usr/lib\libstartup.a(chip_access.o) (startup_io_map)
C:/Users/Dell/ide-8.0-workspace/hw.x86_64/src/hardware/startup/boards/../../../../install/x86_64/usr/lib\libstartup.a(rtc_time.o)
                              C:/Users/Dell/ide-8.0-workspace/hw.x86_64/src/hardware/startup/boards/../../../../install/x86_64/usr/lib\libstartup.a(alloc_qtime.o) (rtc_time)
C:/Users/Dell/ide-8.0-workspace/hw.x86_64/src/hardware/startup/boards/../../../../install/x86_64/usr/lib\libstartup.a(timer_ns2tick.o)
                              C:/Users/Dell/ide-8.0-workspace/hw.x86_64/src/hardware/startup/boards/../../../../install/x86_64/usr/lib\libstartup.a(cpu_tsc.o) (timer_ns2tick)
C:/Users/Dell/ide-8.0-workspace/hw.x86_64/src/hardware/startup/boards/../../../../install/x86_64/usr/lib\libstartup.a(timer_tick2ns.o)
                              C:/Users/Dell/ide-8.0-workspace/hw.x86_64/src/hardware/startup/boards/../../../../install/x86_64/usr/lib\libstartup.a(timer_ns2tick.o) (timer_tick2ns)
C:/Users/Dell/ide-8.0-workspace/hw.x86_64/src/hardware/startup/boards/../../../../install/x86_64/usr/lib\libstartup.a(acpi_smp.o)
                              C:/Users/Dell/ide-8.0-workspace/hw.x86_64/src/hardware/startup/boards/../../../../install/x86_64/usr/lib\libstartup.a(apic_paddr.o) (acpi_smp_num_cpu)
C:/Users/Dell/ide-8.0-workspace/hw.x86_64/src/hardware/startup/boards/../../../../install/x86_64/usr/lib\libstartup.a(apic_smp.o)
                              C:/Users/Dell/ide-8.0-workspace/hw.x86_64/src/hardware/startup/boards/../../../../install/x86_64/usr/lib\libstartup.a(imps_smp.o) (apic_add_cpuid)
C:/Users/Dell/ide-8.0-workspace/hw.x86_64/src/hardware/startup/boards/../../../../install/x86_64/usr/lib\libstartup.a(bootstrap_cmdline.o)
                              C:/Users/Dell/ide-8.0-workspace/hw.x86_64/src/hardware/startup/boards/../../../../install/x86_64/usr/lib\libstartup.a(cpu_tweak_cmdline.o) (bootstrap_arg_adjust)
C:/Users/Dell/ide-8.0-workspace/hw.x86_64/src/hardware/startup/boards/../../../../install/x86_64/usr/lib\libstartup.a(hw_rtc_mc146818.o)
                              C:/Users/Dell/ide-8.0-workspace/hw.x86_64/src/hardware/startup/boards/../../../../install/x86_64/usr/lib\libstartup.a(rtc_time.o) (rtc_time_mc146818)
C:/Users/Dell/ide-8.0-workspace/hw.x86_64/src/hardware/startup/boards/../../../../install/x86_64/usr/lib\libstartup.a(hwi_add_rtc.o)
                              C:/Users/Dell/ide-8.0-workspace/hw.x86_64/src/hardware/startup/boards/../../../../install/x86_64/usr/lib\libstartup.a(hw_rtc_mc146818.o) (hwi_add_rtc)
C:/Users/Dell/ide-8.0-workspace/hw.x86_64/src/hardware/startup/boards/../../../../install/x86_64/usr/lib\libstartup.a(16apstart.o)
                              C:/Users/Dell/ide-8.0-workspace/hw.x86_64/src/hardware/startup/boards/../../../../install/x86_64/usr/lib\libstartup.a(apic_smp.o) (apstart16_start)
C:/Users/Dell/ide-8.0-workspace/hw.x86_64/src/hardware/startup/boards/../../../../install/x86_64/usr/lib\libstartup.a(bcd2bin.o)
                              C:/Users/Dell/ide-8.0-workspace/hw.x86_64/src/hardware/startup/boards/../../../../install/x86_64/usr/lib\libstartup.a(hw_rtc_mc146818.o) (bcd2bin)
C:/Users/Dell/ide-8.0-workspace/hw.x86_64/src/hardware/startup/boards/../../../../install/x86_64/usr/lib\libstartup.a(calc_time_t.o)
                              C:/Users/Dell/ide-8.0-workspace/hw.x86_64/src/hardware/startup/boards/../../../../install/x86_64/usr/lib\libstartup.a(hw_rtc_mc146818.o) (calc_time_t)
C:/Users/Dell/qnx800/target/qnx/x86_64/usr/lib\libucl.a(n2b_d.o)
                              C:/Users/Dell/ide-8.0-workspace/hw.x86_64/src/hardware/startup/boards/../../../../install/x86_64/usr/lib\libstartup.a(uncompress_ucl.o) (ucl_nrv2b_decompress_8)
C:/Users/Dell/qnx800/target/qnx/x86_64/lib\libc.a(hwi_find_item.o)
                              C:/Users/Dell/ide-8.0-workspace/hw.x86_64/src/hardware/startup/boards/../../../../install/x86_64/usr/lib\libstartup.a(init_hwinfo.o) (hwi_find_item)
C:/Users/Dell/qnx800/target/qnx/x86_64/lib\libc.a(hwi_off2tag.o)
                              C:/Users/Dell/ide-8.0-workspace/hw.x86_64/src/hardware/startup/boards/../../../../install/x86_64/usr/lib\libstartup.a(hwi_alloc.o) (hwi_off2tag)
C:/Users/Dell/qnx800/target/qnx/x86_64/lib\libc.a(hwi_tag2off.o)
                              C:/Users/Dell/ide-8.0-workspace/hw.x86_64/src/hardware/startup/boards/../../../../install/x86_64/usr/lib\libstartup.a(init_hwinfo.o) (hwi_tag2off)
C:/Users/Dell/qnx800/target/qnx/x86_64/lib\libc.a(memcmp.o)
                              C:/Users/Dell/ide-8.0-workspace/hw.x86_64/src/hardware/startup/boards/../../../../install/x86_64/usr/lib\libstartup.a(common_options.o) (memcmp)
C:/Users/Dell/qnx800/target/qnx/x86_64/lib\libc.a(memset.o)
                              C:/Users/Dell/ide-8.0-workspace/hw.x86_64/src/hardware/startup/boards/../../../../install/x86_64/usr/lib\libstartup.a(jtag.o) (memset)
C:/Users/Dell/qnx800/target/qnx/x86_64/lib\libc.a(strcasecmp.o)
                              C:/Users/Dell/ide-8.0-workspace/hw.x86_64/src/hardware/startup/boards/../../../../install/x86_64/usr/lib\libstartup.a(cpu_family_clock.o) (strcasecmp)
C:/Users/Dell/qnx800/target/qnx/x86_64/lib\libc.a(strchr.o)
                              main.o (strchr)
C:/Users/Dell/qnx800/target/qnx/x86_64/lib\libc.a(strcmp.o)
                              C:/Users/Dell/ide-8.0-workspace/hw.x86_64/src/hardware/startup/boards/../../../../install/x86_64/usr/lib\libstartup.a(cpu_common_options.o) (strcmp)
C:/Users/Dell/qnx800/target/qnx/x86_64/lib\libc.a(strlcpy.o)
                              C:/Users/Dell/ide-8.0-workspace/hw.x86_64/src/hardware/startup/boards/../../../../install/x86_64/usr/lib\libstartup.a(strings.o) (strlcpy)
C:/Users/Dell/qnx800/target/qnx/x86_64/lib\libc.a(strlen.o)
                              C:/Users/Dell/ide-8.0-workspace/hw.x86_64/src/hardware/startup/boards/../../../../install/x86_64/usr/lib\libstartup.a(common_options.o) (strlen)
C:/Users/Dell/qnx800/target/qnx/x86_64/lib\libc.a(strstr.o)
                              C:/Users/Dell/ide-8.0-workspace/hw.x86_64/src/hardware/startup/boards/../../../../install/x86_64/usr/lib\libstartup.a(uefi_io.o) (strstr)
C:/Users/Dell/qnx800/target/qnx/x86_64/lib\libc.a(__progname.o)
                              C:/Users/Dell/ide-8.0-workspace/hw.x86_64/src/hardware/startup/boards/../../../../install/x86_64/usr/lib\libstartup.a(ssp.o) (__progname)
C:/Users/Dell/qnx800/target/qnx/x86_64/lib\libc.a(_ssp.o)
                              main.o (__stack_chk_fail)
C:/Users/Dell/qnx800/target/qnx/x86_64/lib\libc.a(__stack_chk_guard.o)
                              main.o (__stack_chk_guard)
C:/Users/Dell/qnx800/target/qnx/x86_64/lib\libc.a(xtolotab.o)
                              C:/Users/Dell/qnx800/target/qnx/x86_64/lib\libc.a(strstr.o) (_Tolotab)
C:/Users/Dell/qnx800/target/qnx/x86_64/lib\libc.a(strncasecmp.o)
                              C:/Users/Dell/qnx800/target/qnx/x86_64/lib\libc.a(strstr.o) (strncasecmp)
C:/Users/Dell/qnx800/target/qnx/x86_64/lib\libc.a(strncmp.o)
                              C:/Users/Dell/qnx800/target/qnx/x86_64/lib\libc.a(strstr.o) (strncmp)
C:/Users/Dell/qnx800/target/qnx/x86_64/lib\libc.a(strrchr.o)
                              C:/Users/Dell/qnx800/target/qnx/x86_64/lib\libc.a(__progname.o) (strrchr)

There are no discarded input sections

Memory Configuration

Name             Origin             Length             Attributes
*default*        0x0000000000000000 0xffffffffffffffff

Linker script and memory map

LOAD main.o
LOAD C:/Users/Dell/ide-8.0-workspace/hw.x86_64/src/hardware/startup/boards/../../../../install/x86_64/usr/lib\libstartup.a
LOAD C:/Users/Dell/qnx800/target/qnx/x86_64/usr/lib\liblzo2.a
LOAD C:/Users/Dell/qnx800/target/qnx/x86_64/usr/lib\libucl.a
LOAD C:/Users/Dell/qnx800/target/qnx/x86_64/usr/lib\libdrvr.a
LOAD C:/Users/Dell/qnx800/target/qnx/x86_64/lib\libc.a
LOAD C:/Users/Dell/qnx800/target/qnx/x86_64/lib\libcS.a
LOAD C:/Users/Dell/qnx800/host/win64/x86_64/usr/lib/gcc/x86_64-pc-nto-qnx8.0.0/12.2.0\libgcc.a

.interp
 *(.interp)

.note.gnu.build-id
 *(.note.gnu.build-id)

.hash
 *(.hash)

.gnu.hash
 *(.gnu.hash)

.dynsym
 *(.dynsym)

.dynstr
 *(.dynstr)

.gnu.version
 *(.gnu.version)

.gnu.version_d
 *(.gnu.version_d)

.gnu.version_r
 *(.gnu.version_r)

.rela.init
 *(.rela.init)

.rela.text
 *(.rela.text)

.rela.fini
 *(.rela.fini)

.rela.rodata
 *(.rela.rodata)

.rela.data.rel.ro
 *(.rela.data.rel.ro)

.rela.data
 *(.rela.data)

.rela.tdata
 *(.rela.tdata)

.rela.tbss
 *(.rela.tbss)

.rela.ctors
 *(.rela.ctors)

.rela.dtors
 *(.rela.dtors)

.rela.got
 *(.rela.got)

.rela.bss
 *(.rela.bss)

.rela.ldata
 *(.rela.ldata)

.rela.lbss
 *(.rela.lbss)

.rela.lrodata
 *(.rela.lrodata)

.rela.ifunc
 *(.rela.ifunc)

.rela.plt
 *(.rela.plt)

.relr.dyn
 *(.relr.dyn)

.init
 *(SORT_NONE(.init))

.plt
 *(.plt)

.plt.got
 *(.plt.got)

.plt.sec
 *(.plt.sec)

.text           0x0000000000000000    0x205fe
 *(.text .stub)
 .text          0x0000000000000000        0x0 main.o
 .text          0x0000000000000000      0x1db C:/Users/Dell/ide-8.0-workspace/hw.x86_64/src/hardware/startup/boards/../../../../install/x86_64/usr/lib\libstartup.a(_main.o)
                0x0000000000000010                _main
                0x00000000000001c0                __get_errno_ptr
                0x00000000000001d0                __stackavail
 *fill*         0x00000000000001db        0x5 
 .text          0x00000000000001e0        0x1 C:/Users/Dell/ide-8.0-workspace/hw.x86_64/src/hardware/startup/boards/../../../../install/x86_64/usr/lib\libstartup.a(board_init.o)
                0x00000000000001e0                board_init
 .text          0x00000000000001e1      0x110 C:/Users/Dell/ide-8.0-workspace/hw.x86_64/src/hardware/startup/boards/../../../../install/x86_64/usr/lib\libstartup.a(callout_debug_8250.o)
                0x00000000000001e1                patch_debug_8250
                0x00000000000001f3                display_char_8250
                0x0000000000000247                poll_key_8250
                0x000000000000029e                break_detect_8250
 .text          0x00000000000002f1      0x1cd C:/Users/Dell/ide-8.0-workspace/hw.x86_64/src/hardware/startup/boards/../../../../install/x86_64/usr/lib\libstartup.a(callout_debug_con.o)
                0x0000000000000337                display_char_vga
                0x0000000000000474                poll_key_pckbd
                0x00000000000004a7                break_detect_pckbd
 .text          0x00000000000004be       0x49 C:/Users/Dell/ide-8.0-workspace/hw.x86_64/src/hardware/startup/boards/../../../../install/x86_64/usr/lib\libstartup.a(callout_debug_dummy.o)
                0x00000000000004be                display_char_dummy
                0x00000000000004d3                poll_key_dummy
                0x00000000000004ef                break_detect_dummy
 *fill*         0x0000000000000507        0x9 
 .text          0x0000000000000510      0x6ef C:/Users/Dell/ide-8.0-workspace/hw.x86_64/src/hardware/startup/boards/../../../../install/x86_64/usr/lib\libstartup.a(common_options.o)
                0x00000000000005f0                handle_common_option
                0x0000000000000a20                set_debug
                0x0000000000000bc0                select_debug
 *fill*         0x0000000000000bff        0x1 
 .text          0x0000000000000c00       0x90 C:/Users/Dell/ide-8.0-workspace/hw.x86_64/src/hardware/startup/boards/../../../../install/x86_64/usr/lib\libstartup.a(cpu_cluster_add.o)
                0x0000000000000c00                cpu_cluster_add
 .text          0x0000000000000c90       0xbe C:/Users/Dell/ide-8.0-workspace/hw.x86_64/src/hardware/startup/boards/../../../../install/x86_64/usr/lib\libstartup.a(cpu_common_options.o)
                0x0000000000000c90                cpu_handle_common_option
 *fill*         0x0000000000000d4e        0x2 
 .text          0x0000000000000d50      0x2a7 C:/Users/Dell/ide-8.0-workspace/hw.x86_64/src/hardware/startup/boards/../../../../install/x86_64/usr/lib\libstartup.a(cpu_startup.o)
                0x0000000000000d50                cpu_one_startup
                0x0000000000000ff0                cpu_startup
 *fill*         0x0000000000000ff7        0x1 
 .text          0x0000000000000ff8     0x2ba0 C:/Users/Dell/ide-8.0-workspace/hw.x86_64/src/hardware/startup/boards/../../../../install/x86_64/usr/lib\libstartup.a(cstart64.o)
                0x0000000000001008                _start
                0x0000000000001008                _cstart_
                0x0000000000001098                boot_args
                0x00000000000010a0                stack_addr_lo
                0x0000000000003b98                stack_addr_hi
 *fill*         0x0000000000003b98        0x8 
 .text          0x0000000000003ba0       0x61 C:/Users/Dell/ide-8.0-workspace/hw.x86_64/src/hardware/startup/boards/../../../../install/x86_64/usr/lib\libstartup.a(debug.o)
                0x0000000000003ba0                print_syspage
 .text          0x0000000000003c01       0x26 C:/Users/Dell/ide-8.0-workspace/hw.x86_64/src/hardware/startup/boards/../../../../install/x86_64/usr/lib\libstartup.a(early_setup.o)
                0x0000000000003c01                early_cpu_setup
 *fill*         0x0000000000003c27      0x3d9 
 .text          0x0000000000004000     0x7008 C:/Users/Dell/ide-8.0-workspace/hw.x86_64/src/hardware/startup/boards/../../../../install/x86_64/usr/lib\libstartup.a(entry_32prot.o)
                0x0000000000004000                fillpage
                0x0000000000004016                fillpages
                0x0000000000004092                entry_32prot
 *fill*         0x000000000000b008        0x8 
 .text          0x000000000000b010      0x165 C:/Users/Dell/ide-8.0-workspace/hw.x86_64/src/hardware/startup/boards/../../../../install/x86_64/usr/lib\libstartup.a(getopt.o)
                0x000000000000b010                getopt
 *fill*         0x000000000000b175        0xb 
 .text          0x000000000000b180       0x8f C:/Users/Dell/ide-8.0-workspace/hw.x86_64/src/hardware/startup/boards/../../../../install/x86_64/usr/lib\libstartup.a(getsize.o)
                0x000000000000b180                getsize
 .text          0x000000000000b20f       0x60 C:/Users/Dell/ide-8.0-workspace/hw.x86_64/src/hardware/startup/boards/../../../../install/x86_64/usr/lib\libstartup.a(hw_cputype.o)
                0x000000000000b20f                x86_64_cputype
                0x000000000000b20f                x86_cputype
 *fill*         0x000000000000b26f        0x1 
 .text          0x000000000000b270      0x35d C:/Users/Dell/ide-8.0-workspace/hw.x86_64/src/hardware/startup/boards/../../../../install/x86_64/usr/lib\libstartup.a(hw_ser8250.o)
                0x000000000000b420                init_8250_common
                0x000000000000b510                init_8250
                0x000000000000b590                put_8250
 *fill*         0x000000000000b5cd        0x3 
 .text          0x000000000000b5d0      0x31b C:/Users/Dell/ide-8.0-workspace/hw.x86_64/src/hardware/startup/boards/../../../../install/x86_64/usr/lib\libstartup.a(hw_ser8250_pci.o)
                0x000000000000b860                init_8250_pci
 *fill*         0x000000000000b8eb        0x5 
 .text          0x000000000000b8f0      0x127 C:/Users/Dell/ide-8.0-workspace/hw.x86_64/src/hardware/startup/boards/../../../../install/x86_64/usr/lib\libstartup.a(hw_vgaout32.o)
                0x000000000000b940                init_vga
                0x000000000000b950                put_vga
 *fill*         0x000000000000ba17        0x9 
 .text          0x000000000000ba20       0x43 C:/Users/Dell/ide-8.0-workspace/hw.x86_64/src/hardware/startup/boards/../../../../install/x86_64/usr/lib\libstartup.a(hwi_add_nanospin.o)
                0x000000000000ba20                hwi_add_nanospin
 *fill*         0x000000000000ba63        0xd 
 .text          0x000000000000ba70      0x18f C:/Users/Dell/ide-8.0-workspace/hw.x86_64/src/hardware/startup/boards/../../../../install/x86_64/usr/lib\libstartup.a(hwi_alloc.o)
                0x000000000000ba70                __hwi_find_string
                0x000000000000ba80                __hwi_base
                0x000000000000ba90                hwi_alloc_tag
                0x000000000000bb40                hwi_alloc_item
                0x000000000000bbd0                hwi_grow_tag
 *fill*         0x000000000000bbff        0x1 
 .text          0x000000000000bc00       0x8b C:/Users/Dell/ide-8.0-workspace/hw.x86_64/src/hardware/startup/boards/../../../../install/x86_64/usr/lib\libstartup.a(hypervisor_setup.o)
                0x000000000000bc00                hypervisor_set_options
                0x000000000000bc10                hypervisor_init
                0x000000000000bc50                hypervisor_get_required_flags
                0x000000000000bc60                hypervisor_syspage_init
 *fill*         0x000000000000bc8b        0x5 
 .text          0x000000000000bc90        0x1 C:/Users/Dell/ide-8.0-workspace/hw.x86_64/src/hardware/startup/boards/../../../../install/x86_64/usr/lib\libstartup.a(init_cacheattr.o)
                0x000000000000bc90                init_cacheattr
 *fill*         0x000000000000bc91        0xf 
 .text          0x000000000000bca0      0x477 C:/Users/Dell/ide-8.0-workspace/hw.x86_64/src/hardware/startup/boards/../../../../install/x86_64/usr/lib\libstartup.a(init_cpuinfo.o)
                0x000000000000bca0                init_one_cpuinfo
                0x000000000000c0c0                init_cpuinfo
 *fill*         0x000000000000c117        0x9 
 .text          0x000000000000c120      0x507 C:/Users/Dell/ide-8.0-workspace/hw.x86_64/src/hardware/startup/boards/../../../../install/x86_64/usr/lib\libstartup.a(init_hwinfo.o)
                0x000000000000c120                init_hwinfo
 *fill*         0x000000000000c627        0x9 
 .text          0x000000000000c630      0x4ec C:/Users/Dell/ide-8.0-workspace/hw.x86_64/src/hardware/startup/boards/../../../../install/x86_64/usr/lib\libstartup.a(init_intrinfo.o)
                0x000000000000c630                init_intrinfo
 *fill*         0x000000000000cb1c        0x4 
 .text          0x000000000000cb20       0xd3 C:/Users/Dell/ide-8.0-workspace/hw.x86_64/src/hardware/startup/boards/../../../../install/x86_64/usr/lib\libstartup.a(init_intrinfo_msi.o)
                0x000000000000cb20                init_intrinfo_msi
 *fill*         0x000000000000cbf3        0xd 
 .text          0x000000000000cc00       0x5c C:/Users/Dell/ide-8.0-workspace/hw.x86_64/src/hardware/startup/boards/../../../../install/x86_64/usr/lib\libstartup.a(init_mmu.o)
                0x000000000000cc10                init_mmu
 *fill*         0x000000000000cc5c        0x4 
 .text          0x000000000000cc60       0x57 C:/Users/Dell/ide-8.0-workspace/hw.x86_64/src/hardware/startup/boards/../../../../install/x86_64/usr/lib\libstartup.a(init_qtime.o)
                0x000000000000cc60                init_qtime
 *fill*         0x000000000000ccb7        0x9 
 .text          0x000000000000ccc0      0x3d3 C:/Users/Dell/ide-8.0-workspace/hw.x86_64/src/hardware/startup/boards/../../../../install/x86_64/usr/lib\libstartup.a(init_qtime_hpet.o)
                0x000000000000ccc0                init_qtime_disable_hpet
 *fill*         0x000000000000d093        0xd 
 .text          0x000000000000d0a0      0x524 C:/Users/Dell/ide-8.0-workspace/hw.x86_64/src/hardware/startup/boards/../../../../install/x86_64/usr/lib\libstartup.a(init_qtime_lapic.o)
                0x000000000000d110                init_qtime_lapic
 *fill*         0x000000000000d5c4        0xc 
 .text          0x000000000000d5d0      0x24b C:/Users/Dell/ide-8.0-workspace/hw.x86_64/src/hardware/startup/boards/../../../../install/x86_64/usr/lib\libstartup.a(init_raminfo.o)
                0x000000000000d5d0                init_raminfo
 *fill*         0x000000000000d81b        0x5 
 .text          0x000000000000d820      0x41e C:/Users/Dell/ide-8.0-workspace/hw.x86_64/src/hardware/startup/boards/../../../../install/x86_64/usr/lib\libstartup.a(init_raminfo_uefi.o)
                0x000000000000d820                init_raminfo_uefi
 *fill*         0x000000000000dc3e        0x2 
 .text          0x000000000000dc40      0x123 C:/Users/Dell/ide-8.0-workspace/hw.x86_64/src/hardware/startup/boards/../../../../install/x86_64/usr/lib\libstartup.a(init_reboot_callout.o)
                0x000000000000dc40                init_reboot_callout
 *fill*         0x000000000000dd63        0xd 
 .text          0x000000000000dd70      0x1d2 C:/Users/Dell/ide-8.0-workspace/hw.x86_64/src/hardware/startup/boards/../../../../install/x86_64/usr/lib\libstartup.a(init_smp.o)
                0x000000000000dec0                init_smp
 *fill*         0x000000000000df42        0xe 
 .text          0x000000000000df50      0x6ec C:/Users/Dell/ide-8.0-workspace/hw.x86_64/src/hardware/startup/boards/../../../../install/x86_64/usr/lib\libstartup.a(init_system_private.o)
                0x000000000000df50                init_system_private
 *fill*         0x000000000000e63c        0x4 
 .text          0x000000000000e640        0x3 C:/Users/Dell/ide-8.0-workspace/hw.x86_64/src/hardware/startup/boards/../../../../install/x86_64/usr/lib\libstartup.a(intel_microcode_updates.o)
                0x000000000000e640                intel_microcode_updates
 *fill*         0x000000000000e643        0xd 
 .text          0x000000000000e650       0x33 C:/Users/Dell/ide-8.0-workspace/hw.x86_64/src/hardware/startup/boards/../../../../install/x86_64/usr/lib\libstartup.a(intel_misc.o)
                0x000000000000e650                is_intel_chipset
 *fill*         0x000000000000e683        0xd 
 .text          0x000000000000e690       0xfe C:/Users/Dell/ide-8.0-workspace/hw.x86_64/src/hardware/startup/boards/../../../../install/x86_64/usr/lib\libstartup.a(intel_pxh.o)
                0x000000000000e690                find_pxh_ioapic
 *fill*         0x000000000000e78e        0x2 
 .text          0x000000000000e790       0x85 C:/Users/Dell/ide-8.0-workspace/hw.x86_64/src/hardware/startup/boards/../../../../install/x86_64/usr/lib\libstartup.a(invert_timer_freq.o)
                0x000000000000e790                invert_timer_freq
 *fill*         0x000000000000e815        0xb 
 .text          0x000000000000e820      0x44d C:/Users/Dell/ide-8.0-workspace/hw.x86_64/src/hardware/startup/boards/../../../../install/x86_64/usr/lib\libstartup.a(ioapic.o)
                0x000000000000e820                add_ioapic
                0x000000000000ea50                ioapic_get_num
                0x000000000000ea60                ioapic_get_id_last
                0x000000000000ea70                ioapic_get_id_first
                0x000000000000ea80                ioapic_get_id_next
                0x000000000000eae0                ioapic_get_gsibase
                0x000000000000eb10                ioapic_get_vaddr
                0x000000000000eb50                ioapic_get_paddr
                0x000000000000eb80                ioapic_get_accessfnc
                0x000000000000ebc0                ioapic_set_accessfnc
                0x000000000000ec00                ioapic_set_autofill_profile_num
                0x000000000000ec40                ioapic_get_autofill_profile_num
 *fill*         0x000000000000ec6d        0x3 
 .text          0x000000000000ec70      0x57f C:/Users/Dell/ide-8.0-workspace/hw.x86_64/src/hardware/startup/boards/../../../../install/x86_64/usr/lib\libstartup.a(ioapic_amd.o)
 *fill*         0x000000000000f1ef        0x1 
 .text          0x000000000000f1f0       0xa6 C:/Users/Dell/ide-8.0-workspace/hw.x86_64/src/hardware/startup/boards/../../../../install/x86_64/usr/lib\libstartup.a(ioapic_find.o)
                0x000000000000f1f0                ioapic_find
 *fill*         0x000000000000f296        0xa 
 .text          0x000000000000f2a0      0x58f C:/Users/Dell/ide-8.0-workspace/hw.x86_64/src/hardware/startup/boards/../../../../install/x86_64/usr/lib\libstartup.a(ioapic_generic.o)
 *fill*         0x000000000000f82f        0x1 
 .text          0x000000000000f830      0x805 C:/Users/Dell/ide-8.0-workspace/hw.x86_64/src/hardware/startup/boards/../../../../install/x86_64/usr/lib\libstartup.a(ioapic_ich.o)
 *fill*         0x0000000000010035        0xb 
 .text          0x0000000000010040      0x879 C:/Users/Dell/ide-8.0-workspace/hw.x86_64/src/hardware/startup/boards/../../../../install/x86_64/usr/lib\libstartup.a(ioapic_intsrc_disposition.o)
                0x0000000000010040                ioapic_intsrc_polarity_get
                0x00000000000101d0                ioapic_intsrc_polarity_set
                0x0000000000010380                ioapic_intsrc_trigger_mode_get
                0x0000000000010540                ioapic_intsrc_trigger_mode_set
                0x0000000000010700                ioapic_intsrc_cfg_check
 *fill*         0x00000000000108b9        0x7 
 .text          0x00000000000108c0      0x61e C:/Users/Dell/ide-8.0-workspace/hw.x86_64/src/hardware/startup/boards/../../../../install/x86_64/usr/lib\libstartup.a(ioapic_ioh.o)
 *fill*         0x0000000000010ede        0x2 
 .text          0x0000000000010ee0       0x37 C:/Users/Dell/ide-8.0-workspace/hw.x86_64/src/hardware/startup/boards/../../../../install/x86_64/usr/lib\libstartup.a(is_uefi_boot.o)
                0x0000000000010ee0                is_uefi_boot
 *fill*         0x0000000000010f17        0x9 
 .text          0x0000000000010f20      0x84c C:/Users/Dell/ide-8.0-workspace/hw.x86_64/src/hardware/startup/boards/../../../../install/x86_64/usr/lib\libstartup.a(itss_misc.o)
                0x0000000000010f20                get_itss_base_addr
                0x0000000000011220                itss_pirq_remap_adjust
                0x0000000000011330                itss_polarity_get
                0x0000000000011610                itss_polarity_set
                0x00000000000116f0                itss_trigger_mode_get
                0x0000000000011730                itss_trigger_mode_set
 *fill*         0x000000000001176c        0x4 
 .text          0x0000000000011770       0xa9 C:/Users/Dell/ide-8.0-workspace/hw.x86_64/src/hardware/startup/boards/../../../../install/x86_64/usr/lib\libstartup.a(jtag.o)
                0x0000000000011770                jtag_reserve_memory
                0x00000000000117c0                jtag_reserve_syspage_addr
                0x00000000000117e0                jtag_store_syspage_addr
 *fill*         0x0000000000011819        0x7 
 .text          0x0000000000011820      0x5a8 C:/Users/Dell/ide-8.0-workspace/hw.x86_64/src/hardware/startup/boards/../../../../install/x86_64/usr/lib\libstartup.a(kprintf.o)
                0x0000000000011b80                kprintf
                0x0000000000011bf0                ksprintf
                0x0000000000011c90                ksnprintf
                0x0000000000011d50                crash
                0x0000000000011db0                set_print_char
                0x0000000000011dc0                get_print_char
 *fill*         0x0000000000011dc8        0x8 
 .text          0x0000000000011dd0      0x150 C:/Users/Dell/ide-8.0-workspace/hw.x86_64/src/hardware/startup/boards/../../../../install/x86_64/usr/lib\libstartup.a(load_ifs.o)
                0x0000000000011dd0                load_ifs
 .text          0x0000000000011f20       0x36 C:/Users/Dell/ide-8.0-workspace/hw.x86_64/src/hardware/startup/boards/../../../../install/x86_64/usr/lib\libstartup.a(map_callout_mem.o)
                0x0000000000011f20                callout_memory_map
 *fill*         0x0000000000011f56        0xa 
 .text          0x0000000000011f60      0x171 C:/Users/Dell/ide-8.0-workspace/hw.x86_64/src/hardware/startup/boards/../../../../install/x86_64/usr/lib\libstartup.a(map_startup_mem.o)
                0x0000000000011f60                startup_memory_map
                0x00000000000120d0                startup_memory_unmap
 *fill*         0x00000000000120d1        0xf 
 .text          0x00000000000120e0      0x1b4 C:/Users/Dell/ide-8.0-workspace/hw.x86_64/src/hardware/startup/boards/../../../../install/x86_64/usr/lib\libstartup.a(memcpy.o)
                0x00000000000120e0                memcpy
 *fill*         0x0000000000012294        0xc 
 .text          0x00000000000122a0       0x7f C:/Users/Dell/ide-8.0-workspace/hw.x86_64/src/hardware/startup/boards/../../../../install/x86_64/usr/lib\libstartup.a(memfuncs.o)
                0x00000000000122a0                copy_memory
 *fill*         0x000000000001231f        0x1 
 .text          0x0000000000012320       0x46 C:/Users/Dell/ide-8.0-workspace/hw.x86_64/src/hardware/startup/boards/../../../../install/x86_64/usr/lib\libstartup.a(memmove.o)
                0x0000000000012320                memmove
 *fill*         0x0000000000012366        0xa 
 .text          0x0000000000012370      0x338 C:/Users/Dell/ide-8.0-workspace/hw.x86_64/src/hardware/startup/boards/../../../../install/x86_64/usr/lib\libstartup.a(p2sb_misc.o)
                0x0000000000012370                find_P2SB
 *fill*         0x00000000000126a8        0x8 
 .text          0x00000000000126b0       0xf8 C:/Users/Dell/ide-8.0-workspace/hw.x86_64/src/hardware/startup/boards/../../../../install/x86_64/usr/lib\libstartup.a(pci_known_devs_table.o)
                0x00000000000126b0                add_known_pci_device
 *fill*         0x00000000000127a8        0x8 
 .text          0x00000000000127b0      0x75d C:/Users/Dell/ide-8.0-workspace/hw.x86_64/src/hardware/startup/boards/../../../../install/x86_64/usr/lib\libstartup.a(pci_misc.o)
                0x00000000000127b0                set_LPC_pci_devfunc
                0x00000000000127c0                pci_find_class
                0x0000000000012a30                get_LPC_pci_devfunc
                0x0000000000012ae0                get_lpc_reg8
                0x0000000000012b10                get_lpc_reg16
                0x0000000000012b40                get_lpc_reg32
                0x0000000000012b70                get_LPC_devid
                0x0000000000012c40                set_lpc_reg8
                0x0000000000012d30                set_lpc_reg16
                0x0000000000012e20                set_lpc_reg32
 *fill*         0x0000000000012f0d        0x3 
 .text          0x0000000000012f10       0x38 C:/Users/Dell/ide-8.0-workspace/hw.x86_64/src/hardware/startup/boards/../../../../install/x86_64/usr/lib\libstartup.a(pci_read_cfg16.o)
                0x0000000000012f10                pci_read_cfg16
 *fill*         0x0000000000012f48        0x8 
 .text          0x0000000000012f50       0x61 C:/Users/Dell/ide-8.0-workspace/hw.x86_64/src/hardware/startup/boards/../../../../install/x86_64/usr/lib\libstartup.a(pci_read_cfg32.o)
                0x0000000000012f50                pci_read_cfg32
 *fill*         0x0000000000012fb1        0xf 
 .text          0x0000000000012fc0       0x27 C:/Users/Dell/ide-8.0-workspace/hw.x86_64/src/hardware/startup/boards/../../../../install/x86_64/usr/lib\libstartup.a(pci_read_cfg8.o)
                0x0000000000012fc0                pci_read_cfg8
 *fill*         0x0000000000012fe7        0x9 
 .text          0x0000000000012ff0       0x89 C:/Users/Dell/ide-8.0-workspace/hw.x86_64/src/hardware/startup/boards/../../../../install/x86_64/usr/lib\libstartup.a(pci_write_cfg16.o)
                0x0000000000012ff0                pci_write_cfg16
 *fill*         0x0000000000013079        0x7 
 .text          0x0000000000013080       0x64 C:/Users/Dell/ide-8.0-workspace/hw.x86_64/src/hardware/startup/boards/../../../../install/x86_64/usr/lib\libstartup.a(pci_write_cfg32.o)
                0x0000000000013080                pci_write_cfg32
 *fill*         0x00000000000130e4        0xc 
 .text          0x00000000000130f0       0x7a C:/Users/Dell/ide-8.0-workspace/hw.x86_64/src/hardware/startup/boards/../../../../install/x86_64/usr/lib\libstartup.a(pci_write_cfg8.o)
                0x00000000000130f0                pci_write_cfg8
 *fill*         0x000000000001316a        0x6 
 .text          0x0000000000013170       0xd0 C:/Users/Dell/ide-8.0-workspace/hw.x86_64/src/hardware/startup/boards/../../../../install/x86_64/usr/lib\libstartup.a(pcu_misc.o)
                0x0000000000013170                pcu_ilb_pirq_remap_adjust
 .text          0x0000000000013240       0xa1 C:/Users/Dell/ide-8.0-workspace/hw.x86_64/src/hardware/startup/boards/../../../../install/x86_64/usr/lib\libstartup.a(piix4_misc.o)
                0x0000000000013240                piix4_pirq_remap_adjust
 *fill*         0x00000000000132e1        0xf 
 .text          0x00000000000132f0      0x8fc C:/Users/Dell/ide-8.0-workspace/hw.x86_64/src/hardware/startup/boards/../../../../install/x86_64/usr/lib\libstartup.a(print_sysp.o)
                0x0000000000013a10                print_syspage_enable
                0x0000000000013aa0                print_syspage_sections
 *fill*         0x0000000000013bec        0x4 
 .text          0x0000000000013bf0      0x443 C:/Users/Dell/ide-8.0-workspace/hw.x86_64/src/hardware/startup/boards/../../../../install/x86_64/usr/lib\libstartup.a(processor64.o)
                0x0000000000013eb0                x86_64_init_pgdir
                0x0000000000013f70                x86_64_load_pgdir
                0x0000000000013f80                x86_64_map
                0x0000000000013fb0                x86_64_4m_map
                0x0000000000013fc0                elf_vaddr_to_paddr
 *fill*         0x0000000000014033        0xd 
 .text          0x0000000000014040      0xbd9 C:/Users/Dell/ide-8.0-workspace/hw.x86_64/src/hardware/startup/boards/../../../../install/x86_64/usr/lib\libstartup.a(ram.o)
                0x0000000000014180                find_top_ram_aligned_limit
                0x00000000000142d0                find_top_ram_aligned
                0x00000000000142e0                find_top_ram
                0x0000000000014300                find_ram_in_range
                0x0000000000014490                find_ram
                0x00000000000144b0                alloc_ram
                0x0000000000014720                calloc_ram
                0x0000000000014770                add_sysram
                0x00000000000147e0                ws_alloc
                0x0000000000014900                avoid_ram
                0x00000000000149b0                add_ram
                0x0000000000014ad0                watch_add_ram
                0x0000000000014b10                reserve_ram
 *fill*         0x0000000000014c19        0x7 
 .text          0x0000000000014c20      0xb43 C:/Users/Dell/ide-8.0-workspace/hw.x86_64/src/hardware/startup/boards/../../../../install/x86_64/usr/lib\libstartup.a(restore_ifs.o)
                0x0000000000014cc0                rifs_restore_ifs2
                0x0000000000014e40                rifs_load_ifs2
                0x0000000000014f60                load_ifs2_nonbootable
                0x0000000000014fe0                rifs_restore_ifs
                0x0000000000015500                rifs_save_elf32data
                0x0000000000015720                rifs_set_cksum
 *fill*         0x0000000000015763        0xd 
 .text          0x0000000000015770       0xdb C:/Users/Dell/ide-8.0-workspace/hw.x86_64/src/hardware/startup/boards/../../../../install/x86_64/usr/lib\libstartup.a(sbx00_misc.o)
                0x0000000000015770                sbx00_pirq_remap_adjust
 *fill*         0x000000000001584b        0x5 
 .text          0x0000000000015850      0x1a4 C:/Users/Dell/ide-8.0-workspace/hw.x86_64/src/hardware/startup/boards/../../../../install/x86_64/usr/lib\libstartup.a(sch_misc.o)
                0x0000000000015850                sch_is_gpio
                0x0000000000015940                sch_pirq_remap_adjust
 *fill*         0x00000000000159f4        0xc 
 .text          0x0000000000015a00       0x33 C:/Users/Dell/ide-8.0-workspace/hw.x86_64/src/hardware/startup/boards/../../../../install/x86_64/usr/lib\libstartup.a(set_cycles.o)
                0x0000000000015a00                set_cycles_per_sec
 *fill*         0x0000000000015a33        0xd 
 .text          0x0000000000015a40       0x1a C:/Users/Dell/ide-8.0-workspace/hw.x86_64/src/hardware/startup/boards/../../../../install/x86_64/usr/lib\libstartup.a(ssp.o)
                0x0000000000015a40                __ssp_fail
 *fill*         0x0000000000015a5a        0x6 
 .text          0x0000000000015a60       0x77 C:/Users/Dell/ide-8.0-workspace/hw.x86_64/src/hardware/startup/boards/../../../../install/x86_64/usr/lib\libstartup.a(startnext.o)
                0x0000000000015a60                startnext
 *fill*         0x0000000000015ad7        0x9 
 .text          0x0000000000015ae0       0x3d C:/Users/Dell/ide-8.0-workspace/hw.x86_64/src/hardware/startup/boards/../../../../install/x86_64/usr/lib\libstartup.a(startup_info.o)
                0x0000000000015ae0                find_startup_info
 *fill*         0x0000000000015b1d        0x3 
 .text          0x0000000000015b20      0x322 C:/Users/Dell/ide-8.0-workspace/hw.x86_64/src/hardware/startup/boards/../../../../install/x86_64/usr/lib\libstartup.a(strings.o)
                0x0000000000015b20                find_typed_string
                0x0000000000015b80                del_typed_string
                0x0000000000015cb0                add_typed_string
                0x0000000000015d80                add_string
 *fill*         0x0000000000015e42        0xe 
 .text          0x0000000000015e50       0xe5 C:/Users/Dell/ide-8.0-workspace/hw.x86_64/src/hardware/startup/boards/../../../../install/x86_64/usr/lib\libstartup.a(strtoul.o)
                0x0000000000015e50                strtopaddr
                0x0000000000015f30                strtoul
 *fill*         0x0000000000015f35        0xb 
 .text          0x0000000000015f40      0x611 C:/Users/Dell/ide-8.0-workspace/hw.x86_64/src/hardware/startup/boards/../../../../install/x86_64/usr/lib\libstartup.a(syspage_memory.o)
                0x0000000000015f40                grow_syspage_section
                0x0000000000016020                set_syspage_section
                0x0000000000016050                init_syspage_memory
                0x0000000000016190                reloc_syspage_memory
                0x00000000000161f0                alloc_syspage_memory
                0x0000000000016520                write_syspage_memory
 *fill*         0x0000000000016551        0xf 
 .text          0x0000000000016560        0x5 C:/Users/Dell/ide-8.0-workspace/hw.x86_64/src/hardware/startup/boards/../../../../install/x86_64/usr/lib\libstartup.a(tweak_cmdline.o)
                0x0000000000016560                tweak_cmdline
 *fill*         0x0000000000016565        0xb 
 .text          0x0000000000016570      0x313 C:/Users/Dell/ide-8.0-workspace/hw.x86_64/src/hardware/startup/boards/../../../../install/x86_64/usr/lib\libstartup.a(uefi.o)
                0x0000000000016810                uefi_find_config_tbl
                0x0000000000016870                uefi_exit_init
 *fill*         0x0000000000016883        0xd 
 .text          0x0000000000016890      0x189 C:/Users/Dell/ide-8.0-workspace/hw.x86_64/src/hardware/startup/boards/../../../../install/x86_64/usr/lib\libstartup.a(uefi_init.o)
                0x0000000000016890                uefi_init
 *fill*         0x0000000000016a19        0x7 
 .text          0x0000000000016a20      0x306 C:/Users/Dell/ide-8.0-workspace/hw.x86_64/src/hardware/startup/boards/../../../../install/x86_64/usr/lib\libstartup.a(uefi_io.o)
                0x0000000000016a50                uefi_print_str
                0x0000000000016bc0                uefi_print_char
                0x0000000000016c80                uefi_io_flush
                0x0000000000016cf0                uefi_io_init
 *fill*         0x0000000000016d26        0xa 
 .text          0x0000000000016d30       0x56 C:/Users/Dell/ide-8.0-workspace/hw.x86_64/src/hardware/startup/boards/../../../../install/x86_64/usr/lib\libstartup.a(ultoa_end.o)
                0x0000000000016d30                ultoa_end
 *fill*         0x0000000000016d86        0xa 
 .text          0x0000000000016d90       0x7a C:/Users/Dell/ide-8.0-workspace/hw.x86_64/src/hardware/startup/boards/../../../../install/x86_64/usr/lib\libstartup.a(uncompress.o)
                0x0000000000016d90                uncompress
 *fill*         0x0000000000016e0a        0x6 
 .text          0x0000000000016e10       0x8d C:/Users/Dell/ide-8.0-workspace/hw.x86_64/src/hardware/startup/boards/../../../../install/x86_64/usr/lib\libstartup.a(uncompress_ucl.o)
                0x0000000000016e10                uncompress_ucl
 *fill*         0x0000000000016e9d        0x3 
 .text          0x0000000000016ea0        0x3 C:/Users/Dell/ide-8.0-workspace/hw.x86_64/src/hardware/startup/boards/../../../../install/x86_64/usr/lib\libstartup.a(x86_64_pcbios_shadow.o)
                0x0000000000016ea0                x86_pcbios_shadow_rom
 .text          0x0000000000016ea3       0x61 C:/Users/Dell/ide-8.0-workspace/hw.x86_64/src/hardware/startup/boards/../../../../install/x86_64/usr/lib\libstartup.a(64apstart.o)
                0x0000000000016ea3                smp_start
 *fill*         0x0000000000016f04        0xc 
 .text          0x0000000000016f10      0x3ec C:/Users/Dell/ide-8.0-workspace/hw.x86_64/src/hardware/startup/boards/../../../../install/x86_64/usr/lib\libstartup.a(acpi.o)
                0x0000000000016f10                acpi_find_table_next
                0x0000000000017200                add_acpi_table
                0x00000000000172f0                acpi_find_table
 *fill*         0x00000000000172fc        0x4 
 .text          0x0000000000017300      0x478 C:/Users/Dell/ide-8.0-workspace/hw.x86_64/src/hardware/startup/boards/../../../../install/x86_64/usr/lib\libstartup.a(acpi_ioapic.o)
                0x0000000000017300                ioapic_discover_acpi
                0x0000000000017540                ioapic_intsrc_acpi
 *fill*         0x0000000000017778        0x8 
 .text          0x0000000000017780      0x1d5 C:/Users/Dell/ide-8.0-workspace/hw.x86_64/src/hardware/startup/boards/../../../../install/x86_64/usr/lib\libstartup.a(add_interrupt.o)
                0x0000000000017810                add_interrupt
                0x0000000000017910                add_interrupt_array
 *fill*         0x0000000000017955        0xb 
 .text          0x0000000000017960       0x77 C:/Users/Dell/ide-8.0-workspace/hw.x86_64/src/hardware/startup/boards/../../../../install/x86_64/usr/lib\libstartup.a(alloc_qtime.o)
                0x0000000000017960                alloc_qtime
 *fill*         0x00000000000179d7        0x9 
 .text          0x00000000000179e0      0x176 C:/Users/Dell/ide-8.0-workspace/hw.x86_64/src/hardware/startup/boards/../../../../install/x86_64/usr/lib\libstartup.a(amd_misc.o)
                0x00000000000179e0                is_amd_chipset
                0x0000000000017b10                is_amd_ryzen
 *fill*         0x0000000000017b56        0xa 
 .text          0x0000000000017b60       0x12 C:/Users/Dell/ide-8.0-workspace/hw.x86_64/src/hardware/startup/boards/../../../../install/x86_64/usr/lib\libstartup.a(ap_fail.o)
                0x0000000000017b60                ap_fail
 *fill*         0x0000000000017b72        0xe 
 .text          0x0000000000017b80      0x4f4 C:/Users/Dell/ide-8.0-workspace/hw.x86_64/src/hardware/startup/boards/../../../../install/x86_64/usr/lib\libstartup.a(apic_io_intr.o)
                0x0000000000017bb0                init_intrinfo_ioapic
 *fill*         0x0000000000018074        0xc 
 .text          0x0000000000018080      0x270 C:/Users/Dell/ide-8.0-workspace/hw.x86_64/src/hardware/startup/boards/../../../../install/x86_64/usr/lib\libstartup.a(apic_local_intr.o)
                0x0000000000018080                lapic_configure
                0x0000000000018270                init_intrinfo_lapic
 .text          0x00000000000182f0      0x1d7 C:/Users/Dell/ide-8.0-workspace/hw.x86_64/src/hardware/startup/boards/../../../../install/x86_64/usr/lib\libstartup.a(apic_paddr.o)
                0x00000000000182f0                lapic_id
                0x0000000000018310                apic_add_as_entry
                0x0000000000018430                apic_set_paddr
                0x0000000000018470                apic_set_vaddr
 *fill*         0x00000000000184c7        0x9 
 .text          0x00000000000184d0        0x5 C:/Users/Dell/ide-8.0-workspace/hw.x86_64/src/hardware/startup/boards/../../../../install/x86_64/usr/lib\libstartup.a(as_add.o)
                0x00000000000184d0                as_add
 *fill*         0x00000000000184d5        0xb 
 .text          0x00000000000184e0       0xa6 C:/Users/Dell/ide-8.0-workspace/hw.x86_64/src/hardware/startup/boards/../../../../install/x86_64/usr/lib\libstartup.a(as_add64.o)
                0x00000000000184e0                as_add64
 *fill*         0x0000000000018586        0xa 
 .text          0x0000000000018590      0x304 C:/Users/Dell/ide-8.0-workspace/hw.x86_64/src/hardware/startup/boards/../../../../install/x86_64/usr/lib\libstartup.a(as_add_containing.o)
                0x0000000000018590                as_add_containing
 *fill*         0x0000000000018894        0xc 
 .text          0x00000000000188a0       0x47 C:/Users/Dell/ide-8.0-workspace/hw.x86_64/src/hardware/startup/boards/../../../../install/x86_64/usr/lib\libstartup.a(as_default.o)
                0x00000000000188a0                as_default
 *fill*         0x00000000000188e7        0x9 
 .text          0x00000000000188f0      0x193 C:/Users/Dell/ide-8.0-workspace/hw.x86_64/src/hardware/startup/boards/../../../../install/x86_64/usr/lib\libstartup.a(as_find.o)
                0x00000000000188f0                as_find
 *fill*         0x0000000000018a83        0xd 
 .text          0x0000000000018a90       0xf1 C:/Users/Dell/ide-8.0-workspace/hw.x86_64/src/hardware/startup/boards/../../../../install/x86_64/usr/lib\libstartup.a(as_find_containing.o)
                0x0000000000018a90                as_find_containing
 *fill*         0x0000000000018b81        0xf 
 .text          0x0000000000018b90        0xa C:/Users/Dell/ide-8.0-workspace/hw.x86_64/src/hardware/startup/boards/../../../../install/x86_64/usr/lib\libstartup.a(as_off2info.o)
                0x0000000000018b90                as_off2info
 *fill*         0x0000000000018b9a        0x6 
 .text          0x0000000000018ba0       0x29 C:/Users/Dell/ide-8.0-workspace/hw.x86_64/src/hardware/startup/boards/../../../../install/x86_64/usr/lib\libstartup.a(board_find_acpi_rsdp.o)
                0x0000000000018ba0                board_find_acpi_rsdp
 *fill*         0x0000000000018bc9        0x7 
 .text          0x0000000000018bd0      0x133 C:/Users/Dell/ide-8.0-workspace/hw.x86_64/src/hardware/startup/boards/../../../../install/x86_64/usr/lib\libstartup.a(board_find_acpi_rsdp_bios.o)
                0x0000000000018ca0                board_find_acpi_rsdp_bios
 *fill*         0x0000000000018d03        0xd 
 .text          0x0000000000018d10       0x89 C:/Users/Dell/ide-8.0-workspace/hw.x86_64/src/hardware/startup/boards/../../../../install/x86_64/usr/lib\libstartup.a(board_find_acpi_rsdp_uefi.o)
                0x0000000000018d10                board_find_acpi_rsdp_uefi
 *fill*         0x0000000000018d99        0x7 
 .text          0x0000000000018da0       0x55 C:/Users/Dell/ide-8.0-workspace/hw.x86_64/src/hardware/startup/boards/../../../../install/x86_64/usr/lib\libstartup.a(board_smp.o)
                0x0000000000018da0                board_smp_num_cpu
                0x0000000000018dd0                board_smp_init
                0x0000000000018de0                board_smp_start
                0x0000000000018df0                board_smp_adjust_num
 *fill*         0x0000000000018df5        0xb 
 .text          0x0000000000018e00       0x91 C:/Users/Dell/ide-8.0-workspace/hw.x86_64/src/hardware/startup/boards/../../../../install/x86_64/usr/lib\libstartup.a(board_sysctl.o)
                0x0000000000018e00                board_mmu_enable
                0x0000000000018e10                board_mmu_disable
                0x0000000000018e20                board_alignment_check_enable
                0x0000000000018e30                board_alignment_check_disable
                0x0000000000018e40                board_dcache_enable
                0x0000000000018e50                board_dcache_disable
                0x0000000000018e60                board_icache_enable
                0x0000000000018e70                board_icache_disable
                0x0000000000018e80                board_enable_caches
                0x0000000000018e90                board_disable_caches
 *fill*         0x0000000000018e91        0xf 
 .text          0x0000000000018ea0       0x2b C:/Users/Dell/ide-8.0-workspace/hw.x86_64/src/hardware/startup/boards/../../../../install/x86_64/usr/lib\libstartup.a(calc_cksum.o)
                0x0000000000018ea0                calc_cksum
 .text          0x0000000000018ecb       0x3e C:/Users/Dell/ide-8.0-workspace/hw.x86_64/src/hardware/startup/boards/../../../../install/x86_64/usr/lib\libstartup.a(callout_apstart.o)
                0x0000000000018ecb                smp_spin
 .text          0x0000000000018f09      0x234 C:/Users/Dell/ide-8.0-workspace/hw.x86_64/src/hardware/startup/boards/../../../../install/x86_64/usr/lib\libstartup.a(callout_interrupt_apic.o)
                0x0000000000018f2a                interrupt_lapic_stub
                0x0000000000018f41                interrupt_id_lapic
                0x0000000000018f41                interrupt_id_apic
                0x0000000000018f55                interrupt_eoi_lapic
                0x0000000000018f55                interrupt_eoi_apic
                0x0000000000018f94                interrupt_unmask_apic
                0x0000000000018f94                interrupt_unmask_lapic
                0x0000000000019021                interrupt_mask_lapic
                0x0000000000019021                interrupt_mask_apic
                0x00000000000190ae                interrupt_config_apic
                0x00000000000190ae                interrupt_config_lapic
                0x00000000000190c5                interrupt_id_apic_spurious
                0x00000000000190c5                interrupt_id_lapic_spurious
                0x00000000000190de                interrupt_eoi_lapic_spurious
                0x00000000000190de                interrupt_eoi_apic_spurious
                0x00000000000190f2                interrupt_unmask_lapic_spurious
                0x00000000000190f2                interrupt_unmask_apic_spurious
                0x0000000000019109                interrupt_mask_apic_spurious
                0x0000000000019109                interrupt_mask_lapic_spurious
                0x0000000000019123                interrupt_config_lapic_spurious
                0x0000000000019123                interrupt_config_apic_spurious
 .text          0x000000000001913d      0x128 C:/Users/Dell/ide-8.0-workspace/hw.x86_64/src/hardware/startup/boards/../../../../install/x86_64/usr/lib\libstartup.a(callout_interrupt_ioapic.o)
                0x0000000000019157                interrupt_id_ioapic
                0x000000000001916b                interrupt_eoi_ioapic
                0x00000000000191ba                interrupt_unmask_ioapic
                0x0000000000019204                interrupt_mask_ioapic
                0x000000000001924e                interrupt_config_ioapic
 .text          0x0000000000019265       0x7c C:/Users/Dell/ide-8.0-workspace/hw.x86_64/src/hardware/startup/boards/../../../../install/x86_64/usr/lib\libstartup.a(callout_reboot.o)
                0x000000000001927f                reboot
 *fill*         0x00000000000192e1        0xf 
 .text          0x00000000000192f0      0x481 C:/Users/Dell/ide-8.0-workspace/hw.x86_64/src/hardware/startup/boards/../../../../install/x86_64/usr/lib\libstartup.a(callouts.o)
                0x0000000000019370                output_callouts
                0x00000000000193d0                callout_output_one
                0x00000000000195d0                callout_register_data
                0x0000000000019650                callout_reloc_data
                0x0000000000019690                add_callout
                0x00000000000196f0                add_callout_array
 *fill*         0x0000000000019771        0xf 
 .text          0x0000000000019780      0x1a6 C:/Users/Dell/ide-8.0-workspace/hw.x86_64/src/hardware/startup/boards/../../../../install/x86_64/usr/lib\libstartup.a(chip_access.o)
                0x0000000000019780                chip_access
                0x00000000000197e0                chip_done
                0x0000000000019810                chip_read8
                0x0000000000019840                chip_write8
                0x0000000000019870                chip_read16
                0x00000000000198a0                chip_write16
                0x00000000000198d0                chip_read32
                0x0000000000019900                chip_write32
 *fill*         0x0000000000019926        0xa 
 .text          0x0000000000019930      0x4b3 C:/Users/Dell/ide-8.0-workspace/hw.x86_64/src/hardware/startup/boards/../../../../install/x86_64/usr/lib\libstartup.a(cpu_family_clock.o)
                0x0000000000019cc0                get_processor_base_freq
 *fill*         0x0000000000019de3        0xd 
 .text          0x0000000000019df0      0x18d C:/Users/Dell/ide-8.0-workspace/hw.x86_64/src/hardware/startup/boards/../../../../install/x86_64/usr/lib\libstartup.a(cpu_family_model.o)
                0x0000000000019df0                cpu_family_model
                0x0000000000019e70                cpu_family
                0x0000000000019f00                cpu_model
 .text          0x0000000000019f7d        0x0 C:/Users/Dell/ide-8.0-workspace/hw.x86_64/src/hardware/startup/boards/../../../../install/x86_64/usr/lib\libstartup.a(cpu_features.o)
 .text          0x0000000000019f7d       0x5b C:/Users/Dell/ide-8.0-workspace/hw.x86_64/src/hardware/startup/boards/../../../../install/x86_64/usr/lib\libstartup.a(cpu_id.o)
                0x0000000000019f7d                x86_64_cpuid
                0x0000000000019f7d                x86_cpuid
                0x0000000000019f92                x86_64_setidt
                0x0000000000019fa2                x86_64_setgdt
                0x0000000000019fb8                x86_64_setsegs
 *fill*         0x0000000000019fd8        0x8 
 .text          0x0000000000019fe0       0x5d C:/Users/Dell/ide-8.0-workspace/hw.x86_64/src/hardware/startup/boards/../../../../install/x86_64/usr/lib\libstartup.a(cpu_startnext.o)
                0x0000000000019fe0                cpu_startnext
 *fill*         0x000000000001a03d        0x3 
 .text          0x000000000001a040      0x185 C:/Users/Dell/ide-8.0-workspace/hw.x86_64/src/hardware/startup/boards/../../../../install/x86_64/usr/lib\libstartup.a(cpu_syspage_memory.o)
                0x000000000001a040                cpu_init_syspage_memory
                0x000000000001a050                cpu_alloc_syspage_memory
                0x000000000001a1b0                cpu_write_syspage_memory
                0x000000000001a1c0                cpu_syspage_remap
 *fill*         0x000000000001a1c5        0xb 
 .text          0x000000000001a1d0      0x329 C:/Users/Dell/ide-8.0-workspace/hw.x86_64/src/hardware/startup/boards/../../../../install/x86_64/usr/lib\libstartup.a(cpu_tsc.o)
                0x000000000001a1d0                fix_tsc
                0x000000000001a330                calibrate_tsc
                0x000000000001a440                get_invariant_tsc
 *fill*         0x000000000001a4f9        0x7 
 .text          0x000000000001a500      0x16b C:/Users/Dell/ide-8.0-workspace/hw.x86_64/src/hardware/startup/boards/../../../../install/x86_64/usr/lib\libstartup.a(cpu_tweak_cmdline.o)
                0x000000000001a500                cpu_tweak_cmdline
 *fill*         0x000000000001a66b        0x5 
 .text          0x000000000001a670        0x2 C:/Users/Dell/ide-8.0-workspace/hw.x86_64/src/hardware/startup/boards/../../../../install/x86_64/usr/lib\libstartup.a(crash_done.o)
                0x000000000001a670                crash_done
 *fill*         0x000000000001a672        0xe 
 .text          0x000000000001a680        0x1 C:/Users/Dell/ide-8.0-workspace/hw.x86_64/src/hardware/startup/boards/../../../../install/x86_64/usr/lib\libstartup.a(dummy_print_char.o)
                0x000000000001a680                dummy_print_char
 *fill*         0x000000000001a681        0xf 
 .text          0x000000000001a690      0x1e0 C:/Users/Dell/ide-8.0-workspace/hw.x86_64/src/hardware/startup/boards/../../../../install/x86_64/usr/lib\libstartup.a(elf.o)
                0x000000000001a690                is_elf64
                0x000000000001a750                is_elf32
                0x000000000001a800                is_elf
                0x000000000001a830                load_elf
 .text          0x000000000001a870      0x369 C:/Users/Dell/ide-8.0-workspace/hw.x86_64/src/hardware/startup/boards/../../../../install/x86_64/usr/lib\libstartup.a(elf32.o)
                0x000000000001a870                load_elf32
 *fill*         0x000000000001abd9        0x7 
 .text          0x000000000001abe0      0x3b7 C:/Users/Dell/ide-8.0-workspace/hw.x86_64/src/hardware/startup/boards/../../../../install/x86_64/usr/lib\libstartup.a(elf64.o)
                0x000000000001abe0                load_elf64
 *fill*         0x000000000001af97        0x9 
 .text          0x000000000001afa0      0x103 C:/Users/Dell/ide-8.0-workspace/hw.x86_64/src/hardware/startup/boards/../../../../install/x86_64/usr/lib\libstartup.a(elf_map.o)
                0x000000000001afa0                load_elf64mmu_4m
                0x000000000001b080                load_elf32mmu_4m
                0x000000000001b090                elf_map
 .text          0x000000000001b0a3        0x0 C:/Users/Dell/ide-8.0-workspace/hw.x86_64/src/hardware/startup/boards/../../../../install/x86_64/usr/lib\libstartup.a(fdt_vars.o)
 *fill*         0x000000000001b0a3        0xd 
 .text          0x000000000001b0b0      0x2dd C:/Users/Dell/ide-8.0-workspace/hw.x86_64/src/hardware/startup/boards/../../../../install/x86_64/usr/lib\libstartup.a(find_ecam_base.o)
                0x000000000001b0b0                find_ecam_base
 *fill*         0x000000000001b38d        0x3 
 .text          0x000000000001b390       0xe6 C:/Users/Dell/ide-8.0-workspace/hw.x86_64/src/hardware/startup/boards/../../../../install/x86_64/usr/lib\libstartup.a(find_top_intr.o)
                0x000000000001b390                find_top_cpu_intr
                0x000000000001b400                find_next_cpu_intr
 *fill*         0x000000000001b476        0xa 
 .text          0x000000000001b480      0x3f6 C:/Users/Dell/ide-8.0-workspace/hw.x86_64/src/hardware/startup/boards/../../../../install/x86_64/usr/lib\libstartup.a(hv_guest.o)
                0x000000000001b630                hvg_tsc_frequency
                0x000000000001b730                hvg_lapic_frequency
 *fill*         0x000000000001b876        0xa 
 .text          0x000000000001b880      0x5a5 C:/Users/Dell/ide-8.0-workspace/hw.x86_64/src/hardware/startup/boards/../../../../install/x86_64/usr/lib\libstartup.a(hw_cpuid_string.o)
                0x000000000001b910                x86_64_cpuid_string
                0x000000000001be20                x86_cpuid_string
 *fill*         0x000000000001be25        0xb 
 .text          0x000000000001be30       0xdf C:/Users/Dell/ide-8.0-workspace/hw.x86_64/src/hardware/startup/boards/../../../../install/x86_64/usr/lib\libstartup.a(hw_cpuspeed.o)
                0x000000000001be30                x86_64_cpuspeed
                0x000000000001bea0                x86_cpuspeed
 *fill*         0x000000000001bf0f        0x1 
 .text          0x000000000001bf10      0x12e C:/Users/Dell/ide-8.0-workspace/hw.x86_64/src/hardware/startup/boards/../../../../install/x86_64/usr/lib\libstartup.a(hw_scanmem.o)
                0x000000000001bf10                x86_scanmem
 *fill*         0x000000000001c03e        0x2 
 .text          0x000000000001c040       0xda C:/Users/Dell/ide-8.0-workspace/hw.x86_64/src/hardware/startup/boards/../../../../install/x86_64/usr/lib\libstartup.a(hwi_add_device.o)
                0x000000000001c040                hwi_add_device
 *fill*         0x000000000001c11a        0x6 
 .text          0x000000000001c120        0xc C:/Users/Dell/ide-8.0-workspace/hw.x86_64/src/hardware/startup/boards/../../../../install/x86_64/usr/lib\libstartup.a(hwi_add_irq.o)
                0x000000000001c120                hwi_add_irq
 *fill*         0x000000000001c12c        0x4 
 .text          0x000000000001c130       0x19 C:/Users/Dell/ide-8.0-workspace/hw.x86_64/src/hardware/startup/boards/../../../../install/x86_64/usr/lib\libstartup.a(hwi_add_location.o)
                0x000000000001c130                hwi_add_location
 *fill*         0x000000000001c149        0x7 
 .text          0x000000000001c150       0x4b C:/Users/Dell/ide-8.0-workspace/hw.x86_64/src/hardware/startup/boards/../../../../install/x86_64/usr/lib\libstartup.a(hwi_default.o)
                0x000000000001c150                hwi_default
 *fill*         0x000000000001c19b        0x5 
 .text          0x000000000001c1a0       0x21 C:/Users/Dell/ide-8.0-workspace/hw.x86_64/src/hardware/startup/boards/../../../../install/x86_64/usr/lib\libstartup.a(hwi_find_as.o)
                0x000000000001c1a0                hwi_find_as
 *fill*         0x000000000001c1c1        0xf 
 .text          0x000000000001c1d0       0x76 C:/Users/Dell/ide-8.0-workspace/hw.x86_64/src/hardware/startup/boards/../../../../install/x86_64/usr/lib\libstartup.a(hwidev_add.o)
                0x000000000001c1d0                hwidev_add
 *fill*         0x000000000001c246        0xa 
 .text          0x000000000001c250       0x1c C:/Users/Dell/ide-8.0-workspace/hw.x86_64/src/hardware/startup/boards/../../../../install/x86_64/usr/lib\libstartup.a(hwitag_add_irq.o)
                0x000000000001c250                hwitag_add_irq
 *fill*         0x000000000001c26c        0x4 
 .text          0x000000000001c270       0x44 C:/Users/Dell/ide-8.0-workspace/hw.x86_64/src/hardware/startup/boards/../../../../install/x86_64/usr/lib\libstartup.a(hwitag_add_location.o)
                0x000000000001c270                hwitag_add_location
 *fill*         0x000000000001c2b4        0xc 
 .text          0x000000000001c2c0      0x1e1 C:/Users/Dell/ide-8.0-workspace/hw.x86_64/src/hardware/startup/boards/../../../../install/x86_64/usr/lib\libstartup.a(hypervisor.o)
                0x000000000001c2c0                arch_hypervisor_validate_flags
                0x000000000001c400                arch_hypervisor_init
                0x000000000001c460                arch_hypervisor_syspage_init
 *fill*         0x000000000001c4a1        0xf 
 .text          0x000000000001c4b0      0x294 C:/Users/Dell/ide-8.0-workspace/hw.x86_64/src/hardware/startup/boards/../../../../install/x86_64/usr/lib\libstartup.a(ich_misc.o)
                0x000000000001c4b0                ich_corporate_model
                0x000000000001c560                ich_model
                0x000000000001c5c0                ich_is_gpio
                0x000000000001c690                ich_pirq_remap_adjust
 *fill*         0x000000000001c744        0xc 
 .text          0x000000000001c750      0x1a9 C:/Users/Dell/ide-8.0-workspace/hw.x86_64/src/hardware/startup/boards/../../../../install/x86_64/usr/lib\libstartup.a(imps.o)
                0x000000000001c810                smp_get_fps
                0x000000000001c870                imps_entry_size
                0x000000000001c890                is_imcr_present
 *fill*         0x000000000001c8f9        0x7 
 .text          0x000000000001c900      0x642 C:/Users/Dell/ide-8.0-workspace/hw.x86_64/src/hardware/startup/boards/../../../../install/x86_64/usr/lib\libstartup.a(imps_ioapic.o)
                0x000000000001c900                ioapic_discover_imps
                0x000000000001cab0                imps_resolve_bus_int_flags
                0x000000000001cf10                ioapic_intsrc_imps
                0x000000000001cf30                ioapic_lintsrc_imps
 *fill*         0x000000000001cf42        0xe 
 .text          0x000000000001cf50      0x1cc C:/Users/Dell/ide-8.0-workspace/hw.x86_64/src/hardware/startup/boards/../../../../install/x86_64/usr/lib\libstartup.a(imps_smp.o)
                0x000000000001cf50                imps_smp_num_cpu
 *fill*         0x000000000001d11c        0x4 
 .text          0x000000000001d120       0x4c C:/Users/Dell/ide-8.0-workspace/hw.x86_64/src/hardware/startup/boards/../../../../install/x86_64/usr/lib\libstartup.a(init_asinfo.o)
                0x000000000001d120                init_asinfo
 *fill*         0x000000000001d16c        0x4 
 .text          0x000000000001d170      0x103 C:/Users/Dell/ide-8.0-workspace/hw.x86_64/src/hardware/startup/boards/../../../../install/x86_64/usr/lib\libstartup.a(init_gdt.o)
                0x000000000001d170                init_gdt
 *fill*         0x000000000001d273        0xd 
 .text          0x000000000001d280        0x1 C:/Users/Dell/ide-8.0-workspace/hw.x86_64/src/hardware/startup/boards/../../../../install/x86_64/usr/lib\libstartup.a(init_mitigation_mem.o)
                0x000000000001d280                init_mitigation_mem
 *fill*         0x000000000001d281        0xf 
 .text          0x000000000001d290      0x45d C:/Users/Dell/ide-8.0-workspace/hw.x86_64/src/hardware/startup/boards/../../../../install/x86_64/usr/lib\libstartup.a(ioapic_auto_config.o)
                0x000000000001d290                ioapic_auto_config
 *fill*         0x000000000001d6ed        0x3 
 .text          0x000000000001d6f0      0x155 C:/Users/Dell/ide-8.0-workspace/hw.x86_64/src/hardware/startup/boards/../../../../install/x86_64/usr/lib\libstartup.a(ioapic_default_configs.o)
                0x000000000001d6f0                ioapic_autofill_defaults
 *fill*         0x000000000001d845        0xb 
 .text          0x000000000001d850       0x11 C:/Users/Dell/ide-8.0-workspace/hw.x86_64/src/hardware/startup/boards/../../../../install/x86_64/usr/lib\libstartup.a(map_startup_io.o)
                0x000000000001d850                startup_io_map
                0x000000000001d860                startup_io_unmap
 *fill*         0x000000000001d861        0xf 
 .text          0x000000000001d870       0x13 C:/Users/Dell/ide-8.0-workspace/hw.x86_64/src/hardware/startup/boards/../../../../install/x86_64/usr/lib\libstartup.a(rtc_time.o)
                0x000000000001d870                rtc_time
 *fill*         0x000000000001d883        0xd 
 .text          0x000000000001d890       0x33 C:/Users/Dell/ide-8.0-workspace/hw.x86_64/src/hardware/startup/boards/../../../../install/x86_64/usr/lib\libstartup.a(timer_ns2tick.o)
                0x000000000001d890                timer_ns2tick
 *fill*         0x000000000001d8c3        0xd 
 .text          0x000000000001d8d0       0x88 C:/Users/Dell/ide-8.0-workspace/hw.x86_64/src/hardware/startup/boards/../../../../install/x86_64/usr/lib\libstartup.a(timer_tick2ns.o)
                0x000000000001d8d0                timer_tick2ns
 *fill*         0x000000000001d958        0x8 
 .text          0x000000000001d960      0x162 C:/Users/Dell/ide-8.0-workspace/hw.x86_64/src/hardware/startup/boards/../../../../install/x86_64/usr/lib\libstartup.a(acpi_smp.o)
                0x000000000001d960                acpi_smp_num_cpu
 *fill*         0x000000000001dac2        0xe 
 .text          0x000000000001dad0      0x363 C:/Users/Dell/ide-8.0-workspace/hw.x86_64/src/hardware/startup/boards/../../../../install/x86_64/usr/lib\libstartup.a(apic_smp.o)
                0x000000000001db50                apic_add_cpuid
                0x000000000001db60                apic_smp_init
                0x000000000001db70                apic_smp_start
                0x000000000001de30                apic_smp_adjust_num
 *fill*         0x000000000001de33        0xd 
 .text          0x000000000001de40      0x1ad C:/Users/Dell/ide-8.0-workspace/hw.x86_64/src/hardware/startup/boards/../../../../install/x86_64/usr/lib\libstartup.a(bootstrap_cmdline.o)
                0x000000000001dfd0                bootstrap_arg_adjust
                0x000000000001dfe0                bootstrap_env_adjust
 *fill*         0x000000000001dfed        0x3 
 .text          0x000000000001dff0      0x297 C:/Users/Dell/ide-8.0-workspace/hw.x86_64/src/hardware/startup/boards/../../../../install/x86_64/usr/lib\libstartup.a(hw_rtc_mc146818.o)
                0x000000000001dff0                rtc_time_mc146818
 *fill*         0x000000000001e287        0x9 
 .text          0x000000000001e290       0x78 C:/Users/Dell/ide-8.0-workspace/hw.x86_64/src/hardware/startup/boards/../../../../install/x86_64/usr/lib\libstartup.a(hwi_add_rtc.o)
                0x000000000001e290                hwi_add_rtc
 .text          0x000000000001e308       0xe7 C:/Users/Dell/ide-8.0-workspace/hw.x86_64/src/hardware/startup/boards/../../../../install/x86_64/usr/lib\libstartup.a(16apstart.o)
                0x000000000001e308                apstart16_start
                0x000000000001e3be                apstart16_end
                0x000000000001e3be                apstart_init
 *fill*         0x000000000001e3ef        0x1 
 .text          0x000000000001e3f0       0x2f C:/Users/Dell/ide-8.0-workspace/hw.x86_64/src/hardware/startup/boards/../../../../install/x86_64/usr/lib\libstartup.a(bcd2bin.o)
                0x000000000001e3f0                bcd2bin
 *fill*         0x000000000001e41f        0x1 
 .text          0x000000000001e420       0xbf C:/Users/Dell/ide-8.0-workspace/hw.x86_64/src/hardware/startup/boards/../../../../install/x86_64/usr/lib\libstartup.a(calc_time_t.o)
                0x000000000001e420                calc_time_t
 *fill*         0x000000000001e4df        0x1 
 .text          0x000000000001e4e0      0x8d9 C:/Users/Dell/qnx800/target/qnx/x86_64/usr/lib\libucl.a(n2b_d.o)
                0x000000000001e4e0                ucl_nrv2b_decompress_8
                0x000000000001e750                ucl_nrv2b_decompress_le16
                0x000000000001ea40                ucl_nrv2b_decompress_le32
 *fill*         0x000000000001edb9        0x7 
 .text          0x000000000001edc0      0x17d C:/Users/Dell/qnx800/target/qnx/x86_64/lib\libc.a(hwi_find_item.o)
                0x000000000001edc0                hwi_find_item
 *fill*         0x000000000001ef3d        0x3 
 .text          0x000000000001ef40       0x19 C:/Users/Dell/qnx800/target/qnx/x86_64/lib\libc.a(hwi_off2tag.o)
                0x000000000001ef40                hwi_off2tag
 *fill*         0x000000000001ef59        0x7 
 .text          0x000000000001ef60       0x1e C:/Users/Dell/qnx800/target/qnx/x86_64/lib\libc.a(hwi_tag2off.o)
                0x000000000001ef60                hwi_tag2off
 *fill*         0x000000000001ef7e        0x2 
 .text          0x000000000001ef80      0x708 C:/Users/Dell/qnx800/target/qnx/x86_64/lib\libc.a(memcmp.o)
                0x000000000001ef80                memcmp
                0x000000000001ef80                __memcmp_isr
 *fill*         0x000000000001f688        0x8 
 .text          0x000000000001f690      0x240 C:/Users/Dell/qnx800/target/qnx/x86_64/lib\libc.a(memset.o)
                0x000000000001f690                memset
                0x000000000001f690                __memset_isr
 .text          0x000000000001f8d0       0x50 C:/Users/Dell/qnx800/target/qnx/x86_64/lib\libc.a(strcasecmp.o)
                0x000000000001f8d0                strcasecmp
 .text          0x000000000001f920      0x3fe C:/Users/Dell/qnx800/target/qnx/x86_64/lib\libc.a(strchr.o)
                0x000000000001f920                strchr
                0x000000000001f920                __strchr_isr
 *fill*         0x000000000001fd1e        0x2 
 .text          0x000000000001fd20      0x37e C:/Users/Dell/qnx800/target/qnx/x86_64/lib\libc.a(strcmp.o)
                0x000000000001fd20                strcmp
                0x000000000001fd20                __strcmp_isr
 *fill*         0x000000000002009e        0x2 
 .text          0x00000000000200a0       0x42 C:/Users/Dell/qnx800/target/qnx/x86_64/lib\libc.a(strlcpy.o)
                0x00000000000200a0                strlcpy
 *fill*         0x00000000000200e2        0xe 
 .text          0x00000000000200f0      0x21b C:/Users/Dell/qnx800/target/qnx/x86_64/lib\libc.a(strlen.o)
                0x00000000000200f0                strlen
                0x00000000000200f0                __strlen_isr
 *fill*         0x000000000002030b        0x5 
 .text          0x0000000000020310      0x133 C:/Users/Dell/qnx800/target/qnx/x86_64/lib\libc.a(strstr.o)
                0x0000000000020310                strstr
                0x0000000000020390                strcasestr
 *fill*         0x0000000000020443        0xd 
 .text          0x0000000000020450       0x3e C:/Users/Dell/qnx800/target/qnx/x86_64/lib\libc.a(__progname.o)
                0x0000000000020450                getprogname
                0x0000000000020460                setprogname
 *fill*         0x000000000002048e        0x2 
 .text          0x0000000000020490       0x70 C:/Users/Dell/qnx800/target/qnx/x86_64/lib\libc.a(_ssp.o)
                0x0000000000020490                __fortify_fail_extra_arg
                0x00000000000204a0                __fortify_fail_fmt_n
                0x00000000000204b0                __fortify_fail_missing_arg
                0x00000000000204c0                __fortify_fail_overflow_dst
                0x00000000000204d0                __chk_fail
                0x00000000000204e0                __longjmp_chk_fail
                0x00000000000204f0                __stack_chk_fail
 .text          0x0000000000020500        0x0 C:/Users/Dell/qnx800/target/qnx/x86_64/lib\libc.a(__stack_chk_guard.o)
 .text          0x0000000000020500       0x28 C:/Users/Dell/qnx800/target/qnx/x86_64/lib\libc.a(xtolotab.o)
                0x0000000000020500                _Getptolower
 *fill*         0x0000000000020528        0x8 
 .text          0x0000000000020530       0x64 C:/Users/Dell/qnx800/target/qnx/x86_64/lib\libc.a(strncasecmp.o)
                0x0000000000020530                strncasecmp
 *fill*         0x0000000000020594        0xc 
 .text          0x00000000000205a0       0x33 C:/Users/Dell/qnx800/target/qnx/x86_64/lib\libc.a(strncmp.o)
                0x00000000000205a0                strncmp
 *fill*         0x00000000000205d3        0xd 
 .text          0x00000000000205e0       0x1e C:/Users/Dell/qnx800/target/qnx/x86_64/lib\libc.a(strrchr.o)
                0x00000000000205e0                strrchr
 *(.gnu.warning)

.text.startup   0x0000000000000000      0x2ce
 .text.startup  0x0000000000000000      0x2ce main.o
                0x0000000000000000                main

.text.unlikely  0x0000000000000000       0x17
 .text.unlikely
                0x0000000000000000        0xd C:/Users/Dell/ide-8.0-workspace/hw.x86_64/src/hardware/startup/boards/../../../../install/x86_64/usr/lib\libstartup.a(_main.o)
                0x0000000000000000                abort
 .text.unlikely
                0x000000000000000d        0xa C:/Users/Dell/qnx800/target/qnx/x86_64/lib\libc.a(hwi_find_item.o)

.fini
 *(SORT_NONE(.fini))

.rodata         0x0000000000000000     0x15a0
 *(.rodata)
 .rodata        0x0000000000000000      0x1b0 C:/Users/Dell/ide-8.0-workspace/hw.x86_64/src/hardware/startup/boards/../../../../install/x86_64/usr/lib\libstartup.a(common_options.o)
 .rodata        0x00000000000001b0        0xc C:/Users/Dell/ide-8.0-workspace/hw.x86_64/src/hardware/startup/boards/../../../../install/x86_64/usr/lib\libstartup.a(init_hwinfo.o)
 *fill*         0x00000000000001bc        0x4 
 .rodata        0x00000000000001c0       0x34 C:/Users/Dell/ide-8.0-workspace/hw.x86_64/src/hardware/startup/boards/../../../../install/x86_64/usr/lib\libstartup.a(init_qtime_lapic.o)
 *fill*         0x00000000000001f4        0xc 
 .rodata        0x0000000000000200       0x10 C:/Users/Dell/ide-8.0-workspace/hw.x86_64/src/hardware/startup/boards/../../../../install/x86_64/usr/lib\libstartup.a(init_reboot_callout.o)
                0x0000000000000200                reboot_call
 .rodata        0x0000000000000210       0x10 C:/Users/Dell/ide-8.0-workspace/hw.x86_64/src/hardware/startup/boards/../../../../install/x86_64/usr/lib\libstartup.a(ioapic_amd.o)
 .rodata        0x0000000000000220       0x10 C:/Users/Dell/ide-8.0-workspace/hw.x86_64/src/hardware/startup/boards/../../../../install/x86_64/usr/lib\libstartup.a(ioapic_generic.o)
 .rodata        0x0000000000000230       0x10 C:/Users/Dell/ide-8.0-workspace/hw.x86_64/src/hardware/startup/boards/../../../../install/x86_64/usr/lib\libstartup.a(ioapic_ich.o)
 .rodata        0x0000000000000240       0xcb C:/Users/Dell/ide-8.0-workspace/hw.x86_64/src/hardware/startup/boards/../../../../install/x86_64/usr/lib\libstartup.a(ioapic_intsrc_disposition.o)
 *fill*         0x000000000000030b        0x5 
 .rodata        0x0000000000000310       0x10 C:/Users/Dell/ide-8.0-workspace/hw.x86_64/src/hardware/startup/boards/../../../../install/x86_64/usr/lib\libstartup.a(ioapic_ioh.o)
 .rodata        0x0000000000000320       0x72 C:/Users/Dell/ide-8.0-workspace/hw.x86_64/src/hardware/startup/boards/../../../../install/x86_64/usr/lib\libstartup.a(itss_misc.o)
 *fill*         0x0000000000000392        0xe 
 .rodata        0x00000000000003a0      0x181 C:/Users/Dell/ide-8.0-workspace/hw.x86_64/src/hardware/startup/boards/../../../../install/x86_64/usr/lib\libstartup.a(kprintf.o)
 *fill*         0x0000000000000521        0x7 
 .rodata        0x0000000000000528       0x80 C:/Users/Dell/ide-8.0-workspace/hw.x86_64/src/hardware/startup/boards/../../../../install/x86_64/usr/lib\libstartup.a(memcpy.o)
 .rodata        0x00000000000005a8        0xc C:/Users/Dell/ide-8.0-workspace/hw.x86_64/src/hardware/startup/boards/../../../../install/x86_64/usr/lib\libstartup.a(p2sb_misc.o)
 *fill*         0x00000000000005b4        0xc 
 .rodata        0x00000000000005c0       0x80 C:/Users/Dell/ide-8.0-workspace/hw.x86_64/src/hardware/startup/boards/../../../../install/x86_64/usr/lib\libstartup.a(pci_known_devs_table.o)
                0x00000000000005c0                known_pci_device_table_size
                0x00000000000005e0                known_pci_device_table
 .rodata        0x0000000000000640        0x4 C:/Users/Dell/ide-8.0-workspace/hw.x86_64/src/hardware/startup/boards/../../../../install/x86_64/usr/lib\libstartup.a(piix4_misc.o)
 *fill*         0x0000000000000644        0x4 
 .rodata        0x0000000000000648        0xb C:/Users/Dell/ide-8.0-workspace/hw.x86_64/src/hardware/startup/boards/../../../../install/x86_64/usr/lib\libstartup.a(processor64.o)
 *fill*         0x0000000000000653        0x5 
 .rodata        0x0000000000000658       0x10 C:/Users/Dell/ide-8.0-workspace/hw.x86_64/src/hardware/startup/boards/../../../../install/x86_64/usr/lib\libstartup.a(sbx00_misc.o)
 .rodata        0x0000000000000668        0x8 C:/Users/Dell/ide-8.0-workspace/hw.x86_64/src/hardware/startup/boards/../../../../install/x86_64/usr/lib\libstartup.a(sch_misc.o)
 .rodata        0x0000000000000670       0x19 C:/Users/Dell/ide-8.0-workspace/hw.x86_64/src/hardware/startup/boards/../../../../install/x86_64/usr/lib\libstartup.a(uefi.o)
 *fill*         0x0000000000000689        0x7 
 .rodata        0x0000000000000690       0x11 C:/Users/Dell/ide-8.0-workspace/hw.x86_64/src/hardware/startup/boards/../../../../install/x86_64/usr/lib\libstartup.a(ultoa_end.o)
 .rodata        0x00000000000006a1        0x5 C:/Users/Dell/ide-8.0-workspace/hw.x86_64/src/hardware/startup/boards/../../../../install/x86_64/usr/lib\libstartup.a(add_interrupt.o)
 *fill*         0x00000000000006a6        0xa 
 .rodata        0x00000000000006b0       0x12 C:/Users/Dell/ide-8.0-workspace/hw.x86_64/src/hardware/startup/boards/../../../../install/x86_64/usr/lib\libstartup.a(as_add_containing.o)
 *fill*         0x00000000000006c2        0x6 
 .rodata        0x00000000000006c8        0x8 C:/Users/Dell/ide-8.0-workspace/hw.x86_64/src/hardware/startup/boards/../../../../install/x86_64/usr/lib\libstartup.a(as_find.o)
 *fill*         0x00000000000006d0       0x10 
 .rodata        0x00000000000006e0       0x20 C:/Users/Dell/ide-8.0-workspace/hw.x86_64/src/hardware/startup/boards/../../../../install/x86_64/usr/lib\libstartup.a(board_find_acpi_rsdp_uefi.o)
 .rodata        0x0000000000000700      0x6f8 C:/Users/Dell/ide-8.0-workspace/hw.x86_64/src/hardware/startup/boards/../../../../install/x86_64/usr/lib\libstartup.a(cpu_family_clock.o)
 *fill*         0x0000000000000df8        0x8 
 .rodata        0x0000000000000e00       0x48 C:/Users/Dell/ide-8.0-workspace/hw.x86_64/src/hardware/startup/boards/../../../../install/x86_64/usr/lib\libstartup.a(find_ecam_base.o)
 *fill*         0x0000000000000e48       0x18 
 .rodata        0x0000000000000e60       0x60 C:/Users/Dell/ide-8.0-workspace/hw.x86_64/src/hardware/startup/boards/../../../../install/x86_64/usr/lib\libstartup.a(hv_guest.o)
 .rodata        0x0000000000000ec0        0x8 C:/Users/Dell/ide-8.0-workspace/hw.x86_64/src/hardware/startup/boards/../../../../install/x86_64/usr/lib\libstartup.a(ich_misc.o)
 .rodata        0x0000000000000ec8        0x5 C:/Users/Dell/ide-8.0-workspace/hw.x86_64/src/hardware/startup/boards/../../../../install/x86_64/usr/lib\libstartup.a(imps.o)
 *fill*         0x0000000000000ecd       0x13 
 .rodata        0x0000000000000ee0       0x20 C:/Users/Dell/ide-8.0-workspace/hw.x86_64/src/hardware/startup/boards/../../../../install/x86_64/usr/lib\libstartup.a(init_gdt.o)
 .rodata        0x0000000000000f00      0x300 C:/Users/Dell/ide-8.0-workspace/hw.x86_64/src/hardware/startup/boards/../../../../install/x86_64/usr/lib\libstartup.a(ioapic_default_configs.o)
 .rodata        0x0000000000001200        0xf C:/Users/Dell/ide-8.0-workspace/hw.x86_64/src/hardware/startup/boards/../../../../install/x86_64/usr/lib\libstartup.a(apic_smp.o)
 *fill*         0x000000000000120f       0x11 
 .rodata        0x0000000000001220       0x80 C:/Users/Dell/ide-8.0-workspace/hw.x86_64/src/hardware/startup/boards/../../../../install/x86_64/usr/lib\libstartup.a(calc_time_t.o)
 .rodata        0x00000000000012a0      0x300 C:/Users/Dell/qnx800/target/qnx/x86_64/lib\libc.a(xtolotab.o)

.rodata.str1.8  0x0000000000000000     0x36d4
 .rodata.str1.8
                0x0000000000000000       0x31 main.o
 *fill*         0x0000000000000031        0x7 
 .rodata.str1.8
                0x0000000000000038       0x27 C:/Users/Dell/ide-8.0-workspace/hw.x86_64/src/hardware/startup/boards/../../../../install/x86_64/usr/lib\libstartup.a(common_options.o)
 *fill*         0x000000000000005f        0x1 
 .rodata.str1.8
                0x0000000000000060       0x52 C:/Users/Dell/ide-8.0-workspace/hw.x86_64/src/hardware/startup/boards/../../../../install/x86_64/usr/lib\libstartup.a(cpu_startup.o)
 *fill*         0x00000000000000b2        0x6 
 .rodata.str1.8
                0x00000000000000b8       0x3a C:/Users/Dell/ide-8.0-workspace/hw.x86_64/src/hardware/startup/boards/../../../../install/x86_64/usr/lib\libstartup.a(hypervisor_setup.o)
 *fill*         0x00000000000000f2        0x6 
 .rodata.str1.8
                0x00000000000000f8       0xdc C:/Users/Dell/ide-8.0-workspace/hw.x86_64/src/hardware/startup/boards/../../../../install/x86_64/usr/lib\libstartup.a(init_cpuinfo.o)
 *fill*         0x00000000000001d4        0x4 
 .rodata.str1.8
                0x00000000000001d8       0x28 C:/Users/Dell/ide-8.0-workspace/hw.x86_64/src/hardware/startup/boards/../../../../install/x86_64/usr/lib\libstartup.a(init_hwinfo.o)
 .rodata.str1.8
                0x0000000000000200       0x62 C:/Users/Dell/ide-8.0-workspace/hw.x86_64/src/hardware/startup/boards/../../../../install/x86_64/usr/lib\libstartup.a(init_intrinfo.o)
 *fill*         0x0000000000000262        0x6 
 .rodata.str1.8
                0x0000000000000268       0x7f C:/Users/Dell/ide-8.0-workspace/hw.x86_64/src/hardware/startup/boards/../../../../install/x86_64/usr/lib\libstartup.a(init_intrinfo_msi.o)
 *fill*         0x00000000000002e7        0x1 
 .rodata.str1.8
                0x00000000000002e8       0xb7 C:/Users/Dell/ide-8.0-workspace/hw.x86_64/src/hardware/startup/boards/../../../../install/x86_64/usr/lib\libstartup.a(init_qtime.o)
 *fill*         0x000000000000039f        0x1 
 .rodata.str1.8
                0x00000000000003a0       0x45 C:/Users/Dell/ide-8.0-workspace/hw.x86_64/src/hardware/startup/boards/../../../../install/x86_64/usr/lib\libstartup.a(init_qtime_hpet.o)
 *fill*         0x00000000000003e5        0x3 
 .rodata.str1.8
                0x00000000000003e8      0x208 C:/Users/Dell/ide-8.0-workspace/hw.x86_64/src/hardware/startup/boards/../../../../install/x86_64/usr/lib\libstartup.a(init_qtime_lapic.o)
 .rodata.str1.8
                0x00000000000005f0      0x1b1 C:/Users/Dell/ide-8.0-workspace/hw.x86_64/src/hardware/startup/boards/../../../../install/x86_64/usr/lib\libstartup.a(init_raminfo_uefi.o)
 *fill*         0x00000000000007a1        0x7 
 .rodata.str1.8
                0x00000000000007a8       0x9d C:/Users/Dell/ide-8.0-workspace/hw.x86_64/src/hardware/startup/boards/../../../../install/x86_64/usr/lib\libstartup.a(init_reboot_callout.o)
 *fill*         0x0000000000000845        0x3 
 .rodata.str1.8
                0x0000000000000848       0xce C:/Users/Dell/ide-8.0-workspace/hw.x86_64/src/hardware/startup/boards/../../../../install/x86_64/usr/lib\libstartup.a(init_system_private.o)
 *fill*         0x0000000000000916        0x2 
 .rodata.str1.8
                0x0000000000000918       0xcb C:/Users/Dell/ide-8.0-workspace/hw.x86_64/src/hardware/startup/boards/../../../../install/x86_64/usr/lib\libstartup.a(ioapic.o)
 *fill*         0x00000000000009e3        0x5 
 .rodata.str1.8
                0x00000000000009e8      0x1b1 C:/Users/Dell/ide-8.0-workspace/hw.x86_64/src/hardware/startup/boards/../../../../install/x86_64/usr/lib\libstartup.a(ioapic_amd.o)
 *fill*         0x0000000000000b99        0x7 
 .rodata.str1.8
                0x0000000000000ba0      0x1b9 C:/Users/Dell/ide-8.0-workspace/hw.x86_64/src/hardware/startup/boards/../../../../install/x86_64/usr/lib\libstartup.a(ioapic_generic.o)
 *fill*         0x0000000000000d59        0x7 
 .rodata.str1.8
                0x0000000000000d60      0x259 C:/Users/Dell/ide-8.0-workspace/hw.x86_64/src/hardware/startup/boards/../../../../install/x86_64/usr/lib\libstartup.a(ioapic_ich.o)
 *fill*         0x0000000000000fb9        0x7 
 .rodata.str1.8
                0x0000000000000fc0      0x133 C:/Users/Dell/ide-8.0-workspace/hw.x86_64/src/hardware/startup/boards/../../../../install/x86_64/usr/lib\libstartup.a(ioapic_intsrc_disposition.o)
 *fill*         0x00000000000010f3        0x5 
 .rodata.str1.8
                0x00000000000010f8      0x1b9 C:/Users/Dell/ide-8.0-workspace/hw.x86_64/src/hardware/startup/boards/../../../../install/x86_64/usr/lib\libstartup.a(ioapic_ioh.o)
 *fill*         0x00000000000012b1        0x7 
 .rodata.str1.8
                0x00000000000012b8      0x277 C:/Users/Dell/ide-8.0-workspace/hw.x86_64/src/hardware/startup/boards/../../../../install/x86_64/usr/lib\libstartup.a(itss_misc.o)
 *fill*         0x000000000000152f        0x1 
 .rodata.str1.8
                0x0000000000001530       0xb5 C:/Users/Dell/ide-8.0-workspace/hw.x86_64/src/hardware/startup/boards/../../../../install/x86_64/usr/lib\libstartup.a(load_ifs.o)
 *fill*         0x00000000000015e5        0x3 
 .rodata.str1.8
                0x00000000000015e8       0x79 C:/Users/Dell/ide-8.0-workspace/hw.x86_64/src/hardware/startup/boards/../../../../install/x86_64/usr/lib\libstartup.a(map_startup_mem.o)
 *fill*         0x0000000000001661        0x7 
 .rodata.str1.8
                0x0000000000001668       0x92 C:/Users/Dell/ide-8.0-workspace/hw.x86_64/src/hardware/startup/boards/../../../../install/x86_64/usr/lib\libstartup.a(p2sb_misc.o)
 *fill*         0x00000000000016fa        0x6 
 .rodata.str1.8
                0x0000000000001700       0x59 C:/Users/Dell/ide-8.0-workspace/hw.x86_64/src/hardware/startup/boards/../../../../install/x86_64/usr/lib\libstartup.a(pci_known_devs_table.o)
 *fill*         0x0000000000001759        0x7 
 .rodata.str1.8
                0x0000000000001760       0x23 C:/Users/Dell/ide-8.0-workspace/hw.x86_64/src/hardware/startup/boards/../../../../install/x86_64/usr/lib\libstartup.a(pci_misc.o)
 *fill*         0x0000000000001783        0x5 
 .rodata.str1.8
                0x0000000000001788       0x61 C:/Users/Dell/ide-8.0-workspace/hw.x86_64/src/hardware/startup/boards/../../../../install/x86_64/usr/lib\libstartup.a(pci_read_cfg32.o)
 *fill*         0x00000000000017e9        0x7 
 .rodata.str1.8
                0x00000000000017f0       0x61 C:/Users/Dell/ide-8.0-workspace/hw.x86_64/src/hardware/startup/boards/../../../../install/x86_64/usr/lib\libstartup.a(pci_write_cfg32.o)
 *fill*         0x0000000000001851        0x7 
 .rodata.str1.8
                0x0000000000001858       0x24 C:/Users/Dell/ide-8.0-workspace/hw.x86_64/src/hardware/startup/boards/../../../../install/x86_64/usr/lib\libstartup.a(pcu_misc.o)
 *fill*         0x000000000000187c        0x4 
 .rodata.str1.8
                0x0000000000001880       0x22 C:/Users/Dell/ide-8.0-workspace/hw.x86_64/src/hardware/startup/boards/../../../../install/x86_64/usr/lib\libstartup.a(piix4_misc.o)
 *fill*         0x00000000000018a2        0x6 
 .rodata.str1.8
                0x00000000000018a8      0x324 C:/Users/Dell/ide-8.0-workspace/hw.x86_64/src/hardware/startup/boards/../../../../install/x86_64/usr/lib\libstartup.a(print_sysp.o)
 *fill*         0x0000000000001bcc        0x4 
 .rodata.str1.8
                0x0000000000001bd0       0xc1 C:/Users/Dell/ide-8.0-workspace/hw.x86_64/src/hardware/startup/boards/../../../../install/x86_64/usr/lib\libstartup.a(processor64.o)
 *fill*         0x0000000000001c91        0x7 
 .rodata.str1.8
                0x0000000000001c98       0xa9 C:/Users/Dell/ide-8.0-workspace/hw.x86_64/src/hardware/startup/boards/../../../../install/x86_64/usr/lib\libstartup.a(ram.o)
 *fill*         0x0000000000001d41        0x7 
 .rodata.str1.8
                0x0000000000001d48      0x2d1 C:/Users/Dell/ide-8.0-workspace/hw.x86_64/src/hardware/startup/boards/../../../../install/x86_64/usr/lib\libstartup.a(restore_ifs.o)
 *fill*         0x0000000000002019        0x7 
 .rodata.str1.8
                0x0000000000002020       0x47 C:/Users/Dell/ide-8.0-workspace/hw.x86_64/src/hardware/startup/boards/../../../../install/x86_64/usr/lib\libstartup.a(sbx00_misc.o)
 *fill*         0x0000000000002067        0x1 
 .rodata.str1.8
                0x0000000000002068       0x20 C:/Users/Dell/ide-8.0-workspace/hw.x86_64/src/hardware/startup/boards/../../../../install/x86_64/usr/lib\libstartup.a(sch_misc.o)
 .rodata.str1.8
                0x0000000000002088       0x29 C:/Users/Dell/ide-8.0-workspace/hw.x86_64/src/hardware/startup/boards/../../../../install/x86_64/usr/lib\libstartup.a(startnext.o)
 *fill*         0x00000000000020b1        0x7 
 .rodata.str1.8
                0x00000000000020b8       0x3b C:/Users/Dell/ide-8.0-workspace/hw.x86_64/src/hardware/startup/boards/../../../../install/x86_64/usr/lib\libstartup.a(syspage_memory.o)
 *fill*         0x00000000000020f3        0x5 
 .rodata.str1.8
                0x00000000000020f8      0x111 C:/Users/Dell/ide-8.0-workspace/hw.x86_64/src/hardware/startup/boards/../../../../install/x86_64/usr/lib\libstartup.a(uefi.o)
 *fill*         0x0000000000002209        0x7 
 .rodata.str1.8
                0x0000000000002210      0x1e3 C:/Users/Dell/ide-8.0-workspace/hw.x86_64/src/hardware/startup/boards/../../../../install/x86_64/usr/lib\libstartup.a(uefi_init.o)
 *fill*         0x00000000000023f3        0x5 
 .rodata.str1.8
                0x00000000000023f8       0x5c C:/Users/Dell/ide-8.0-workspace/hw.x86_64/src/hardware/startup/boards/../../../../install/x86_64/usr/lib\libstartup.a(acpi.o)
 *fill*         0x0000000000002454        0x4 
 .rodata.str1.8
                0x0000000000002458      0x1f5 C:/Users/Dell/ide-8.0-workspace/hw.x86_64/src/hardware/startup/boards/../../../../install/x86_64/usr/lib\libstartup.a(acpi_ioapic.o)
 *fill*         0x000000000000264d        0x3 
 .rodata.str1.8
                0x0000000000002650      0x229 C:/Users/Dell/ide-8.0-workspace/hw.x86_64/src/hardware/startup/boards/../../../../install/x86_64/usr/lib\libstartup.a(apic_io_intr.o)
 *fill*         0x0000000000002879        0x7 
 .rodata.str1.8
                0x0000000000002880      0x25b C:/Users/Dell/ide-8.0-workspace/hw.x86_64/src/hardware/startup/boards/../../../../install/x86_64/usr/lib\libstartup.a(apic_local_intr.o)
 *fill*         0x0000000000002adb        0x5 
 .rodata.str1.8
                0x0000000000002ae0       0x9a C:/Users/Dell/ide-8.0-workspace/hw.x86_64/src/hardware/startup/boards/../../../../install/x86_64/usr/lib\libstartup.a(apic_paddr.o)
 *fill*         0x0000000000002b7a        0x6 
 .rodata.str1.8
                0x0000000000002b80       0x2e C:/Users/Dell/ide-8.0-workspace/hw.x86_64/src/hardware/startup/boards/../../../../install/x86_64/usr/lib\libstartup.a(callouts.o)
 *fill*         0x0000000000002bae        0x2 
 .rodata.str1.8
                0x0000000000002bb0      0x109 C:/Users/Dell/ide-8.0-workspace/hw.x86_64/src/hardware/startup/boards/../../../../install/x86_64/usr/lib\libstartup.a(cpu_family_clock.o)
 *fill*         0x0000000000002cb9        0x7 
 .rodata.str1.8
                0x0000000000002cc0       0x33 C:/Users/Dell/ide-8.0-workspace/hw.x86_64/src/hardware/startup/boards/../../../../install/x86_64/usr/lib\libstartup.a(cpu_syspage_memory.o)
 *fill*         0x0000000000002cf3        0x5 
 .rodata.str1.8
                0x0000000000002cf8       0x27 C:/Users/Dell/ide-8.0-workspace/hw.x86_64/src/hardware/startup/boards/../../../../install/x86_64/usr/lib\libstartup.a(cpu_tweak_cmdline.o)
 *fill*         0x0000000000002d1f        0x1 
 .rodata.str1.8
                0x0000000000002d20       0x27 C:/Users/Dell/ide-8.0-workspace/hw.x86_64/src/hardware/startup/boards/../../../../install/x86_64/usr/lib\libstartup.a(elf_map.o)
 *fill*         0x0000000000002d47        0x1 
 .rodata.str1.8
                0x0000000000002d48       0xb9 C:/Users/Dell/ide-8.0-workspace/hw.x86_64/src/hardware/startup/boards/../../../../install/x86_64/usr/lib\libstartup.a(find_ecam_base.o)
 *fill*         0x0000000000002e01        0x7 
 .rodata.str1.8
                0x0000000000002e08       0xa9 C:/Users/Dell/ide-8.0-workspace/hw.x86_64/src/hardware/startup/boards/../../../../install/x86_64/usr/lib\libstartup.a(hv_guest.o)
 *fill*         0x0000000000002eb1        0x7 
 .rodata.str1.8
                0x0000000000002eb8       0x72 C:/Users/Dell/ide-8.0-workspace/hw.x86_64/src/hardware/startup/boards/../../../../install/x86_64/usr/lib\libstartup.a(hypervisor.o)
 *fill*         0x0000000000002f2a        0x6 
 .rodata.str1.8
                0x0000000000002f30       0x48 C:/Users/Dell/ide-8.0-workspace/hw.x86_64/src/hardware/startup/boards/../../../../install/x86_64/usr/lib\libstartup.a(ich_misc.o)
 .rodata.str1.8
                0x0000000000002f78       0x2b C:/Users/Dell/ide-8.0-workspace/hw.x86_64/src/hardware/startup/boards/../../../../install/x86_64/usr/lib\libstartup.a(imps.o)
 *fill*         0x0000000000002fa3        0x5 
 .rodata.str1.8
                0x0000000000002fa8      0x149 C:/Users/Dell/ide-8.0-workspace/hw.x86_64/src/hardware/startup/boards/../../../../install/x86_64/usr/lib\libstartup.a(imps_ioapic.o)
 *fill*         0x00000000000030f1        0x7 
 .rodata.str1.8
                0x00000000000030f8       0x24 C:/Users/Dell/ide-8.0-workspace/hw.x86_64/src/hardware/startup/boards/../../../../install/x86_64/usr/lib\libstartup.a(imps_smp.o)
 *fill*         0x000000000000311c        0x4 
 .rodata.str1.8
                0x0000000000003120      0x2e0 C:/Users/Dell/ide-8.0-workspace/hw.x86_64/src/hardware/startup/boards/../../../../install/x86_64/usr/lib\libstartup.a(ioapic_auto_config.o)
 .rodata.str1.8
                0x0000000000003400      0x14f C:/Users/Dell/ide-8.0-workspace/hw.x86_64/src/hardware/startup/boards/../../../../install/x86_64/usr/lib\libstartup.a(ioapic_default_configs.o)
 *fill*         0x000000000000354f        0x1 
 .rodata.str1.8
                0x0000000000003550       0x28 C:/Users/Dell/ide-8.0-workspace/hw.x86_64/src/hardware/startup/boards/../../../../install/x86_64/usr/lib\libstartup.a(timer_ns2tick.o)
 .rodata.str1.8
                0x0000000000003578       0xa1 C:/Users/Dell/ide-8.0-workspace/hw.x86_64/src/hardware/startup/boards/../../../../install/x86_64/usr/lib\libstartup.a(apic_smp.o)
 *fill*         0x0000000000003619        0x7 
 .rodata.str1.8
                0x0000000000003620       0x2c C:/Users/Dell/ide-8.0-workspace/hw.x86_64/src/hardware/startup/boards/../../../../install/x86_64/usr/lib\libstartup.a(calc_time_t.o)
 *fill*         0x000000000000364c        0x4 
 .rodata.str1.8
                0x0000000000003650       0x84 C:/Users/Dell/qnx800/target/qnx/x86_64/lib\libc.a(_ssp.o)

.rodata.str1.1  0x0000000000000000     0x1591
 .rodata.str1.1
                0x0000000000000000       0xba main.o
 .rodata.str1.1
                0x00000000000000ba       0x26 C:/Users/Dell/ide-8.0-workspace/hw.x86_64/src/hardware/startup/boards/../../../../install/x86_64/usr/lib\libstartup.a(_main.o)
 .rodata.str1.1
                0x00000000000000e0        0x1 C:/Users/Dell/ide-8.0-workspace/hw.x86_64/src/hardware/startup/boards/../../../../install/x86_64/usr/lib\libstartup.a(common_options.o)
 .rodata.str1.1
                0x00000000000000e1       0x18 C:/Users/Dell/ide-8.0-workspace/hw.x86_64/src/hardware/startup/boards/../../../../install/x86_64/usr/lib\libstartup.a(cpu_common_options.o)
 .rodata.str1.1
                0x00000000000000f9        0x3 C:/Users/Dell/ide-8.0-workspace/hw.x86_64/src/hardware/startup/boards/../../../../install/x86_64/usr/lib\libstartup.a(debug.o)
 .rodata.str1.1
                0x00000000000000fc       0x29 C:/Users/Dell/ide-8.0-workspace/hw.x86_64/src/hardware/startup/boards/../../../../install/x86_64/usr/lib\libstartup.a(hwi_add_nanospin.o)
 .rodata.str1.1
                0x0000000000000125        0x4 C:/Users/Dell/ide-8.0-workspace/hw.x86_64/src/hardware/startup/boards/../../../../install/x86_64/usr/lib\libstartup.a(hwi_alloc.o)
 .rodata.str1.1
                0x0000000000000129       0x35 C:/Users/Dell/ide-8.0-workspace/hw.x86_64/src/hardware/startup/boards/../../../../install/x86_64/usr/lib\libstartup.a(init_cpuinfo.o)
 .rodata.str1.1
                0x000000000000015e       0x9e C:/Users/Dell/ide-8.0-workspace/hw.x86_64/src/hardware/startup/boards/../../../../install/x86_64/usr/lib\libstartup.a(init_hwinfo.o)
 .rodata.str1.1
                0x00000000000001fc       0x93 C:/Users/Dell/ide-8.0-workspace/hw.x86_64/src/hardware/startup/boards/../../../../install/x86_64/usr/lib\libstartup.a(init_intrinfo.o)
 .rodata.str1.1
                0x000000000000028f       0x5d C:/Users/Dell/ide-8.0-workspace/hw.x86_64/src/hardware/startup/boards/../../../../install/x86_64/usr/lib\libstartup.a(init_intrinfo_msi.o)
 .rodata.str1.1
                0x00000000000002ec       0x27 C:/Users/Dell/ide-8.0-workspace/hw.x86_64/src/hardware/startup/boards/../../../../install/x86_64/usr/lib\libstartup.a(init_qtime.o)
 .rodata.str1.1
                0x0000000000000313       0x29 C:/Users/Dell/ide-8.0-workspace/hw.x86_64/src/hardware/startup/boards/../../../../install/x86_64/usr/lib\libstartup.a(init_qtime_hpet.o)
 .rodata.str1.1
                0x000000000000033c       0x4a C:/Users/Dell/ide-8.0-workspace/hw.x86_64/src/hardware/startup/boards/../../../../install/x86_64/usr/lib\libstartup.a(init_qtime_lapic.o)
 .rodata.str1.1
                0x0000000000000386       0x39 C:/Users/Dell/ide-8.0-workspace/hw.x86_64/src/hardware/startup/boards/../../../../install/x86_64/usr/lib\libstartup.a(init_raminfo_uefi.o)
 .rodata.str1.1
                0x00000000000003bf       0x65 C:/Users/Dell/ide-8.0-workspace/hw.x86_64/src/hardware/startup/boards/../../../../install/x86_64/usr/lib\libstartup.a(init_system_private.o)
 .rodata.str1.1
                0x0000000000000424       0x19 C:/Users/Dell/ide-8.0-workspace/hw.x86_64/src/hardware/startup/boards/../../../../install/x86_64/usr/lib\libstartup.a(invert_timer_freq.o)
 .rodata.str1.1
                0x000000000000043d       0x2d C:/Users/Dell/ide-8.0-workspace/hw.x86_64/src/hardware/startup/boards/../../../../install/x86_64/usr/lib\libstartup.a(ioapic.o)
 .rodata.str1.1
                0x000000000000046a       0x41 C:/Users/Dell/ide-8.0-workspace/hw.x86_64/src/hardware/startup/boards/../../../../install/x86_64/usr/lib\libstartup.a(ioapic_amd.o)
 .rodata.str1.1
                0x00000000000004ab       0x59 C:/Users/Dell/ide-8.0-workspace/hw.x86_64/src/hardware/startup/boards/../../../../install/x86_64/usr/lib\libstartup.a(ioapic_find.o)
 .rodata.str1.1
                0x0000000000000504       0x41 C:/Users/Dell/ide-8.0-workspace/hw.x86_64/src/hardware/startup/boards/../../../../install/x86_64/usr/lib\libstartup.a(ioapic_generic.o)
 .rodata.str1.1
                0x0000000000000545       0x58 C:/Users/Dell/ide-8.0-workspace/hw.x86_64/src/hardware/startup/boards/../../../../install/x86_64/usr/lib\libstartup.a(ioapic_ich.o)
 .rodata.str1.1
                0x000000000000059d       0x5e C:/Users/Dell/ide-8.0-workspace/hw.x86_64/src/hardware/startup/boards/../../../../install/x86_64/usr/lib\libstartup.a(ioapic_intsrc_disposition.o)
 .rodata.str1.1
                0x00000000000005fb       0x41 C:/Users/Dell/ide-8.0-workspace/hw.x86_64/src/hardware/startup/boards/../../../../install/x86_64/usr/lib\libstartup.a(ioapic_ioh.o)
 .rodata.str1.1
                0x000000000000063c       0x4e C:/Users/Dell/ide-8.0-workspace/hw.x86_64/src/hardware/startup/boards/../../../../install/x86_64/usr/lib\libstartup.a(itss_misc.o)
 .rodata.str1.1
                0x000000000000068a       0x1f C:/Users/Dell/ide-8.0-workspace/hw.x86_64/src/hardware/startup/boards/../../../../install/x86_64/usr/lib\libstartup.a(load_ifs.o)
 .rodata.str1.1
                0x00000000000006a9       0x36 C:/Users/Dell/ide-8.0-workspace/hw.x86_64/src/hardware/startup/boards/../../../../install/x86_64/usr/lib\libstartup.a(p2sb_misc.o)
 .rodata.str1.1
                0x00000000000006df       0x1b C:/Users/Dell/ide-8.0-workspace/hw.x86_64/src/hardware/startup/boards/../../../../install/x86_64/usr/lib\libstartup.a(pci_read_cfg16.o)
 .rodata.str1.1
                0x00000000000006fa       0x1c C:/Users/Dell/ide-8.0-workspace/hw.x86_64/src/hardware/startup/boards/../../../../install/x86_64/usr/lib\libstartup.a(pci_write_cfg16.o)
 .rodata.str1.1
                0x0000000000000716        0xc C:/Users/Dell/ide-8.0-workspace/hw.x86_64/src/hardware/startup/boards/../../../../install/x86_64/usr/lib\libstartup.a(pcu_misc.o)
 .rodata.str1.1
                0x0000000000000722        0xc C:/Users/Dell/ide-8.0-workspace/hw.x86_64/src/hardware/startup/boards/../../../../install/x86_64/usr/lib\libstartup.a(piix4_misc.o)
 .rodata.str1.1
                0x000000000000072e      0x18d C:/Users/Dell/ide-8.0-workspace/hw.x86_64/src/hardware/startup/boards/../../../../install/x86_64/usr/lib\libstartup.a(print_sysp.o)
 .rodata.str1.1
                0x00000000000008bb       0x20 C:/Users/Dell/ide-8.0-workspace/hw.x86_64/src/hardware/startup/boards/../../../../install/x86_64/usr/lib\libstartup.a(processor64.o)
 .rodata.str1.1
                0x00000000000008db       0x53 C:/Users/Dell/ide-8.0-workspace/hw.x86_64/src/hardware/startup/boards/../../../../install/x86_64/usr/lib\libstartup.a(ram.o)
 .rodata.str1.1
                0x000000000000092e      0x1e0 C:/Users/Dell/ide-8.0-workspace/hw.x86_64/src/hardware/startup/boards/../../../../install/x86_64/usr/lib\libstartup.a(restore_ifs.o)
 .rodata.str1.1
                0x0000000000000b0e       0x34 C:/Users/Dell/ide-8.0-workspace/hw.x86_64/src/hardware/startup/boards/../../../../install/x86_64/usr/lib\libstartup.a(sch_misc.o)
 .rodata.str1.1
                0x0000000000000b42       0x1c C:/Users/Dell/ide-8.0-workspace/hw.x86_64/src/hardware/startup/boards/../../../../install/x86_64/usr/lib\libstartup.a(ssp.o)
 .rodata.str1.1
                0x0000000000000b5e       0x38 C:/Users/Dell/ide-8.0-workspace/hw.x86_64/src/hardware/startup/boards/../../../../install/x86_64/usr/lib\libstartup.a(startnext.o)
 .rodata.str1.1
                0x0000000000000b96       0x7d C:/Users/Dell/ide-8.0-workspace/hw.x86_64/src/hardware/startup/boards/../../../../install/x86_64/usr/lib\libstartup.a(uefi.o)
 .rodata.str1.1
                0x0000000000000c13       0x2f C:/Users/Dell/ide-8.0-workspace/hw.x86_64/src/hardware/startup/boards/../../../../install/x86_64/usr/lib\libstartup.a(uefi_init.o)
 .rodata.str1.1
                0x0000000000000c42        0x9 C:/Users/Dell/ide-8.0-workspace/hw.x86_64/src/hardware/startup/boards/../../../../install/x86_64/usr/lib\libstartup.a(uefi_io.o)
 .rodata.str1.1
                0x0000000000000c4b       0x2e C:/Users/Dell/ide-8.0-workspace/hw.x86_64/src/hardware/startup/boards/../../../../install/x86_64/usr/lib\libstartup.a(uncompress.o)
 .rodata.str1.1
                0x0000000000000c79        0x5 C:/Users/Dell/ide-8.0-workspace/hw.x86_64/src/hardware/startup/boards/../../../../install/x86_64/usr/lib\libstartup.a(uncompress_ucl.o)
 .rodata.str1.1
                0x0000000000000c7e        0x7 C:/Users/Dell/ide-8.0-workspace/hw.x86_64/src/hardware/startup/boards/../../../../install/x86_64/usr/lib\libstartup.a(acpi.o)
 .rodata.str1.1
                0x0000000000000c85       0x4d C:/Users/Dell/ide-8.0-workspace/hw.x86_64/src/hardware/startup/boards/../../../../install/x86_64/usr/lib\libstartup.a(acpi_ioapic.o)
 .rodata.str1.1
                0x0000000000000cd2       0x26 C:/Users/Dell/ide-8.0-workspace/hw.x86_64/src/hardware/startup/boards/../../../../install/x86_64/usr/lib\libstartup.a(amd_misc.o)
 .rodata.str1.1
                0x0000000000000cf8       0x16 C:/Users/Dell/ide-8.0-workspace/hw.x86_64/src/hardware/startup/boards/../../../../install/x86_64/usr/lib\libstartup.a(ap_fail.o)
 .rodata.str1.1
                0x0000000000000d0e       0x67 C:/Users/Dell/ide-8.0-workspace/hw.x86_64/src/hardware/startup/boards/../../../../install/x86_64/usr/lib\libstartup.a(apic_io_intr.o)
 .rodata.str1.1
                0x0000000000000d75        0x2 C:/Users/Dell/ide-8.0-workspace/hw.x86_64/src/hardware/startup/boards/../../../../install/x86_64/usr/lib\libstartup.a(apic_local_intr.o)
 .rodata.str1.1
                0x0000000000000d77       0x29 C:/Users/Dell/ide-8.0-workspace/hw.x86_64/src/hardware/startup/boards/../../../../install/x86_64/usr/lib\libstartup.a(apic_paddr.o)
 .rodata.str1.1
                0x0000000000000da0        0x3 C:/Users/Dell/ide-8.0-workspace/hw.x86_64/src/hardware/startup/boards/../../../../install/x86_64/usr/lib\libstartup.a(as_add64.o)
 .rodata.str1.1
                0x0000000000000da3       0x16 C:/Users/Dell/ide-8.0-workspace/hw.x86_64/src/hardware/startup/boards/../../../../install/x86_64/usr/lib\libstartup.a(as_add_containing.o)
 .rodata.str1.1
                0x0000000000000db9        0xa C:/Users/Dell/ide-8.0-workspace/hw.x86_64/src/hardware/startup/boards/../../../../install/x86_64/usr/lib\libstartup.a(as_default.o)
 .rodata.str1.1
                0x0000000000000dc3       0x2e C:/Users/Dell/ide-8.0-workspace/hw.x86_64/src/hardware/startup/boards/../../../../install/x86_64/usr/lib\libstartup.a(as_find.o)
 .rodata.str1.1
                0x0000000000000df1       0x11 C:/Users/Dell/ide-8.0-workspace/hw.x86_64/src/hardware/startup/boards/../../../../install/x86_64/usr/lib\libstartup.a(board_find_acpi_rsdp_bios.o)
 .rodata.str1.1
                0x0000000000000e02       0x11 C:/Users/Dell/ide-8.0-workspace/hw.x86_64/src/hardware/startup/boards/../../../../install/x86_64/usr/lib\libstartup.a(board_find_acpi_rsdp_uefi.o)
 .rodata.str1.1
                0x0000000000000e13      0x1a1 C:/Users/Dell/ide-8.0-workspace/hw.x86_64/src/hardware/startup/boards/../../../../install/x86_64/usr/lib\libstartup.a(cpu_family_clock.o)
 .rodata.str1.1
                0x0000000000000fb4       0x1a C:/Users/Dell/ide-8.0-workspace/hw.x86_64/src/hardware/startup/boards/../../../../install/x86_64/usr/lib\libstartup.a(cpu_tsc.o)
 .rodata.str1.1
                0x0000000000000fce        0x9 C:/Users/Dell/ide-8.0-workspace/hw.x86_64/src/hardware/startup/boards/../../../../install/x86_64/usr/lib\libstartup.a(cpu_tweak_cmdline.o)
 .rodata.str1.1
                0x0000000000000fd7       0xc7 C:/Users/Dell/ide-8.0-workspace/hw.x86_64/src/hardware/startup/boards/../../../../install/x86_64/usr/lib\libstartup.a(find_ecam_base.o)
 .rodata.str1.1
                0x000000000000109e       0x53 C:/Users/Dell/ide-8.0-workspace/hw.x86_64/src/hardware/startup/boards/../../../../install/x86_64/usr/lib\libstartup.a(hv_guest.o)
 .rodata.str1.1
                0x00000000000010f1      0x16b C:/Users/Dell/ide-8.0-workspace/hw.x86_64/src/hardware/startup/boards/../../../../install/x86_64/usr/lib\libstartup.a(hw_cpuid_string.o)
 .rodata.str1.1
                0x000000000000125c       0x14 C:/Users/Dell/ide-8.0-workspace/hw.x86_64/src/hardware/startup/boards/../../../../install/x86_64/usr/lib\libstartup.a(hwi_add_device.o)
 .rodata.str1.1
                0x0000000000001270       0x15 C:/Users/Dell/ide-8.0-workspace/hw.x86_64/src/hardware/startup/boards/../../../../install/x86_64/usr/lib\libstartup.a(hwi_default.o)
 .rodata.str1.1
                0x0000000000001285        0xa C:/Users/Dell/ide-8.0-workspace/hw.x86_64/src/hardware/startup/boards/../../../../install/x86_64/usr/lib\libstartup.a(hwi_find_as.o)
 .rodata.str1.1
                0x000000000000128f       0x12 C:/Users/Dell/ide-8.0-workspace/hw.x86_64/src/hardware/startup/boards/../../../../install/x86_64/usr/lib\libstartup.a(hwidev_add.o)
 .rodata.str1.1
                0x00000000000012a1        0x4 C:/Users/Dell/ide-8.0-workspace/hw.x86_64/src/hardware/startup/boards/../../../../install/x86_64/usr/lib\libstartup.a(hwitag_add_irq.o)
 .rodata.str1.1
                0x00000000000012a5        0x9 C:/Users/Dell/ide-8.0-workspace/hw.x86_64/src/hardware/startup/boards/../../../../install/x86_64/usr/lib\libstartup.a(hwitag_add_location.o)
 .rodata.str1.1
                0x00000000000012ae       0x7c C:/Users/Dell/ide-8.0-workspace/hw.x86_64/src/hardware/startup/boards/../../../../install/x86_64/usr/lib\libstartup.a(hypervisor.o)
 .rodata.str1.1
                0x000000000000132a       0x59 C:/Users/Dell/ide-8.0-workspace/hw.x86_64/src/hardware/startup/boards/../../../../install/x86_64/usr/lib\libstartup.a(ich_misc.o)
 .rodata.str1.1
                0x0000000000001383       0x1b C:/Users/Dell/ide-8.0-workspace/hw.x86_64/src/hardware/startup/boards/../../../../install/x86_64/usr/lib\libstartup.a(imps.o)
 .rodata.str1.1
                0x000000000000139e       0x85 C:/Users/Dell/ide-8.0-workspace/hw.x86_64/src/hardware/startup/boards/../../../../install/x86_64/usr/lib\libstartup.a(imps_ioapic.o)
 .rodata.str1.1
                0x0000000000001423       0x4f C:/Users/Dell/ide-8.0-workspace/hw.x86_64/src/hardware/startup/boards/../../../../install/x86_64/usr/lib\libstartup.a(imps_smp.o)
 .rodata.str1.1
                0x0000000000001472        0xf C:/Users/Dell/ide-8.0-workspace/hw.x86_64/src/hardware/startup/boards/../../../../install/x86_64/usr/lib\libstartup.a(init_asinfo.o)
 .rodata.str1.1
                0x0000000000001481       0x40 C:/Users/Dell/ide-8.0-workspace/hw.x86_64/src/hardware/startup/boards/../../../../install/x86_64/usr/lib\libstartup.a(ioapic_auto_config.o)
 .rodata.str1.1
                0x00000000000014c1       0x16 C:/Users/Dell/ide-8.0-workspace/hw.x86_64/src/hardware/startup/boards/../../../../install/x86_64/usr/lib\libstartup.a(ioapic_default_configs.o)
 .rodata.str1.1
                0x00000000000014d7       0x20 C:/Users/Dell/ide-8.0-workspace/hw.x86_64/src/hardware/startup/boards/../../../../install/x86_64/usr/lib\libstartup.a(acpi_smp.o)
 .rodata.str1.1
                0x00000000000014f7       0x19 C:/Users/Dell/ide-8.0-workspace/hw.x86_64/src/hardware/startup/boards/../../../../install/x86_64/usr/lib\libstartup.a(apic_smp.o)
 .rodata.str1.1
                0x0000000000001510        0x9 C:/Users/Dell/ide-8.0-workspace/hw.x86_64/src/hardware/startup/boards/../../../../install/x86_64/usr/lib\libstartup.a(hw_rtc_mc146818.o)
 .rodata.str1.1
                0x0000000000001519       0x14 C:/Users/Dell/ide-8.0-workspace/hw.x86_64/src/hardware/startup/boards/../../../../install/x86_64/usr/lib\libstartup.a(hwi_add_rtc.o)
 .rodata.str1.1
                0x000000000000152d       0x64 C:/Users/Dell/qnx800/target/qnx/x86_64/lib\libc.a(_ssp.o)

.rodata.cst2    0x0000000000000000        0x2
 .rodata.cst2   0x0000000000000000        0x2 C:/Users/Dell/ide-8.0-workspace/hw.x86_64/src/hardware/startup/boards/../../../../install/x86_64/usr/lib\libstartup.a(hw_vgaout32.o)

.rodata1
 *(.rodata1)

.eh_frame_hdr
 *(.eh_frame_hdr)

.eh_frame       0x0000000000000000     0x57ac
 *(.eh_frame)
 .eh_frame      0x0000000000000000       0x68 main.o
 .eh_frame      0x0000000000000068       0x88 C:/Users/Dell/ide-8.0-workspace/hw.x86_64/src/hardware/startup/boards/../../../../install/x86_64/usr/lib\libstartup.a(_main.o)
 .eh_frame      0x00000000000000f0       0x30 C:/Users/Dell/ide-8.0-workspace/hw.x86_64/src/hardware/startup/boards/../../../../install/x86_64/usr/lib\libstartup.a(board_init.o)
 .eh_frame      0x0000000000000120       0x58 C:/Users/Dell/ide-8.0-workspace/hw.x86_64/src/hardware/startup/boards/../../../../install/x86_64/usr/lib\libstartup.a(callout_debug_8250.o)
 .eh_frame      0x0000000000000178       0x58 C:/Users/Dell/ide-8.0-workspace/hw.x86_64/src/hardware/startup/boards/../../../../install/x86_64/usr/lib\libstartup.a(callout_debug_con.o)
 .eh_frame      0x00000000000001d0       0x58 C:/Users/Dell/ide-8.0-workspace/hw.x86_64/src/hardware/startup/boards/../../../../install/x86_64/usr/lib\libstartup.a(callout_debug_dummy.o)
 .eh_frame      0x0000000000000228      0x130 C:/Users/Dell/ide-8.0-workspace/hw.x86_64/src/hardware/startup/boards/../../../../install/x86_64/usr/lib\libstartup.a(common_options.o)
 .eh_frame      0x0000000000000358       0x50 C:/Users/Dell/ide-8.0-workspace/hw.x86_64/src/hardware/startup/boards/../../../../install/x86_64/usr/lib\libstartup.a(cpu_cluster_add.o)
 .eh_frame      0x00000000000003a8       0x40 C:/Users/Dell/ide-8.0-workspace/hw.x86_64/src/hardware/startup/boards/../../../../install/x86_64/usr/lib\libstartup.a(cpu_common_options.o)
 .eh_frame      0x00000000000003e8       0x70 C:/Users/Dell/ide-8.0-workspace/hw.x86_64/src/hardware/startup/boards/../../../../install/x86_64/usr/lib\libstartup.a(cpu_startup.o)
 .eh_frame      0x0000000000000458       0x38 C:/Users/Dell/ide-8.0-workspace/hw.x86_64/src/hardware/startup/boards/../../../../install/x86_64/usr/lib\libstartup.a(debug.o)
 .eh_frame      0x0000000000000490       0x30 C:/Users/Dell/ide-8.0-workspace/hw.x86_64/src/hardware/startup/boards/../../../../install/x86_64/usr/lib\libstartup.a(early_setup.o)
 .eh_frame      0x00000000000004c0       0x58 C:/Users/Dell/ide-8.0-workspace/hw.x86_64/src/hardware/startup/boards/../../../../install/x86_64/usr/lib\libstartup.a(entry_32prot.o)
 .eh_frame      0x0000000000000518       0x30 C:/Users/Dell/ide-8.0-workspace/hw.x86_64/src/hardware/startup/boards/../../../../install/x86_64/usr/lib\libstartup.a(getopt.o)
 .eh_frame      0x0000000000000548       0x40 C:/Users/Dell/ide-8.0-workspace/hw.x86_64/src/hardware/startup/boards/../../../../install/x86_64/usr/lib\libstartup.a(getsize.o)
 .eh_frame      0x0000000000000588      0x118 C:/Users/Dell/ide-8.0-workspace/hw.x86_64/src/hardware/startup/boards/../../../../install/x86_64/usr/lib\libstartup.a(hw_ser8250.o)
 .eh_frame      0x00000000000006a0       0xc8 C:/Users/Dell/ide-8.0-workspace/hw.x86_64/src/hardware/startup/boards/../../../../install/x86_64/usr/lib\libstartup.a(hw_ser8250_pci.o)
 .eh_frame      0x0000000000000768       0x88 C:/Users/Dell/ide-8.0-workspace/hw.x86_64/src/hardware/startup/boards/../../../../install/x86_64/usr/lib\libstartup.a(hw_vgaout32.o)
 .eh_frame      0x00000000000007f0       0x40 C:/Users/Dell/ide-8.0-workspace/hw.x86_64/src/hardware/startup/boards/../../../../install/x86_64/usr/lib\libstartup.a(hwi_add_nanospin.o)
 .eh_frame      0x0000000000000830       0xd0 C:/Users/Dell/ide-8.0-workspace/hw.x86_64/src/hardware/startup/boards/../../../../install/x86_64/usr/lib\libstartup.a(hwi_alloc.o)
 .eh_frame      0x0000000000000900       0x78 C:/Users/Dell/ide-8.0-workspace/hw.x86_64/src/hardware/startup/boards/../../../../install/x86_64/usr/lib\libstartup.a(hypervisor_setup.o)
 .eh_frame      0x0000000000000978       0x30 C:/Users/Dell/ide-8.0-workspace/hw.x86_64/src/hardware/startup/boards/../../../../install/x86_64/usr/lib\libstartup.a(init_cacheattr.o)
 .eh_frame      0x00000000000009a8       0x80 C:/Users/Dell/ide-8.0-workspace/hw.x86_64/src/hardware/startup/boards/../../../../install/x86_64/usr/lib\libstartup.a(init_cpuinfo.o)
 .eh_frame      0x0000000000000a28       0x60 C:/Users/Dell/ide-8.0-workspace/hw.x86_64/src/hardware/startup/boards/../../../../install/x86_64/usr/lib\libstartup.a(init_hwinfo.o)
 .eh_frame      0x0000000000000a88       0x68 C:/Users/Dell/ide-8.0-workspace/hw.x86_64/src/hardware/startup/boards/../../../../install/x86_64/usr/lib\libstartup.a(init_intrinfo.o)
 .eh_frame      0x0000000000000af0       0x40 C:/Users/Dell/ide-8.0-workspace/hw.x86_64/src/hardware/startup/boards/../../../../install/x86_64/usr/lib\libstartup.a(init_intrinfo_msi.o)
 .eh_frame      0x0000000000000b30       0x48 C:/Users/Dell/ide-8.0-workspace/hw.x86_64/src/hardware/startup/boards/../../../../install/x86_64/usr/lib\libstartup.a(init_mmu.o)
 .eh_frame      0x0000000000000b78       0x38 C:/Users/Dell/ide-8.0-workspace/hw.x86_64/src/hardware/startup/boards/../../../../install/x86_64/usr/lib\libstartup.a(init_qtime.o)
 .eh_frame      0x0000000000000bb0       0x50 C:/Users/Dell/ide-8.0-workspace/hw.x86_64/src/hardware/startup/boards/../../../../install/x86_64/usr/lib\libstartup.a(init_qtime_hpet.o)
 .eh_frame      0x0000000000000c00       0x78 C:/Users/Dell/ide-8.0-workspace/hw.x86_64/src/hardware/startup/boards/../../../../install/x86_64/usr/lib\libstartup.a(init_qtime_lapic.o)
 .eh_frame      0x0000000000000c78       0x68 C:/Users/Dell/ide-8.0-workspace/hw.x86_64/src/hardware/startup/boards/../../../../install/x86_64/usr/lib\libstartup.a(init_raminfo.o)
 .eh_frame      0x0000000000000ce0       0x88 C:/Users/Dell/ide-8.0-workspace/hw.x86_64/src/hardware/startup/boards/../../../../install/x86_64/usr/lib\libstartup.a(init_raminfo_uefi.o)
 .eh_frame      0x0000000000000d68       0x40 C:/Users/Dell/ide-8.0-workspace/hw.x86_64/src/hardware/startup/boards/../../../../install/x86_64/usr/lib\libstartup.a(init_reboot_callout.o)
 .eh_frame      0x0000000000000da8       0xa0 C:/Users/Dell/ide-8.0-workspace/hw.x86_64/src/hardware/startup/boards/../../../../install/x86_64/usr/lib\libstartup.a(init_smp.o)
 .eh_frame      0x0000000000000e48       0x68 C:/Users/Dell/ide-8.0-workspace/hw.x86_64/src/hardware/startup/boards/../../../../install/x86_64/usr/lib\libstartup.a(init_system_private.o)
 .eh_frame      0x0000000000000eb0       0x30 C:/Users/Dell/ide-8.0-workspace/hw.x86_64/src/hardware/startup/boards/../../../../install/x86_64/usr/lib\libstartup.a(intel_microcode_updates.o)
 .eh_frame      0x0000000000000ee0       0x30 C:/Users/Dell/ide-8.0-workspace/hw.x86_64/src/hardware/startup/boards/../../../../install/x86_64/usr/lib\libstartup.a(intel_misc.o)
 .eh_frame      0x0000000000000f10       0x50 C:/Users/Dell/ide-8.0-workspace/hw.x86_64/src/hardware/startup/boards/../../../../install/x86_64/usr/lib\libstartup.a(intel_pxh.o)
 .eh_frame      0x0000000000000f60       0x30 C:/Users/Dell/ide-8.0-workspace/hw.x86_64/src/hardware/startup/boards/../../../../install/x86_64/usr/lib\libstartup.a(invert_timer_freq.o)
 .eh_frame      0x0000000000000f90      0x158 C:/Users/Dell/ide-8.0-workspace/hw.x86_64/src/hardware/startup/boards/../../../../install/x86_64/usr/lib\libstartup.a(ioapic.o)
 .eh_frame      0x00000000000010e8      0x160 C:/Users/Dell/ide-8.0-workspace/hw.x86_64/src/hardware/startup/boards/../../../../install/x86_64/usr/lib\libstartup.a(ioapic_amd.o)
 .eh_frame      0x0000000000001248       0x38 C:/Users/Dell/ide-8.0-workspace/hw.x86_64/src/hardware/startup/boards/../../../../install/x86_64/usr/lib\libstartup.a(ioapic_find.o)
 .eh_frame      0x0000000000001280      0x160 C:/Users/Dell/ide-8.0-workspace/hw.x86_64/src/hardware/startup/boards/../../../../install/x86_64/usr/lib\libstartup.a(ioapic_generic.o)
 .eh_frame      0x00000000000013e0      0x160 C:/Users/Dell/ide-8.0-workspace/hw.x86_64/src/hardware/startup/boards/../../../../install/x86_64/usr/lib\libstartup.a(ioapic_ich.o)
 .eh_frame      0x0000000000001540      0x148 C:/Users/Dell/ide-8.0-workspace/hw.x86_64/src/hardware/startup/boards/../../../../install/x86_64/usr/lib\libstartup.a(ioapic_intsrc_disposition.o)
 .eh_frame      0x0000000000001688      0x160 C:/Users/Dell/ide-8.0-workspace/hw.x86_64/src/hardware/startup/boards/../../../../install/x86_64/usr/lib\libstartup.a(ioapic_ioh.o)
 .eh_frame      0x00000000000017e8       0x30 C:/Users/Dell/ide-8.0-workspace/hw.x86_64/src/hardware/startup/boards/../../../../install/x86_64/usr/lib\libstartup.a(is_uefi_boot.o)
 .eh_frame      0x0000000000001818      0x158 C:/Users/Dell/ide-8.0-workspace/hw.x86_64/src/hardware/startup/boards/../../../../install/x86_64/usr/lib\libstartup.a(itss_misc.o)
 .eh_frame      0x0000000000001970       0x70 C:/Users/Dell/ide-8.0-workspace/hw.x86_64/src/hardware/startup/boards/../../../../install/x86_64/usr/lib\libstartup.a(jtag.o)
 .eh_frame      0x00000000000019e0      0x130 C:/Users/Dell/ide-8.0-workspace/hw.x86_64/src/hardware/startup/boards/../../../../install/x86_64/usr/lib\libstartup.a(kprintf.o)
 .eh_frame      0x0000000000001b10       0x58 C:/Users/Dell/ide-8.0-workspace/hw.x86_64/src/hardware/startup/boards/../../../../install/x86_64/usr/lib\libstartup.a(load_ifs.o)
 .eh_frame      0x0000000000001b68       0x30 C:/Users/Dell/ide-8.0-workspace/hw.x86_64/src/hardware/startup/boards/../../../../install/x86_64/usr/lib\libstartup.a(map_callout_mem.o)
 .eh_frame      0x0000000000001b98       0x70 C:/Users/Dell/ide-8.0-workspace/hw.x86_64/src/hardware/startup/boards/../../../../install/x86_64/usr/lib\libstartup.a(map_startup_mem.o)
 .eh_frame      0x0000000000001c08       0x30 C:/Users/Dell/ide-8.0-workspace/hw.x86_64/src/hardware/startup/boards/../../../../install/x86_64/usr/lib\libstartup.a(memcpy.o)
 .eh_frame      0x0000000000001c38       0x60 C:/Users/Dell/ide-8.0-workspace/hw.x86_64/src/hardware/startup/boards/../../../../install/x86_64/usr/lib\libstartup.a(memfuncs.o)
 .eh_frame      0x0000000000001c98       0x30 C:/Users/Dell/ide-8.0-workspace/hw.x86_64/src/hardware/startup/boards/../../../../install/x86_64/usr/lib\libstartup.a(memmove.o)
 .eh_frame      0x0000000000001cc8       0x60 C:/Users/Dell/ide-8.0-workspace/hw.x86_64/src/hardware/startup/boards/../../../../install/x86_64/usr/lib\libstartup.a(p2sb_misc.o)
 .eh_frame      0x0000000000001d28       0x78 C:/Users/Dell/ide-8.0-workspace/hw.x86_64/src/hardware/startup/boards/../../../../install/x86_64/usr/lib\libstartup.a(pci_known_devs_table.o)
 .eh_frame      0x0000000000001da0      0x220 C:/Users/Dell/ide-8.0-workspace/hw.x86_64/src/hardware/startup/boards/../../../../install/x86_64/usr/lib\libstartup.a(pci_misc.o)
 .eh_frame      0x0000000000001fc0       0x38 C:/Users/Dell/ide-8.0-workspace/hw.x86_64/src/hardware/startup/boards/../../../../install/x86_64/usr/lib\libstartup.a(pci_read_cfg16.o)
 .eh_frame      0x0000000000001ff8       0x38 C:/Users/Dell/ide-8.0-workspace/hw.x86_64/src/hardware/startup/boards/../../../../install/x86_64/usr/lib\libstartup.a(pci_read_cfg32.o)
 .eh_frame      0x0000000000002030       0x38 C:/Users/Dell/ide-8.0-workspace/hw.x86_64/src/hardware/startup/boards/../../../../install/x86_64/usr/lib\libstartup.a(pci_read_cfg8.o)
 .eh_frame      0x0000000000002068       0x68 C:/Users/Dell/ide-8.0-workspace/hw.x86_64/src/hardware/startup/boards/../../../../install/x86_64/usr/lib\libstartup.a(pci_write_cfg16.o)
 .eh_frame      0x00000000000020d0       0x38 C:/Users/Dell/ide-8.0-workspace/hw.x86_64/src/hardware/startup/boards/../../../../install/x86_64/usr/lib\libstartup.a(pci_write_cfg32.o)
 .eh_frame      0x0000000000002108       0x60 C:/Users/Dell/ide-8.0-workspace/hw.x86_64/src/hardware/startup/boards/../../../../install/x86_64/usr/lib\libstartup.a(pci_write_cfg8.o)
 .eh_frame      0x0000000000002168       0x50 C:/Users/Dell/ide-8.0-workspace/hw.x86_64/src/hardware/startup/boards/../../../../install/x86_64/usr/lib\libstartup.a(pcu_misc.o)
 .eh_frame      0x00000000000021b8       0x50 C:/Users/Dell/ide-8.0-workspace/hw.x86_64/src/hardware/startup/boards/../../../../install/x86_64/usr/lib\libstartup.a(piix4_misc.o)
 .eh_frame      0x0000000000002208      0x2e8 C:/Users/Dell/ide-8.0-workspace/hw.x86_64/src/hardware/startup/boards/../../../../install/x86_64/usr/lib\libstartup.a(print_sysp.o)
 .eh_frame      0x00000000000024f0      0x100 C:/Users/Dell/ide-8.0-workspace/hw.x86_64/src/hardware/startup/boards/../../../../install/x86_64/usr/lib\libstartup.a(processor64.o)
 .eh_frame      0x00000000000025f0      0x2e0 C:/Users/Dell/ide-8.0-workspace/hw.x86_64/src/hardware/startup/boards/../../../../install/x86_64/usr/lib\libstartup.a(ram.o)
 .eh_frame      0x00000000000028d0      0x170 C:/Users/Dell/ide-8.0-workspace/hw.x86_64/src/hardware/startup/boards/../../../../install/x86_64/usr/lib\libstartup.a(restore_ifs.o)
 .eh_frame      0x0000000000002a40       0x58 C:/Users/Dell/ide-8.0-workspace/hw.x86_64/src/hardware/startup/boards/../../../../install/x86_64/usr/lib\libstartup.a(sbx00_misc.o)
 .eh_frame      0x0000000000002a98       0x78 C:/Users/Dell/ide-8.0-workspace/hw.x86_64/src/hardware/startup/boards/../../../../install/x86_64/usr/lib\libstartup.a(sch_misc.o)
 .eh_frame      0x0000000000002b10       0x38 C:/Users/Dell/ide-8.0-workspace/hw.x86_64/src/hardware/startup/boards/../../../../install/x86_64/usr/lib\libstartup.a(set_cycles.o)
 .eh_frame      0x0000000000002b48       0x30 C:/Users/Dell/ide-8.0-workspace/hw.x86_64/src/hardware/startup/boards/../../../../install/x86_64/usr/lib\libstartup.a(ssp.o)
 .eh_frame      0x0000000000002b78       0x38 C:/Users/Dell/ide-8.0-workspace/hw.x86_64/src/hardware/startup/boards/../../../../install/x86_64/usr/lib\libstartup.a(startnext.o)
 .eh_frame      0x0000000000002bb0       0x30 C:/Users/Dell/ide-8.0-workspace/hw.x86_64/src/hardware/startup/boards/../../../../install/x86_64/usr/lib\libstartup.a(startup_info.o)
 .eh_frame      0x0000000000002be0      0x140 C:/Users/Dell/ide-8.0-workspace/hw.x86_64/src/hardware/startup/boards/../../../../install/x86_64/usr/lib\libstartup.a(strings.o)
 .eh_frame      0x0000000000002d20       0x58 C:/Users/Dell/ide-8.0-workspace/hw.x86_64/src/hardware/startup/boards/../../../../install/x86_64/usr/lib\libstartup.a(strtoul.o)
 .eh_frame      0x0000000000002d78      0x110 C:/Users/Dell/ide-8.0-workspace/hw.x86_64/src/hardware/startup/boards/../../../../install/x86_64/usr/lib\libstartup.a(syspage_memory.o)
 .eh_frame      0x0000000000002e88       0x30 C:/Users/Dell/ide-8.0-workspace/hw.x86_64/src/hardware/startup/boards/../../../../install/x86_64/usr/lib\libstartup.a(tweak_cmdline.o)
 .eh_frame      0x0000000000002eb8       0xc8 C:/Users/Dell/ide-8.0-workspace/hw.x86_64/src/hardware/startup/boards/../../../../install/x86_64/usr/lib\libstartup.a(uefi.o)
 .eh_frame      0x0000000000002f80       0x38 C:/Users/Dell/ide-8.0-workspace/hw.x86_64/src/hardware/startup/boards/../../../../install/x86_64/usr/lib\libstartup.a(uefi_init.o)
 .eh_frame      0x0000000000002fb8       0xb8 C:/Users/Dell/ide-8.0-workspace/hw.x86_64/src/hardware/startup/boards/../../../../install/x86_64/usr/lib\libstartup.a(uefi_io.o)
 .eh_frame      0x0000000000003070       0x30 C:/Users/Dell/ide-8.0-workspace/hw.x86_64/src/hardware/startup/boards/../../../../install/x86_64/usr/lib\libstartup.a(ultoa_end.o)
 .eh_frame      0x00000000000030a0       0x58 C:/Users/Dell/ide-8.0-workspace/hw.x86_64/src/hardware/startup/boards/../../../../install/x86_64/usr/lib\libstartup.a(uncompress.o)
 .eh_frame      0x00000000000030f8       0x50 C:/Users/Dell/ide-8.0-workspace/hw.x86_64/src/hardware/startup/boards/../../../../install/x86_64/usr/lib\libstartup.a(uncompress_ucl.o)
 .eh_frame      0x0000000000003148       0x30 C:/Users/Dell/ide-8.0-workspace/hw.x86_64/src/hardware/startup/boards/../../../../install/x86_64/usr/lib\libstartup.a(x86_64_pcbios_shadow.o)
 .eh_frame      0x0000000000003178       0xb8 C:/Users/Dell/ide-8.0-workspace/hw.x86_64/src/hardware/startup/boards/../../../../install/x86_64/usr/lib\libstartup.a(acpi.o)
 .eh_frame      0x0000000000003230       0xb0 C:/Users/Dell/ide-8.0-workspace/hw.x86_64/src/hardware/startup/boards/../../../../install/x86_64/usr/lib\libstartup.a(acpi_ioapic.o)
 .eh_frame      0x00000000000032e0       0xc0 C:/Users/Dell/ide-8.0-workspace/hw.x86_64/src/hardware/startup/boards/../../../../install/x86_64/usr/lib\libstartup.a(add_interrupt.o)
 .eh_frame      0x00000000000033a0       0x40 C:/Users/Dell/ide-8.0-workspace/hw.x86_64/src/hardware/startup/boards/../../../../install/x86_64/usr/lib\libstartup.a(alloc_qtime.o)
 .eh_frame      0x00000000000033e0       0x68 C:/Users/Dell/ide-8.0-workspace/hw.x86_64/src/hardware/startup/boards/../../../../install/x86_64/usr/lib\libstartup.a(amd_misc.o)
 .eh_frame      0x0000000000003448       0x30 C:/Users/Dell/ide-8.0-workspace/hw.x86_64/src/hardware/startup/boards/../../../../install/x86_64/usr/lib\libstartup.a(ap_fail.o)
 .eh_frame      0x0000000000003478       0x78 C:/Users/Dell/ide-8.0-workspace/hw.x86_64/src/hardware/startup/boards/../../../../install/x86_64/usr/lib\libstartup.a(apic_io_intr.o)
 .eh_frame      0x00000000000034f0       0x60 C:/Users/Dell/ide-8.0-workspace/hw.x86_64/src/hardware/startup/boards/../../../../install/x86_64/usr/lib\libstartup.a(apic_local_intr.o)
 .eh_frame      0x0000000000003550       0x90 C:/Users/Dell/ide-8.0-workspace/hw.x86_64/src/hardware/startup/boards/../../../../install/x86_64/usr/lib\libstartup.a(apic_paddr.o)
 .eh_frame      0x00000000000035e0       0x30 C:/Users/Dell/ide-8.0-workspace/hw.x86_64/src/hardware/startup/boards/../../../../install/x86_64/usr/lib\libstartup.a(as_add.o)
 .eh_frame      0x0000000000003610       0x68 C:/Users/Dell/ide-8.0-workspace/hw.x86_64/src/hardware/startup/boards/../../../../install/x86_64/usr/lib\libstartup.a(as_add64.o)
 .eh_frame      0x0000000000003678       0x50 C:/Users/Dell/ide-8.0-workspace/hw.x86_64/src/hardware/startup/boards/../../../../install/x86_64/usr/lib\libstartup.a(as_add_containing.o)
 .eh_frame      0x00000000000036c8       0x30 C:/Users/Dell/ide-8.0-workspace/hw.x86_64/src/hardware/startup/boards/../../../../install/x86_64/usr/lib\libstartup.a(as_default.o)
 .eh_frame      0x00000000000036f8       0x48 C:/Users/Dell/ide-8.0-workspace/hw.x86_64/src/hardware/startup/boards/../../../../install/x86_64/usr/lib\libstartup.a(as_find.o)
 .eh_frame      0x0000000000003740       0x80 C:/Users/Dell/ide-8.0-workspace/hw.x86_64/src/hardware/startup/boards/../../../../install/x86_64/usr/lib\libstartup.a(as_find_containing.o)
 .eh_frame      0x00000000000037c0       0x30 C:/Users/Dell/ide-8.0-workspace/hw.x86_64/src/hardware/startup/boards/../../../../install/x86_64/usr/lib\libstartup.a(as_off2info.o)
 .eh_frame      0x00000000000037f0       0x38 C:/Users/Dell/ide-8.0-workspace/hw.x86_64/src/hardware/startup/boards/../../../../install/x86_64/usr/lib\libstartup.a(board_find_acpi_rsdp.o)
 .eh_frame      0x0000000000003828       0x88 C:/Users/Dell/ide-8.0-workspace/hw.x86_64/src/hardware/startup/boards/../../../../install/x86_64/usr/lib\libstartup.a(board_find_acpi_rsdp_bios.o)
 .eh_frame      0x00000000000038b0       0x48 C:/Users/Dell/ide-8.0-workspace/hw.x86_64/src/hardware/startup/boards/../../../../install/x86_64/usr/lib\libstartup.a(board_find_acpi_rsdp_uefi.o)
 .eh_frame      0x00000000000038f8       0x78 C:/Users/Dell/ide-8.0-workspace/hw.x86_64/src/hardware/startup/boards/../../../../install/x86_64/usr/lib\libstartup.a(board_smp.o)
 .eh_frame      0x0000000000003970       0xe0 C:/Users/Dell/ide-8.0-workspace/hw.x86_64/src/hardware/startup/boards/../../../../install/x86_64/usr/lib\libstartup.a(board_sysctl.o)
 .eh_frame      0x0000000000003a50       0x30 C:/Users/Dell/ide-8.0-workspace/hw.x86_64/src/hardware/startup/boards/../../../../install/x86_64/usr/lib\libstartup.a(calc_cksum.o)
 .eh_frame      0x0000000000003a80       0x30 C:/Users/Dell/ide-8.0-workspace/hw.x86_64/src/hardware/startup/boards/../../../../install/x86_64/usr/lib\libstartup.a(callout_apstart.o)
 .eh_frame      0x0000000000003ab0       0xf8 C:/Users/Dell/ide-8.0-workspace/hw.x86_64/src/hardware/startup/boards/../../../../install/x86_64/usr/lib\libstartup.a(callout_interrupt_apic.o)
 .eh_frame      0x0000000000003ba8       0x80 C:/Users/Dell/ide-8.0-workspace/hw.x86_64/src/hardware/startup/boards/../../../../install/x86_64/usr/lib\libstartup.a(callout_interrupt_ioapic.o)
 .eh_frame      0x0000000000003c28       0x30 C:/Users/Dell/ide-8.0-workspace/hw.x86_64/src/hardware/startup/boards/../../../../install/x86_64/usr/lib\libstartup.a(callout_reboot.o)
 .eh_frame      0x0000000000003c58      0x1a0 C:/Users/Dell/ide-8.0-workspace/hw.x86_64/src/hardware/startup/boards/../../../../install/x86_64/usr/lib\libstartup.a(callouts.o)
 .eh_frame      0x0000000000003df8       0xc8 C:/Users/Dell/ide-8.0-workspace/hw.x86_64/src/hardware/startup/boards/../../../../install/x86_64/usr/lib\libstartup.a(chip_access.o)
 .eh_frame      0x0000000000003ec0      0x170 C:/Users/Dell/ide-8.0-workspace/hw.x86_64/src/hardware/startup/boards/../../../../install/x86_64/usr/lib\libstartup.a(cpu_family_clock.o)
 .eh_frame      0x0000000000004030       0x60 C:/Users/Dell/ide-8.0-workspace/hw.x86_64/src/hardware/startup/boards/../../../../install/x86_64/usr/lib\libstartup.a(cpu_family_model.o)
 .eh_frame      0x0000000000004090       0x68 C:/Users/Dell/ide-8.0-workspace/hw.x86_64/src/hardware/startup/boards/../../../../install/x86_64/usr/lib\libstartup.a(cpu_id.o)
 .eh_frame      0x00000000000040f8       0x48 C:/Users/Dell/ide-8.0-workspace/hw.x86_64/src/hardware/startup/boards/../../../../install/x86_64/usr/lib\libstartup.a(cpu_startnext.o)
 .eh_frame      0x0000000000004140       0xa0 C:/Users/Dell/ide-8.0-workspace/hw.x86_64/src/hardware/startup/boards/../../../../install/x86_64/usr/lib\libstartup.a(cpu_syspage_memory.o)
 .eh_frame      0x00000000000041e0       0xa8 C:/Users/Dell/ide-8.0-workspace/hw.x86_64/src/hardware/startup/boards/../../../../install/x86_64/usr/lib\libstartup.a(cpu_tsc.o)
 .eh_frame      0x0000000000004288       0x60 C:/Users/Dell/ide-8.0-workspace/hw.x86_64/src/hardware/startup/boards/../../../../install/x86_64/usr/lib\libstartup.a(cpu_tweak_cmdline.o)
 .eh_frame      0x00000000000042e8       0x30 C:/Users/Dell/ide-8.0-workspace/hw.x86_64/src/hardware/startup/boards/../../../../install/x86_64/usr/lib\libstartup.a(crash_done.o)
 .eh_frame      0x0000000000004318       0x30 C:/Users/Dell/ide-8.0-workspace/hw.x86_64/src/hardware/startup/boards/../../../../install/x86_64/usr/lib\libstartup.a(dummy_print_char.o)
 .eh_frame      0x0000000000004348       0x98 C:/Users/Dell/ide-8.0-workspace/hw.x86_64/src/hardware/startup/boards/../../../../install/x86_64/usr/lib\libstartup.a(elf.o)
 .eh_frame      0x00000000000043e0       0x68 C:/Users/Dell/ide-8.0-workspace/hw.x86_64/src/hardware/startup/boards/../../../../install/x86_64/usr/lib\libstartup.a(elf32.o)
 .eh_frame      0x0000000000004448       0x68 C:/Users/Dell/ide-8.0-workspace/hw.x86_64/src/hardware/startup/boards/../../../../install/x86_64/usr/lib\libstartup.a(elf64.o)
 .eh_frame      0x00000000000044b0       0x88 C:/Users/Dell/ide-8.0-workspace/hw.x86_64/src/hardware/startup/boards/../../../../install/x86_64/usr/lib\libstartup.a(elf_map.o)
 .eh_frame      0x0000000000004538       0x70 C:/Users/Dell/ide-8.0-workspace/hw.x86_64/src/hardware/startup/boards/../../../../install/x86_64/usr/lib\libstartup.a(find_ecam_base.o)
 .eh_frame      0x00000000000045a8       0x40 C:/Users/Dell/ide-8.0-workspace/hw.x86_64/src/hardware/startup/boards/../../../../install/x86_64/usr/lib\libstartup.a(find_top_intr.o)
 .eh_frame      0x00000000000045e8       0x98 C:/Users/Dell/ide-8.0-workspace/hw.x86_64/src/hardware/startup/boards/../../../../install/x86_64/usr/lib\libstartup.a(hv_guest.o)
 .eh_frame      0x0000000000004680       0x90 C:/Users/Dell/ide-8.0-workspace/hw.x86_64/src/hardware/startup/boards/../../../../install/x86_64/usr/lib\libstartup.a(hw_cpuid_string.o)
 .eh_frame      0x0000000000004710       0x48 C:/Users/Dell/ide-8.0-workspace/hw.x86_64/src/hardware/startup/boards/../../../../install/x86_64/usr/lib\libstartup.a(hw_cpuspeed.o)
 .eh_frame      0x0000000000004758       0x58 C:/Users/Dell/ide-8.0-workspace/hw.x86_64/src/hardware/startup/boards/../../../../install/x86_64/usr/lib\libstartup.a(hw_scanmem.o)
 .eh_frame      0x00000000000047b0       0x58 C:/Users/Dell/ide-8.0-workspace/hw.x86_64/src/hardware/startup/boards/../../../../install/x86_64/usr/lib\libstartup.a(hwi_add_device.o)
 .eh_frame      0x0000000000004808       0x30 C:/Users/Dell/ide-8.0-workspace/hw.x86_64/src/hardware/startup/boards/../../../../install/x86_64/usr/lib\libstartup.a(hwi_add_irq.o)
 .eh_frame      0x0000000000004838       0x30 C:/Users/Dell/ide-8.0-workspace/hw.x86_64/src/hardware/startup/boards/../../../../install/x86_64/usr/lib\libstartup.a(hwi_add_location.o)
 .eh_frame      0x0000000000004868       0x30 C:/Users/Dell/ide-8.0-workspace/hw.x86_64/src/hardware/startup/boards/../../../../install/x86_64/usr/lib\libstartup.a(hwi_default.o)
 .eh_frame      0x0000000000004898       0x30 C:/Users/Dell/ide-8.0-workspace/hw.x86_64/src/hardware/startup/boards/../../../../install/x86_64/usr/lib\libstartup.a(hwi_find_as.o)
 .eh_frame      0x00000000000048c8       0x50 C:/Users/Dell/ide-8.0-workspace/hw.x86_64/src/hardware/startup/boards/../../../../install/x86_64/usr/lib\libstartup.a(hwidev_add.o)
 .eh_frame      0x0000000000004918       0x38 C:/Users/Dell/ide-8.0-workspace/hw.x86_64/src/hardware/startup/boards/../../../../install/x86_64/usr/lib\libstartup.a(hwitag_add_irq.o)
 .eh_frame      0x0000000000004950       0x50 C:/Users/Dell/ide-8.0-workspace/hw.x86_64/src/hardware/startup/boards/../../../../install/x86_64/usr/lib\libstartup.a(hwitag_add_location.o)
 .eh_frame      0x00000000000049a0       0x68 C:/Users/Dell/ide-8.0-workspace/hw.x86_64/src/hardware/startup/boards/../../../../install/x86_64/usr/lib\libstartup.a(hypervisor.o)
 .eh_frame      0x0000000000004a08       0xe0 C:/Users/Dell/ide-8.0-workspace/hw.x86_64/src/hardware/startup/boards/../../../../install/x86_64/usr/lib\libstartup.a(ich_misc.o)
 .eh_frame      0x0000000000004ae8       0x98 C:/Users/Dell/ide-8.0-workspace/hw.x86_64/src/hardware/startup/boards/../../../../install/x86_64/usr/lib\libstartup.a(imps.o)
 .eh_frame      0x0000000000004b80      0x130 C:/Users/Dell/ide-8.0-workspace/hw.x86_64/src/hardware/startup/boards/../../../../install/x86_64/usr/lib\libstartup.a(imps_ioapic.o)
 .eh_frame      0x0000000000004cb0       0x60 C:/Users/Dell/ide-8.0-workspace/hw.x86_64/src/hardware/startup/boards/../../../../install/x86_64/usr/lib\libstartup.a(imps_smp.o)
 .eh_frame      0x0000000000004d10       0x38 C:/Users/Dell/ide-8.0-workspace/hw.x86_64/src/hardware/startup/boards/../../../../install/x86_64/usr/lib\libstartup.a(init_asinfo.o)
 .eh_frame      0x0000000000004d48       0x40 C:/Users/Dell/ide-8.0-workspace/hw.x86_64/src/hardware/startup/boards/../../../../install/x86_64/usr/lib\libstartup.a(init_gdt.o)
 .eh_frame      0x0000000000004d88       0x30 C:/Users/Dell/ide-8.0-workspace/hw.x86_64/src/hardware/startup/boards/../../../../install/x86_64/usr/lib\libstartup.a(init_mitigation_mem.o)
 .eh_frame      0x0000000000004db8       0x80 C:/Users/Dell/ide-8.0-workspace/hw.x86_64/src/hardware/startup/boards/../../../../install/x86_64/usr/lib\libstartup.a(ioapic_auto_config.o)
 .eh_frame      0x0000000000004e38       0x68 C:/Users/Dell/ide-8.0-workspace/hw.x86_64/src/hardware/startup/boards/../../../../install/x86_64/usr/lib\libstartup.a(ioapic_default_configs.o)
 .eh_frame      0x0000000000004ea0       0x40 C:/Users/Dell/ide-8.0-workspace/hw.x86_64/src/hardware/startup/boards/../../../../install/x86_64/usr/lib\libstartup.a(map_startup_io.o)
 .eh_frame      0x0000000000004ee0       0x30 C:/Users/Dell/ide-8.0-workspace/hw.x86_64/src/hardware/startup/boards/../../../../install/x86_64/usr/lib\libstartup.a(rtc_time.o)
 .eh_frame      0x0000000000004f10       0x38 C:/Users/Dell/ide-8.0-workspace/hw.x86_64/src/hardware/startup/boards/../../../../install/x86_64/usr/lib\libstartup.a(timer_ns2tick.o)
 .eh_frame      0x0000000000004f48       0x30 C:/Users/Dell/ide-8.0-workspace/hw.x86_64/src/hardware/startup/boards/../../../../install/x86_64/usr/lib\libstartup.a(timer_tick2ns.o)
 .eh_frame      0x0000000000004f78       0x68 C:/Users/Dell/ide-8.0-workspace/hw.x86_64/src/hardware/startup/boards/../../../../install/x86_64/usr/lib\libstartup.a(acpi_smp.o)
 .eh_frame      0x0000000000004fe0       0xb8 C:/Users/Dell/ide-8.0-workspace/hw.x86_64/src/hardware/startup/boards/../../../../install/x86_64/usr/lib\libstartup.a(apic_smp.o)
 .eh_frame      0x0000000000005098       0xa8 C:/Users/Dell/ide-8.0-workspace/hw.x86_64/src/hardware/startup/boards/../../../../install/x86_64/usr/lib\libstartup.a(bootstrap_cmdline.o)
 .eh_frame      0x0000000000005140       0x58 C:/Users/Dell/ide-8.0-workspace/hw.x86_64/src/hardware/startup/boards/../../../../install/x86_64/usr/lib\libstartup.a(hw_rtc_mc146818.o)
 .eh_frame      0x0000000000005198       0x58 C:/Users/Dell/ide-8.0-workspace/hw.x86_64/src/hardware/startup/boards/../../../../install/x86_64/usr/lib\libstartup.a(hwi_add_rtc.o)
 .eh_frame      0x00000000000051f0       0x30 C:/Users/Dell/ide-8.0-workspace/hw.x86_64/src/hardware/startup/boards/../../../../install/x86_64/usr/lib\libstartup.a(16apstart.o)
 .eh_frame      0x0000000000005220       0x30 C:/Users/Dell/ide-8.0-workspace/hw.x86_64/src/hardware/startup/boards/../../../../install/x86_64/usr/lib\libstartup.a(bcd2bin.o)
 .eh_frame      0x0000000000005250       0x30 C:/Users/Dell/ide-8.0-workspace/hw.x86_64/src/hardware/startup/boards/../../../../install/x86_64/usr/lib\libstartup.a(calc_time_t.o)
 .eh_frame      0x0000000000005280       0xa0 C:/Users/Dell/qnx800/target/qnx/x86_64/usr/lib\libucl.a(n2b_d.o)
 .eh_frame      0x0000000000005320       0x68 C:/Users/Dell/qnx800/target/qnx/x86_64/lib\libc.a(hwi_find_item.o)
 .eh_frame      0x0000000000005388       0x38 C:/Users/Dell/qnx800/target/qnx/x86_64/lib\libc.a(hwi_off2tag.o)
 .eh_frame      0x00000000000053c0       0x38 C:/Users/Dell/qnx800/target/qnx/x86_64/lib\libc.a(hwi_tag2off.o)
 .eh_frame      0x00000000000053f8       0x30 C:/Users/Dell/qnx800/target/qnx/x86_64/lib\libc.a(memcmp.o)
 .eh_frame      0x0000000000005428       0x30 C:/Users/Dell/qnx800/target/qnx/x86_64/lib\libc.a(memset.o)
 .eh_frame      0x0000000000005458       0x30 C:/Users/Dell/qnx800/target/qnx/x86_64/lib\libc.a(strcasecmp.o)
 .eh_frame      0x0000000000005488       0x30 C:/Users/Dell/qnx800/target/qnx/x86_64/lib\libc.a(strchr.o)
 .eh_frame      0x00000000000054b8       0x30 C:/Users/Dell/qnx800/target/qnx/x86_64/lib\libc.a(strcmp.o)
 .eh_frame      0x00000000000054e8       0x30 C:/Users/Dell/qnx800/target/qnx/x86_64/lib\libc.a(strlcpy.o)
 .eh_frame      0x0000000000005518       0x30 C:/Users/Dell/qnx800/target/qnx/x86_64/lib\libc.a(strlen.o)
 .eh_frame      0x0000000000005548       0x70 C:/Users/Dell/qnx800/target/qnx/x86_64/lib\libc.a(strstr.o)
 .eh_frame      0x00000000000055b8       0x50 C:/Users/Dell/qnx800/target/qnx/x86_64/lib\libc.a(__progname.o)
 .eh_frame      0x0000000000005608       0xe0 C:/Users/Dell/qnx800/target/qnx/x86_64/lib\libc.a(_ssp.o)
 .eh_frame      0x00000000000056e8       0x38 C:/Users/Dell/qnx800/target/qnx/x86_64/lib\libc.a(xtolotab.o)
 .eh_frame      0x0000000000005720       0x30 C:/Users/Dell/qnx800/target/qnx/x86_64/lib\libc.a(strncasecmp.o)
 .eh_frame      0x0000000000005750       0x30 C:/Users/Dell/qnx800/target/qnx/x86_64/lib\libc.a(strncmp.o)
 .eh_frame      0x0000000000005780       0x2c C:/Users/Dell/qnx800/target/qnx/x86_64/lib\libc.a(strrchr.o)
                                         0x30 (size before relaxing)

.sframe
 *(.sframe)

.gcc_except_table
 *(.gcc_except_table)

.gnu_extab
 *(.gnu_extab*)

.exception_ranges
 *(.exception_ranges)

.eh_frame
 *(.eh_frame)

.sframe
 *(.sframe)

.gnu_extab
 *(.gnu_extab)

.gcc_except_table
 *(.gcc_except_table)

.exception_ranges
 *(.exception_ranges)

.tdata
 *(.tdata)

.tbss
 *(.tbss)

.jcr
 *(.jcr)

.dynamic
 *(.dynamic)

.got
 *(.got)

.got.plt
 *(.got.plt)

.data           0x0000000000000000     0x1d80
 *(.data)
 .data          0x0000000000000000        0x0 main.o
 .data          0x0000000000000000       0x20 C:/Users/Dell/ide-8.0-workspace/hw.x86_64/src/hardware/startup/boards/../../../../install/x86_64/usr/lib\libstartup.a(_main.o)
                0x0000000000000000                smp_hook_rtn
                0x0000000000000008                first_bootstrap_start_vaddr
                0x0000000000000010                system_dcache_idx
                0x0000000000000014                system_icache_idx
                0x0000000000000018                max_cpus
                0x000000000000001c                paddr_bits
 .data          0x0000000000000020        0x0 C:/Users/Dell/ide-8.0-workspace/hw.x86_64/src/hardware/startup/boards/../../../../install/x86_64/usr/lib\libstartup.a(board_init.o)
 .data          0x0000000000000020        0x0 C:/Users/Dell/ide-8.0-workspace/hw.x86_64/src/hardware/startup/boards/../../../../install/x86_64/usr/lib\libstartup.a(callout_debug_8250.o)
 .data          0x0000000000000020        0x0 C:/Users/Dell/ide-8.0-workspace/hw.x86_64/src/hardware/startup/boards/../../../../install/x86_64/usr/lib\libstartup.a(callout_debug_con.o)
 .data          0x0000000000000020        0x0 C:/Users/Dell/ide-8.0-workspace/hw.x86_64/src/hardware/startup/boards/../../../../install/x86_64/usr/lib\libstartup.a(callout_debug_dummy.o)
 .data          0x0000000000000020        0x0 C:/Users/Dell/ide-8.0-workspace/hw.x86_64/src/hardware/startup/boards/../../../../install/x86_64/usr/lib\libstartup.a(common_options.o)
 .data          0x0000000000000020        0x0 C:/Users/Dell/ide-8.0-workspace/hw.x86_64/src/hardware/startup/boards/../../../../install/x86_64/usr/lib\libstartup.a(cpu_cluster_add.o)
 .data          0x0000000000000020        0x0 C:/Users/Dell/ide-8.0-workspace/hw.x86_64/src/hardware/startup/boards/../../../../install/x86_64/usr/lib\libstartup.a(cpu_common_options.o)
 .data          0x0000000000000020        0x4 C:/Users/Dell/ide-8.0-workspace/hw.x86_64/src/hardware/startup/boards/../../../../install/x86_64/usr/lib\libstartup.a(cpu_startup.o)
                0x0000000000000020                meltdown_active
 .data          0x0000000000000024        0x0 C:/Users/Dell/ide-8.0-workspace/hw.x86_64/src/hardware/startup/boards/../../../../install/x86_64/usr/lib\libstartup.a(cstart64.o)
 .data          0x0000000000000024        0x0 C:/Users/Dell/ide-8.0-workspace/hw.x86_64/src/hardware/startup/boards/../../../../install/x86_64/usr/lib\libstartup.a(debug.o)
 .data          0x0000000000000024        0x0 C:/Users/Dell/ide-8.0-workspace/hw.x86_64/src/hardware/startup/boards/../../../../install/x86_64/usr/lib\libstartup.a(early_setup.o)
 .data          0x0000000000000024        0x0 C:/Users/Dell/ide-8.0-workspace/hw.x86_64/src/hardware/startup/boards/../../../../install/x86_64/usr/lib\libstartup.a(entry_32prot.o)
 .data          0x0000000000000024        0x0 C:/Users/Dell/ide-8.0-workspace/hw.x86_64/src/hardware/startup/boards/../../../../install/x86_64/usr/lib\libstartup.a(getopt.o)
 .data          0x0000000000000024        0x0 C:/Users/Dell/ide-8.0-workspace/hw.x86_64/src/hardware/startup/boards/../../../../install/x86_64/usr/lib\libstartup.a(getsize.o)
 .data          0x0000000000000024        0x0 C:/Users/Dell/ide-8.0-workspace/hw.x86_64/src/hardware/startup/boards/../../../../install/x86_64/usr/lib\libstartup.a(hw_cputype.o)
 .data          0x0000000000000024        0x0 C:/Users/Dell/ide-8.0-workspace/hw.x86_64/src/hardware/startup/boards/../../../../install/x86_64/usr/lib\libstartup.a(hw_ser8250.o)
 .data          0x0000000000000024        0x0 C:/Users/Dell/ide-8.0-workspace/hw.x86_64/src/hardware/startup/boards/../../../../install/x86_64/usr/lib\libstartup.a(hw_ser8250_pci.o)
 .data          0x0000000000000024        0x0 C:/Users/Dell/ide-8.0-workspace/hw.x86_64/src/hardware/startup/boards/../../../../install/x86_64/usr/lib\libstartup.a(hw_vgaout32.o)
 .data          0x0000000000000024        0x0 C:/Users/Dell/ide-8.0-workspace/hw.x86_64/src/hardware/startup/boards/../../../../install/x86_64/usr/lib\libstartup.a(hwi_add_nanospin.o)
 .data          0x0000000000000024        0x0 C:/Users/Dell/ide-8.0-workspace/hw.x86_64/src/hardware/startup/boards/../../../../install/x86_64/usr/lib\libstartup.a(hwi_alloc.o)
 .data          0x0000000000000024        0x0 C:/Users/Dell/ide-8.0-workspace/hw.x86_64/src/hardware/startup/boards/../../../../install/x86_64/usr/lib\libstartup.a(hypervisor_setup.o)
 .data          0x0000000000000024        0x0 C:/Users/Dell/ide-8.0-workspace/hw.x86_64/src/hardware/startup/boards/../../../../install/x86_64/usr/lib\libstartup.a(init_cacheattr.o)
 .data          0x0000000000000024        0x0 C:/Users/Dell/ide-8.0-workspace/hw.x86_64/src/hardware/startup/boards/../../../../install/x86_64/usr/lib\libstartup.a(init_cpuinfo.o)
 .data          0x0000000000000024        0x0 C:/Users/Dell/ide-8.0-workspace/hw.x86_64/src/hardware/startup/boards/../../../../install/x86_64/usr/lib\libstartup.a(init_hwinfo.o)
 .data          0x0000000000000024        0x0 C:/Users/Dell/ide-8.0-workspace/hw.x86_64/src/hardware/startup/boards/../../../../install/x86_64/usr/lib\libstartup.a(init_intrinfo.o)
 *fill*         0x0000000000000024       0x1c 
 .data          0x0000000000000040       0x60 C:/Users/Dell/ide-8.0-workspace/hw.x86_64/src/hardware/startup/boards/../../../../install/x86_64/usr/lib\libstartup.a(init_intrinfo_msi.o)
 .data          0x00000000000000a0        0x0 C:/Users/Dell/ide-8.0-workspace/hw.x86_64/src/hardware/startup/boards/../../../../install/x86_64/usr/lib\libstartup.a(init_mmu.o)
 .data          0x00000000000000a0        0x0 C:/Users/Dell/ide-8.0-workspace/hw.x86_64/src/hardware/startup/boards/../../../../install/x86_64/usr/lib\libstartup.a(init_qtime.o)
 .data          0x00000000000000a0        0x8 C:/Users/Dell/ide-8.0-workspace/hw.x86_64/src/hardware/startup/boards/../../../../install/x86_64/usr/lib\libstartup.a(init_qtime_hpet.o)
 .data          0x00000000000000a8        0x0 C:/Users/Dell/ide-8.0-workspace/hw.x86_64/src/hardware/startup/boards/../../../../install/x86_64/usr/lib\libstartup.a(init_qtime_lapic.o)
 .data          0x00000000000000a8        0x0 C:/Users/Dell/ide-8.0-workspace/hw.x86_64/src/hardware/startup/boards/../../../../install/x86_64/usr/lib\libstartup.a(init_raminfo.o)
 .data          0x00000000000000a8        0x0 C:/Users/Dell/ide-8.0-workspace/hw.x86_64/src/hardware/startup/boards/../../../../install/x86_64/usr/lib\libstartup.a(init_raminfo_uefi.o)
 .data          0x00000000000000a8        0x0 C:/Users/Dell/ide-8.0-workspace/hw.x86_64/src/hardware/startup/boards/../../../../install/x86_64/usr/lib\libstartup.a(init_reboot_callout.o)
 .data          0x00000000000000a8        0x0 C:/Users/Dell/ide-8.0-workspace/hw.x86_64/src/hardware/startup/boards/../../../../install/x86_64/usr/lib\libstartup.a(init_smp.o)
 .data          0x00000000000000a8        0x0 C:/Users/Dell/ide-8.0-workspace/hw.x86_64/src/hardware/startup/boards/../../../../install/x86_64/usr/lib\libstartup.a(init_system_private.o)
 .data          0x00000000000000a8        0x0 C:/Users/Dell/ide-8.0-workspace/hw.x86_64/src/hardware/startup/boards/../../../../install/x86_64/usr/lib\libstartup.a(intel_microcode_updates.o)
 .data          0x00000000000000a8        0x0 C:/Users/Dell/ide-8.0-workspace/hw.x86_64/src/hardware/startup/boards/../../../../install/x86_64/usr/lib\libstartup.a(intel_misc.o)
 .data          0x00000000000000a8        0x0 C:/Users/Dell/ide-8.0-workspace/hw.x86_64/src/hardware/startup/boards/../../../../install/x86_64/usr/lib\libstartup.a(intel_pxh.o)
 .data          0x00000000000000a8        0x0 C:/Users/Dell/ide-8.0-workspace/hw.x86_64/src/hardware/startup/boards/../../../../install/x86_64/usr/lib\libstartup.a(invert_timer_freq.o)
 .data          0x00000000000000a8        0x4 C:/Users/Dell/ide-8.0-workspace/hw.x86_64/src/hardware/startup/boards/../../../../install/x86_64/usr/lib\libstartup.a(ioapic.o)
 *fill*         0x00000000000000ac       0x14 
 .data          0x00000000000000c0       0x40 C:/Users/Dell/ide-8.0-workspace/hw.x86_64/src/hardware/startup/boards/../../../../install/x86_64/usr/lib\libstartup.a(ioapic_amd.o)
                0x00000000000000c0                ioapic_accessfncs_amd
 .data          0x0000000000000100        0x0 C:/Users/Dell/ide-8.0-workspace/hw.x86_64/src/hardware/startup/boards/../../../../install/x86_64/usr/lib\libstartup.a(ioapic_find.o)
 .data          0x0000000000000100       0x40 C:/Users/Dell/ide-8.0-workspace/hw.x86_64/src/hardware/startup/boards/../../../../install/x86_64/usr/lib\libstartup.a(ioapic_generic.o)
                0x0000000000000100                ioapic_accessfncs_generic
 .data          0x0000000000000140       0x40 C:/Users/Dell/ide-8.0-workspace/hw.x86_64/src/hardware/startup/boards/../../../../install/x86_64/usr/lib\libstartup.a(ioapic_ich.o)
                0x0000000000000140                ioapic_accessfncs_ich
 .data          0x0000000000000180        0x0 C:/Users/Dell/ide-8.0-workspace/hw.x86_64/src/hardware/startup/boards/../../../../install/x86_64/usr/lib\libstartup.a(ioapic_intsrc_disposition.o)
 .data          0x0000000000000180       0x40 C:/Users/Dell/ide-8.0-workspace/hw.x86_64/src/hardware/startup/boards/../../../../install/x86_64/usr/lib\libstartup.a(ioapic_ioh.o)
                0x0000000000000180                ioapic_accessfncs_ioh
 .data          0x00000000000001c0        0x4 C:/Users/Dell/ide-8.0-workspace/hw.x86_64/src/hardware/startup/boards/../../../../install/x86_64/usr/lib\libstartup.a(is_uefi_boot.o)
 *fill*         0x00000000000001c4        0x4 
 .data          0x00000000000001c8        0x8 C:/Users/Dell/ide-8.0-workspace/hw.x86_64/src/hardware/startup/boards/../../../../install/x86_64/usr/lib\libstartup.a(itss_misc.o)
 .data          0x00000000000001d0        0x8 C:/Users/Dell/ide-8.0-workspace/hw.x86_64/src/hardware/startup/boards/../../../../install/x86_64/usr/lib\libstartup.a(jtag.o)
 .data          0x00000000000001d8        0x8 C:/Users/Dell/ide-8.0-workspace/hw.x86_64/src/hardware/startup/boards/../../../../install/x86_64/usr/lib\libstartup.a(kprintf.o)
 .data          0x00000000000001e0        0x0 C:/Users/Dell/ide-8.0-workspace/hw.x86_64/src/hardware/startup/boards/../../../../install/x86_64/usr/lib\libstartup.a(load_ifs.o)
 .data          0x00000000000001e0        0x0 C:/Users/Dell/ide-8.0-workspace/hw.x86_64/src/hardware/startup/boards/../../../../install/x86_64/usr/lib\libstartup.a(map_callout_mem.o)
 .data          0x00000000000001e0        0x4 C:/Users/Dell/ide-8.0-workspace/hw.x86_64/src/hardware/startup/boards/../../../../install/x86_64/usr/lib\libstartup.a(map_startup_mem.o)
 .data          0x00000000000001e4        0x0 C:/Users/Dell/ide-8.0-workspace/hw.x86_64/src/hardware/startup/boards/../../../../install/x86_64/usr/lib\libstartup.a(memcpy.o)
 .data          0x00000000000001e4        0x0 C:/Users/Dell/ide-8.0-workspace/hw.x86_64/src/hardware/startup/boards/../../../../install/x86_64/usr/lib\libstartup.a(memfuncs.o)
 .data          0x00000000000001e4        0x0 C:/Users/Dell/ide-8.0-workspace/hw.x86_64/src/hardware/startup/boards/../../../../install/x86_64/usr/lib\libstartup.a(memmove.o)
 .data          0x00000000000001e4        0x4 C:/Users/Dell/ide-8.0-workspace/hw.x86_64/src/hardware/startup/boards/../../../../install/x86_64/usr/lib\libstartup.a(p2sb_misc.o)
 .data          0x00000000000001e8        0x0 C:/Users/Dell/ide-8.0-workspace/hw.x86_64/src/hardware/startup/boards/../../../../install/x86_64/usr/lib\libstartup.a(pci_known_devs_table.o)
 .data          0x00000000000001e8        0x4 C:/Users/Dell/ide-8.0-workspace/hw.x86_64/src/hardware/startup/boards/../../../../install/x86_64/usr/lib\libstartup.a(pci_misc.o)
 .data          0x00000000000001ec        0x0 C:/Users/Dell/ide-8.0-workspace/hw.x86_64/src/hardware/startup/boards/../../../../install/x86_64/usr/lib\libstartup.a(pci_read_cfg16.o)
 .data          0x00000000000001ec        0x0 C:/Users/Dell/ide-8.0-workspace/hw.x86_64/src/hardware/startup/boards/../../../../install/x86_64/usr/lib\libstartup.a(pci_read_cfg32.o)
 .data          0x00000000000001ec        0x0 C:/Users/Dell/ide-8.0-workspace/hw.x86_64/src/hardware/startup/boards/../../../../install/x86_64/usr/lib\libstartup.a(pci_read_cfg8.o)
 .data          0x00000000000001ec        0x0 C:/Users/Dell/ide-8.0-workspace/hw.x86_64/src/hardware/startup/boards/../../../../install/x86_64/usr/lib\libstartup.a(pci_write_cfg16.o)
 .data          0x00000000000001ec        0x0 C:/Users/Dell/ide-8.0-workspace/hw.x86_64/src/hardware/startup/boards/../../../../install/x86_64/usr/lib\libstartup.a(pci_write_cfg32.o)
 .data          0x00000000000001ec        0x0 C:/Users/Dell/ide-8.0-workspace/hw.x86_64/src/hardware/startup/boards/../../../../install/x86_64/usr/lib\libstartup.a(pci_write_cfg8.o)
 .data          0x00000000000001ec        0x0 C:/Users/Dell/ide-8.0-workspace/hw.x86_64/src/hardware/startup/boards/../../../../install/x86_64/usr/lib\libstartup.a(pcu_misc.o)
 .data          0x00000000000001ec        0x0 C:/Users/Dell/ide-8.0-workspace/hw.x86_64/src/hardware/startup/boards/../../../../install/x86_64/usr/lib\libstartup.a(piix4_misc.o)
 *fill*         0x00000000000001ec       0x14 
 .data          0x0000000000000200      0x138 C:/Users/Dell/ide-8.0-workspace/hw.x86_64/src/hardware/startup/boards/../../../../install/x86_64/usr/lib\libstartup.a(print_sysp.o)
 .data          0x0000000000000338        0x8 C:/Users/Dell/ide-8.0-workspace/hw.x86_64/src/hardware/startup/boards/../../../../install/x86_64/usr/lib\libstartup.a(processor64.o)
 .data          0x0000000000000340        0x8 C:/Users/Dell/ide-8.0-workspace/hw.x86_64/src/hardware/startup/boards/../../../../install/x86_64/usr/lib\libstartup.a(ram.o)
 .data          0x0000000000000348        0x0 C:/Users/Dell/ide-8.0-workspace/hw.x86_64/src/hardware/startup/boards/../../../../install/x86_64/usr/lib\libstartup.a(restore_ifs.o)
 .data          0x0000000000000348        0x0 C:/Users/Dell/ide-8.0-workspace/hw.x86_64/src/hardware/startup/boards/../../../../install/x86_64/usr/lib\libstartup.a(sbx00_misc.o)
 .data          0x0000000000000348        0x0 C:/Users/Dell/ide-8.0-workspace/hw.x86_64/src/hardware/startup/boards/../../../../install/x86_64/usr/lib\libstartup.a(sch_misc.o)
 .data          0x0000000000000348        0x0 C:/Users/Dell/ide-8.0-workspace/hw.x86_64/src/hardware/startup/boards/../../../../install/x86_64/usr/lib\libstartup.a(set_cycles.o)
 .data          0x0000000000000348        0x0 C:/Users/Dell/ide-8.0-workspace/hw.x86_64/src/hardware/startup/boards/../../../../install/x86_64/usr/lib\libstartup.a(ssp.o)
 .data          0x0000000000000348        0x0 C:/Users/Dell/ide-8.0-workspace/hw.x86_64/src/hardware/startup/boards/../../../../install/x86_64/usr/lib\libstartup.a(startnext.o)
 .data          0x0000000000000348        0x0 C:/Users/Dell/ide-8.0-workspace/hw.x86_64/src/hardware/startup/boards/../../../../install/x86_64/usr/lib\libstartup.a(startup_info.o)
 .data          0x0000000000000348        0x0 C:/Users/Dell/ide-8.0-workspace/hw.x86_64/src/hardware/startup/boards/../../../../install/x86_64/usr/lib\libstartup.a(strings.o)
 .data          0x0000000000000348        0x0 C:/Users/Dell/ide-8.0-workspace/hw.x86_64/src/hardware/startup/boards/../../../../install/x86_64/usr/lib\libstartup.a(strtoul.o)
 .data          0x0000000000000348        0x0 C:/Users/Dell/ide-8.0-workspace/hw.x86_64/src/hardware/startup/boards/../../../../install/x86_64/usr/lib\libstartup.a(syspage_memory.o)
 .data          0x0000000000000348        0x0 C:/Users/Dell/ide-8.0-workspace/hw.x86_64/src/hardware/startup/boards/../../../../install/x86_64/usr/lib\libstartup.a(tweak_cmdline.o)
 .data          0x0000000000000348        0x0 C:/Users/Dell/ide-8.0-workspace/hw.x86_64/src/hardware/startup/boards/../../../../install/x86_64/usr/lib\libstartup.a(uefi.o)
 .data          0x0000000000000348        0x0 C:/Users/Dell/ide-8.0-workspace/hw.x86_64/src/hardware/startup/boards/../../../../install/x86_64/usr/lib\libstartup.a(uefi_init.o)
 .data          0x0000000000000348        0x0 C:/Users/Dell/ide-8.0-workspace/hw.x86_64/src/hardware/startup/boards/../../../../install/x86_64/usr/lib\libstartup.a(uefi_io.o)
 .data          0x0000000000000348        0x0 C:/Users/Dell/ide-8.0-workspace/hw.x86_64/src/hardware/startup/boards/../../../../install/x86_64/usr/lib\libstartup.a(ultoa_end.o)
 .data          0x0000000000000348        0x0 C:/Users/Dell/ide-8.0-workspace/hw.x86_64/src/hardware/startup/boards/../../../../install/x86_64/usr/lib\libstartup.a(uncompress.o)
 .data          0x0000000000000348        0x0 C:/Users/Dell/ide-8.0-workspace/hw.x86_64/src/hardware/startup/boards/../../../../install/x86_64/usr/lib\libstartup.a(uncompress_ucl.o)
 .data          0x0000000000000348        0x0 C:/Users/Dell/ide-8.0-workspace/hw.x86_64/src/hardware/startup/boards/../../../../install/x86_64/usr/lib\libstartup.a(x86_64_pcbios_shadow.o)
 .data          0x0000000000000348        0x0 C:/Users/Dell/ide-8.0-workspace/hw.x86_64/src/hardware/startup/boards/../../../../install/x86_64/usr/lib\libstartup.a(64apstart.o)
 .data          0x0000000000000348        0x4 C:/Users/Dell/ide-8.0-workspace/hw.x86_64/src/hardware/startup/boards/../../../../install/x86_64/usr/lib\libstartup.a(acpi.o)
 .data          0x000000000000034c        0x0 C:/Users/Dell/ide-8.0-workspace/hw.x86_64/src/hardware/startup/boards/../../../../install/x86_64/usr/lib\libstartup.a(acpi_ioapic.o)
 .data          0x000000000000034c        0x0 C:/Users/Dell/ide-8.0-workspace/hw.x86_64/src/hardware/startup/boards/../../../../install/x86_64/usr/lib\libstartup.a(add_interrupt.o)
 .data          0x000000000000034c        0x0 C:/Users/Dell/ide-8.0-workspace/hw.x86_64/src/hardware/startup/boards/../../../../install/x86_64/usr/lib\libstartup.a(alloc_qtime.o)
 .data          0x000000000000034c        0x4 C:/Users/Dell/ide-8.0-workspace/hw.x86_64/src/hardware/startup/boards/../../../../install/x86_64/usr/lib\libstartup.a(amd_misc.o)
 .data          0x0000000000000350        0x0 C:/Users/Dell/ide-8.0-workspace/hw.x86_64/src/hardware/startup/boards/../../../../install/x86_64/usr/lib\libstartup.a(ap_fail.o)
 *fill*         0x0000000000000350       0x10 
 .data          0x0000000000000360      0x300 C:/Users/Dell/ide-8.0-workspace/hw.x86_64/src/hardware/startup/boards/../../../../install/x86_64/usr/lib\libstartup.a(apic_io_intr.o)
 .data          0x0000000000000660       0xc0 C:/Users/Dell/ide-8.0-workspace/hw.x86_64/src/hardware/startup/boards/../../../../install/x86_64/usr/lib\libstartup.a(apic_local_intr.o)
 .data          0x0000000000000720        0x8 C:/Users/Dell/ide-8.0-workspace/hw.x86_64/src/hardware/startup/boards/../../../../install/x86_64/usr/lib\libstartup.a(apic_paddr.o)
                0x0000000000000720                lapic_paddr
 .data          0x0000000000000728        0x0 C:/Users/Dell/ide-8.0-workspace/hw.x86_64/src/hardware/startup/boards/../../../../install/x86_64/usr/lib\libstartup.a(as_add.o)
 .data          0x0000000000000728        0x0 C:/Users/Dell/ide-8.0-workspace/hw.x86_64/src/hardware/startup/boards/../../../../install/x86_64/usr/lib\libstartup.a(as_add64.o)
 .data          0x0000000000000728        0x0 C:/Users/Dell/ide-8.0-workspace/hw.x86_64/src/hardware/startup/boards/../../../../install/x86_64/usr/lib\libstartup.a(as_add_containing.o)
 .data          0x0000000000000728        0x0 C:/Users/Dell/ide-8.0-workspace/hw.x86_64/src/hardware/startup/boards/../../../../install/x86_64/usr/lib\libstartup.a(as_default.o)
 .data          0x0000000000000728        0x0 C:/Users/Dell/ide-8.0-workspace/hw.x86_64/src/hardware/startup/boards/../../../../install/x86_64/usr/lib\libstartup.a(as_find.o)
 .data          0x0000000000000728        0x0 C:/Users/Dell/ide-8.0-workspace/hw.x86_64/src/hardware/startup/boards/../../../../install/x86_64/usr/lib\libstartup.a(as_find_containing.o)
 .data          0x0000000000000728        0x0 C:/Users/Dell/ide-8.0-workspace/hw.x86_64/src/hardware/startup/boards/../../../../install/x86_64/usr/lib\libstartup.a(as_off2info.o)
 .data          0x0000000000000728        0x0 C:/Users/Dell/ide-8.0-workspace/hw.x86_64/src/hardware/startup/boards/../../../../install/x86_64/usr/lib\libstartup.a(board_find_acpi_rsdp.o)
 .data          0x0000000000000728        0x0 C:/Users/Dell/ide-8.0-workspace/hw.x86_64/src/hardware/startup/boards/../../../../install/x86_64/usr/lib\libstartup.a(board_find_acpi_rsdp_bios.o)
 .data          0x0000000000000728        0x0 C:/Users/Dell/ide-8.0-workspace/hw.x86_64/src/hardware/startup/boards/../../../../install/x86_64/usr/lib\libstartup.a(board_find_acpi_rsdp_uefi.o)
 .data          0x0000000000000728        0x0 C:/Users/Dell/ide-8.0-workspace/hw.x86_64/src/hardware/startup/boards/../../../../install/x86_64/usr/lib\libstartup.a(board_smp.o)
 .data          0x0000000000000728        0x0 C:/Users/Dell/ide-8.0-workspace/hw.x86_64/src/hardware/startup/boards/../../../../install/x86_64/usr/lib\libstartup.a(board_sysctl.o)
 .data          0x0000000000000728        0x0 C:/Users/Dell/ide-8.0-workspace/hw.x86_64/src/hardware/startup/boards/../../../../install/x86_64/usr/lib\libstartup.a(calc_cksum.o)
 .data          0x0000000000000728        0x0 C:/Users/Dell/ide-8.0-workspace/hw.x86_64/src/hardware/startup/boards/../../../../install/x86_64/usr/lib\libstartup.a(callout_apstart.o)
 .data          0x0000000000000728        0x0 C:/Users/Dell/ide-8.0-workspace/hw.x86_64/src/hardware/startup/boards/../../../../install/x86_64/usr/lib\libstartup.a(callout_interrupt_apic.o)
 .data          0x0000000000000728        0x0 C:/Users/Dell/ide-8.0-workspace/hw.x86_64/src/hardware/startup/boards/../../../../install/x86_64/usr/lib\libstartup.a(callout_interrupt_ioapic.o)
 .data          0x0000000000000728        0x0 C:/Users/Dell/ide-8.0-workspace/hw.x86_64/src/hardware/startup/boards/../../../../install/x86_64/usr/lib\libstartup.a(callout_reboot.o)
 .data          0x0000000000000728        0x8 C:/Users/Dell/ide-8.0-workspace/hw.x86_64/src/hardware/startup/boards/../../../../install/x86_64/usr/lib\libstartup.a(callouts.o)
                0x0000000000000728                callout_output_rtn
 .data          0x0000000000000730        0x0 C:/Users/Dell/ide-8.0-workspace/hw.x86_64/src/hardware/startup/boards/../../../../install/x86_64/usr/lib\libstartup.a(chip_access.o)
 .data          0x0000000000000730        0x0 C:/Users/Dell/ide-8.0-workspace/hw.x86_64/src/hardware/startup/boards/../../../../install/x86_64/usr/lib\libstartup.a(cpu_family_clock.o)
 .data          0x0000000000000730        0x0 C:/Users/Dell/ide-8.0-workspace/hw.x86_64/src/hardware/startup/boards/../../../../install/x86_64/usr/lib\libstartup.a(cpu_family_model.o)
 .data          0x0000000000000730        0x0 C:/Users/Dell/ide-8.0-workspace/hw.x86_64/src/hardware/startup/boards/../../../../install/x86_64/usr/lib\libstartup.a(cpu_features.o)
 .data          0x0000000000000730        0x0 C:/Users/Dell/ide-8.0-workspace/hw.x86_64/src/hardware/startup/boards/../../../../install/x86_64/usr/lib\libstartup.a(cpu_id.o)
 .data          0x0000000000000730        0x0 C:/Users/Dell/ide-8.0-workspace/hw.x86_64/src/hardware/startup/boards/../../../../install/x86_64/usr/lib\libstartup.a(cpu_startnext.o)
 .data          0x0000000000000730        0x0 C:/Users/Dell/ide-8.0-workspace/hw.x86_64/src/hardware/startup/boards/../../../../install/x86_64/usr/lib\libstartup.a(cpu_syspage_memory.o)
 .data          0x0000000000000730        0x0 C:/Users/Dell/ide-8.0-workspace/hw.x86_64/src/hardware/startup/boards/../../../../install/x86_64/usr/lib\libstartup.a(cpu_tsc.o)
 .data          0x0000000000000730        0x0 C:/Users/Dell/ide-8.0-workspace/hw.x86_64/src/hardware/startup/boards/../../../../install/x86_64/usr/lib\libstartup.a(cpu_tweak_cmdline.o)
 .data          0x0000000000000730        0x0 C:/Users/Dell/ide-8.0-workspace/hw.x86_64/src/hardware/startup/boards/../../../../install/x86_64/usr/lib\libstartup.a(crash_done.o)
 .data          0x0000000000000730        0x0 C:/Users/Dell/ide-8.0-workspace/hw.x86_64/src/hardware/startup/boards/../../../../install/x86_64/usr/lib\libstartup.a(dummy_print_char.o)
 .data          0x0000000000000730        0x0 C:/Users/Dell/ide-8.0-workspace/hw.x86_64/src/hardware/startup/boards/../../../../install/x86_64/usr/lib\libstartup.a(elf.o)
 .data          0x0000000000000730        0x0 C:/Users/Dell/ide-8.0-workspace/hw.x86_64/src/hardware/startup/boards/../../../../install/x86_64/usr/lib\libstartup.a(elf32.o)
 .data          0x0000000000000730        0x0 C:/Users/Dell/ide-8.0-workspace/hw.x86_64/src/hardware/startup/boards/../../../../install/x86_64/usr/lib\libstartup.a(elf64.o)
 .data          0x0000000000000730        0x0 C:/Users/Dell/ide-8.0-workspace/hw.x86_64/src/hardware/startup/boards/../../../../install/x86_64/usr/lib\libstartup.a(elf_map.o)
 .data          0x0000000000000730        0x0 C:/Users/Dell/ide-8.0-workspace/hw.x86_64/src/hardware/startup/boards/../../../../install/x86_64/usr/lib\libstartup.a(fdt_vars.o)
 .data          0x0000000000000730       0x10 C:/Users/Dell/ide-8.0-workspace/hw.x86_64/src/hardware/startup/boards/../../../../install/x86_64/usr/lib\libstartup.a(find_ecam_base.o)
 .data          0x0000000000000740        0x0 C:/Users/Dell/ide-8.0-workspace/hw.x86_64/src/hardware/startup/boards/../../../../install/x86_64/usr/lib\libstartup.a(find_top_intr.o)
 .data          0x0000000000000740        0x0 C:/Users/Dell/ide-8.0-workspace/hw.x86_64/src/hardware/startup/boards/../../../../install/x86_64/usr/lib\libstartup.a(hv_guest.o)
 .data          0x0000000000000740      0x35e C:/Users/Dell/ide-8.0-workspace/hw.x86_64/src/hardware/startup/boards/../../../../install/x86_64/usr/lib\libstartup.a(hw_cpuid_string.o)
 .data          0x0000000000000a9e        0x0 C:/Users/Dell/ide-8.0-workspace/hw.x86_64/src/hardware/startup/boards/../../../../install/x86_64/usr/lib\libstartup.a(hw_cpuspeed.o)
 .data          0x0000000000000a9e        0x0 C:/Users/Dell/ide-8.0-workspace/hw.x86_64/src/hardware/startup/boards/../../../../install/x86_64/usr/lib\libstartup.a(hw_scanmem.o)
 .data          0x0000000000000a9e        0x0 C:/Users/Dell/ide-8.0-workspace/hw.x86_64/src/hardware/startup/boards/../../../../install/x86_64/usr/lib\libstartup.a(hwi_add_device.o)
 .data          0x0000000000000a9e        0x0 C:/Users/Dell/ide-8.0-workspace/hw.x86_64/src/hardware/startup/boards/../../../../install/x86_64/usr/lib\libstartup.a(hwi_add_irq.o)
 .data          0x0000000000000a9e        0x0 C:/Users/Dell/ide-8.0-workspace/hw.x86_64/src/hardware/startup/boards/../../../../install/x86_64/usr/lib\libstartup.a(hwi_add_location.o)
 .data          0x0000000000000a9e        0x0 C:/Users/Dell/ide-8.0-workspace/hw.x86_64/src/hardware/startup/boards/../../../../install/x86_64/usr/lib\libstartup.a(hwi_default.o)
 .data          0x0000000000000a9e        0x0 C:/Users/Dell/ide-8.0-workspace/hw.x86_64/src/hardware/startup/boards/../../../../install/x86_64/usr/lib\libstartup.a(hwi_find_as.o)
 .data          0x0000000000000a9e        0x0 C:/Users/Dell/ide-8.0-workspace/hw.x86_64/src/hardware/startup/boards/../../../../install/x86_64/usr/lib\libstartup.a(hwidev_add.o)
 .data          0x0000000000000a9e        0x0 C:/Users/Dell/ide-8.0-workspace/hw.x86_64/src/hardware/startup/boards/../../../../install/x86_64/usr/lib\libstartup.a(hwitag_add_irq.o)
 .data          0x0000000000000a9e        0x0 C:/Users/Dell/ide-8.0-workspace/hw.x86_64/src/hardware/startup/boards/../../../../install/x86_64/usr/lib\libstartup.a(hwitag_add_location.o)
 *fill*         0x0000000000000a9e        0x2 
 .data          0x0000000000000aa0        0x4 C:/Users/Dell/ide-8.0-workspace/hw.x86_64/src/hardware/startup/boards/../../../../install/x86_64/usr/lib\libstartup.a(hypervisor.o)
 .data          0x0000000000000aa4        0x0 C:/Users/Dell/ide-8.0-workspace/hw.x86_64/src/hardware/startup/boards/../../../../install/x86_64/usr/lib\libstartup.a(ich_misc.o)
 .data          0x0000000000000aa4        0x0 C:/Users/Dell/ide-8.0-workspace/hw.x86_64/src/hardware/startup/boards/../../../../install/x86_64/usr/lib\libstartup.a(imps.o)
 .data          0x0000000000000aa4        0x0 C:/Users/Dell/ide-8.0-workspace/hw.x86_64/src/hardware/startup/boards/../../../../install/x86_64/usr/lib\libstartup.a(imps_ioapic.o)
 .data          0x0000000000000aa4        0x0 C:/Users/Dell/ide-8.0-workspace/hw.x86_64/src/hardware/startup/boards/../../../../install/x86_64/usr/lib\libstartup.a(imps_smp.o)
 .data          0x0000000000000aa4        0x0 C:/Users/Dell/ide-8.0-workspace/hw.x86_64/src/hardware/startup/boards/../../../../install/x86_64/usr/lib\libstartup.a(init_asinfo.o)
 .data          0x0000000000000aa4        0x0 C:/Users/Dell/ide-8.0-workspace/hw.x86_64/src/hardware/startup/boards/../../../../install/x86_64/usr/lib\libstartup.a(init_gdt.o)
 .data          0x0000000000000aa4        0x0 C:/Users/Dell/ide-8.0-workspace/hw.x86_64/src/hardware/startup/boards/../../../../install/x86_64/usr/lib\libstartup.a(init_mitigation_mem.o)
 .data          0x0000000000000aa4        0x0 C:/Users/Dell/ide-8.0-workspace/hw.x86_64/src/hardware/startup/boards/../../../../install/x86_64/usr/lib\libstartup.a(ioapic_auto_config.o)
 *fill*         0x0000000000000aa4       0x1c 
 .data          0x0000000000000ac0     0x12c0 C:/Users/Dell/ide-8.0-workspace/hw.x86_64/src/hardware/startup/boards/../../../../install/x86_64/usr/lib\libstartup.a(ioapic_default_configs.o)
 .data          0x0000000000001d80        0x0 C:/Users/Dell/ide-8.0-workspace/hw.x86_64/src/hardware/startup/boards/../../../../install/x86_64/usr/lib\libstartup.a(map_startup_io.o)
 .data          0x0000000000001d80        0x0 C:/Users/Dell/ide-8.0-workspace/hw.x86_64/src/hardware/startup/boards/../../../../install/x86_64/usr/lib\libstartup.a(rtc_time.o)
 .data          0x0000000000001d80        0x0 C:/Users/Dell/ide-8.0-workspace/hw.x86_64/src/hardware/startup/boards/../../../../install/x86_64/usr/lib\libstartup.a(timer_ns2tick.o)
 .data          0x0000000000001d80        0x0 C:/Users/Dell/ide-8.0-workspace/hw.x86_64/src/hardware/startup/boards/../../../../install/x86_64/usr/lib\libstartup.a(timer_tick2ns.o)
 .data          0x0000000000001d80        0x0 C:/Users/Dell/ide-8.0-workspace/hw.x86_64/src/hardware/startup/boards/../../../../install/x86_64/usr/lib\libstartup.a(acpi_smp.o)
 .data          0x0000000000001d80        0x0 C:/Users/Dell/ide-8.0-workspace/hw.x86_64/src/hardware/startup/boards/../../../../install/x86_64/usr/lib\libstartup.a(apic_smp.o)
 .data          0x0000000000001d80        0x0 C:/Users/Dell/ide-8.0-workspace/hw.x86_64/src/hardware/startup/boards/../../../../install/x86_64/usr/lib\libstartup.a(bootstrap_cmdline.o)
 .data          0x0000000000001d80        0x0 C:/Users/Dell/ide-8.0-workspace/hw.x86_64/src/hardware/startup/boards/../../../../install/x86_64/usr/lib\libstartup.a(hw_rtc_mc146818.o)
 .data          0x0000000000001d80        0x0 C:/Users/Dell/ide-8.0-workspace/hw.x86_64/src/hardware/startup/boards/../../../../install/x86_64/usr/lib\libstartup.a(hwi_add_rtc.o)
 .data          0x0000000000001d80        0x0 C:/Users/Dell/ide-8.0-workspace/hw.x86_64/src/hardware/startup/boards/../../../../install/x86_64/usr/lib\libstartup.a(16apstart.o)
 .data          0x0000000000001d80        0x0 C:/Users/Dell/ide-8.0-workspace/hw.x86_64/src/hardware/startup/boards/../../../../install/x86_64/usr/lib\libstartup.a(bcd2bin.o)
 .data          0x0000000000001d80        0x0 C:/Users/Dell/ide-8.0-workspace/hw.x86_64/src/hardware/startup/boards/../../../../install/x86_64/usr/lib\libstartup.a(calc_time_t.o)
 .data          0x0000000000001d80        0x0 C:/Users/Dell/qnx800/target/qnx/x86_64/usr/lib\libucl.a(n2b_d.o)
 .data          0x0000000000001d80        0x0 C:/Users/Dell/qnx800/target/qnx/x86_64/lib\libc.a(hwi_find_item.o)
 .data          0x0000000000001d80        0x0 C:/Users/Dell/qnx800/target/qnx/x86_64/lib\libc.a(hwi_off2tag.o)
 .data          0x0000000000001d80        0x0 C:/Users/Dell/qnx800/target/qnx/x86_64/lib\libc.a(hwi_tag2off.o)
 .data          0x0000000000001d80        0x0 C:/Users/Dell/qnx800/target/qnx/x86_64/lib\libc.a(memcmp.o)
 .data          0x0000000000001d80        0x0 C:/Users/Dell/qnx800/target/qnx/x86_64/lib\libc.a(memset.o)
 .data          0x0000000000001d80        0x0 C:/Users/Dell/qnx800/target/qnx/x86_64/lib\libc.a(strcasecmp.o)
 .data          0x0000000000001d80        0x0 C:/Users/Dell/qnx800/target/qnx/x86_64/lib\libc.a(strchr.o)
 .data          0x0000000000001d80        0x0 C:/Users/Dell/qnx800/target/qnx/x86_64/lib\libc.a(strcmp.o)
 .data          0x0000000000001d80        0x0 C:/Users/Dell/qnx800/target/qnx/x86_64/lib\libc.a(strlcpy.o)
 .data          0x0000000000001d80        0x0 C:/Users/Dell/qnx800/target/qnx/x86_64/lib\libc.a(strlen.o)
 .data          0x0000000000001d80        0x0 C:/Users/Dell/qnx800/target/qnx/x86_64/lib\libc.a(strstr.o)
 .data          0x0000000000001d80        0x0 C:/Users/Dell/qnx800/target/qnx/x86_64/lib\libc.a(__progname.o)
 .data          0x0000000000001d80        0x0 C:/Users/Dell/qnx800/target/qnx/x86_64/lib\libc.a(_ssp.o)
 .data          0x0000000000001d80        0x0 C:/Users/Dell/qnx800/target/qnx/x86_64/lib\libc.a(__stack_chk_guard.o)
 .data          0x0000000000001d80        0x0 C:/Users/Dell/qnx800/target/qnx/x86_64/lib\libc.a(xtolotab.o)
 .data          0x0000000000001d80        0x0 C:/Users/Dell/qnx800/target/qnx/x86_64/lib\libc.a(strncasecmp.o)
 .data          0x0000000000001d80        0x0 C:/Users/Dell/qnx800/target/qnx/x86_64/lib\libc.a(strncmp.o)
 .data          0x0000000000001d80        0x0 C:/Users/Dell/qnx800/target/qnx/x86_64/lib\libc.a(strrchr.o)

.data.rel.ro    0x0000000000000000      0x380
 .data.rel.ro   0x0000000000000000      0x100 main.o
                0x0000000000000000                debug_devices
 .data.rel.ro   0x0000000000000100      0x100 C:/Users/Dell/qnx800/target/qnx/x86_64/lib\libc.a(memcmp.o)
 .data.rel.ro   0x0000000000000200      0x100 C:/Users/Dell/qnx800/target/qnx/x86_64/lib\libc.a(memset.o)
 .data.rel.ro   0x0000000000000300       0x40 C:/Users/Dell/qnx800/target/qnx/x86_64/lib\libc.a(strchr.o)
 .data.rel.ro   0x0000000000000340       0x40 C:/Users/Dell/qnx800/target/qnx/x86_64/lib\libc.a(strlen.o)

.data.rel.local
                0x0000000000000000        0x8
 .data.rel.local
                0x0000000000000000        0x8 C:/Users/Dell/qnx800/target/qnx/x86_64/lib\libc.a(xtolotab.o)
                0x0000000000000000                _Tolotab

.data1
 *(.data1)

.bss            0x0000000000000000     0x1918
 *(.bss)
 .bss           0x0000000000000000        0x0 main.o
 .bss           0x0000000000000000      0x228 C:/Users/Dell/ide-8.0-workspace/hw.x86_64/src/hardware/startup/boards/../../../../install/x86_64/usr/lib\libstartup.a(_main.o)
                0x0000000000000000                uefi_exit_boot_services_f
                0x0000000000000008                uefi_io_resume_f
                0x0000000000000010                uefi_io_suspend_f
                0x0000000000000018                full_imagefs_paddr
                0x0000000000000020                full_ram_paddr
                0x0000000000000028                full_image_paddr
                0x0000000000000030                secure_system
                0x0000000000000034                misc_flags
                0x0000000000000038                _syspage_ptr
                0x0000000000000040                timer_diff
                0x0000000000000048                timer_start
                0x0000000000000050                timer_chip
                0x0000000000000060                _argc
                0x0000000000000068                _argv
                0x0000000000000070                shdr
                0x0000000000000078                patch_channel
                0x0000000000000080                dbg_device
                0x00000000000000a0                timer_prog_time
                0x00000000000000a8                timer_freq
                0x00000000000000b0                cycles_freq
                0x00000000000000b8                cpu_freq
                0x00000000000000c0                reserved_ram_list
                0x00000000000000c8                debug_flag
 .bss           0x0000000000000228        0x0 C:/Users/Dell/ide-8.0-workspace/hw.x86_64/src/hardware/startup/boards/../../../../install/x86_64/usr/lib\libstartup.a(board_init.o)
 .bss           0x0000000000000228        0x0 C:/Users/Dell/ide-8.0-workspace/hw.x86_64/src/hardware/startup/boards/../../../../install/x86_64/usr/lib\libstartup.a(callout_debug_8250.o)
 .bss           0x0000000000000228        0x0 C:/Users/Dell/ide-8.0-workspace/hw.x86_64/src/hardware/startup/boards/../../../../install/x86_64/usr/lib\libstartup.a(callout_debug_con.o)
 .bss           0x0000000000000228        0x0 C:/Users/Dell/ide-8.0-workspace/hw.x86_64/src/hardware/startup/boards/../../../../install/x86_64/usr/lib\libstartup.a(callout_debug_dummy.o)
 *fill*         0x0000000000000228        0x8 
 .bss           0x0000000000000230       0x20 C:/Users/Dell/ide-8.0-workspace/hw.x86_64/src/hardware/startup/boards/../../../../install/x86_64/usr/lib\libstartup.a(common_options.o)
                0x0000000000000230                in_hvc
 .bss           0x0000000000000250        0x0 C:/Users/Dell/ide-8.0-workspace/hw.x86_64/src/hardware/startup/boards/../../../../install/x86_64/usr/lib\libstartup.a(cpu_cluster_add.o)
 .bss           0x0000000000000250        0x1 C:/Users/Dell/ide-8.0-workspace/hw.x86_64/src/hardware/startup/boards/../../../../install/x86_64/usr/lib\libstartup.a(cpu_common_options.o)
                0x0000000000000250                acpi_ignore
 *fill*         0x0000000000000251        0x7 
 .bss           0x0000000000000258       0x10 C:/Users/Dell/ide-8.0-workspace/hw.x86_64/src/hardware/startup/boards/../../../../install/x86_64/usr/lib\libstartup.a(cpu_startup.o)
                0x0000000000000258                nx_supported
                0x0000000000000260                boot_regs
 .bss           0x0000000000000268        0x0 C:/Users/Dell/ide-8.0-workspace/hw.x86_64/src/hardware/startup/boards/../../../../install/x86_64/usr/lib\libstartup.a(cstart64.o)
 .bss           0x0000000000000268        0x0 C:/Users/Dell/ide-8.0-workspace/hw.x86_64/src/hardware/startup/boards/../../../../install/x86_64/usr/lib\libstartup.a(debug.o)
 .bss           0x0000000000000268        0x0 C:/Users/Dell/ide-8.0-workspace/hw.x86_64/src/hardware/startup/boards/../../../../install/x86_64/usr/lib\libstartup.a(early_setup.o)
 .bss           0x0000000000000268        0x0 C:/Users/Dell/ide-8.0-workspace/hw.x86_64/src/hardware/startup/boards/../../../../install/x86_64/usr/lib\libstartup.a(entry_32prot.o)
 .bss           0x0000000000000268       0x28 C:/Users/Dell/ide-8.0-workspace/hw.x86_64/src/hardware/startup/boards/../../../../install/x86_64/usr/lib\libstartup.a(getopt.o)
                0x0000000000000268                optind
                0x0000000000000270                optarg
 .bss           0x0000000000000290        0x0 C:/Users/Dell/ide-8.0-workspace/hw.x86_64/src/hardware/startup/boards/../../../../install/x86_64/usr/lib\libstartup.a(getsize.o)
 .bss           0x0000000000000290        0x0 C:/Users/Dell/ide-8.0-workspace/hw.x86_64/src/hardware/startup/boards/../../../../install/x86_64/usr/lib\libstartup.a(hw_cputype.o)
 .bss           0x0000000000000290        0x8 C:/Users/Dell/ide-8.0-workspace/hw.x86_64/src/hardware/startup/boards/../../../../install/x86_64/usr/lib\libstartup.a(hw_ser8250.o)
 .bss           0x0000000000000298        0x0 C:/Users/Dell/ide-8.0-workspace/hw.x86_64/src/hardware/startup/boards/../../../../install/x86_64/usr/lib\libstartup.a(hw_ser8250_pci.o)
 .bss           0x0000000000000298        0x0 C:/Users/Dell/ide-8.0-workspace/hw.x86_64/src/hardware/startup/boards/../../../../install/x86_64/usr/lib\libstartup.a(hw_vgaout32.o)
 .bss           0x0000000000000298        0x0 C:/Users/Dell/ide-8.0-workspace/hw.x86_64/src/hardware/startup/boards/../../../../install/x86_64/usr/lib\libstartup.a(hwi_add_nanospin.o)
 .bss           0x0000000000000298        0x8 C:/Users/Dell/ide-8.0-workspace/hw.x86_64/src/hardware/startup/boards/../../../../install/x86_64/usr/lib\libstartup.a(hwi_alloc.o)
 .bss           0x00000000000002a0        0x8 C:/Users/Dell/ide-8.0-workspace/hw.x86_64/src/hardware/startup/boards/../../../../install/x86_64/usr/lib\libstartup.a(hypervisor_setup.o)
 .bss           0x00000000000002a8        0x0 C:/Users/Dell/ide-8.0-workspace/hw.x86_64/src/hardware/startup/boards/../../../../install/x86_64/usr/lib\libstartup.a(init_cacheattr.o)
 .bss           0x00000000000002a8        0x0 C:/Users/Dell/ide-8.0-workspace/hw.x86_64/src/hardware/startup/boards/../../../../install/x86_64/usr/lib\libstartup.a(init_cpuinfo.o)
 .bss           0x00000000000002a8        0x0 C:/Users/Dell/ide-8.0-workspace/hw.x86_64/src/hardware/startup/boards/../../../../install/x86_64/usr/lib\libstartup.a(init_hwinfo.o)
 .bss           0x00000000000002a8        0x0 C:/Users/Dell/ide-8.0-workspace/hw.x86_64/src/hardware/startup/boards/../../../../install/x86_64/usr/lib\libstartup.a(init_intrinfo.o)
 *fill*         0x00000000000002a8        0x8 
 .bss           0x00000000000002b0       0x18 C:/Users/Dell/ide-8.0-workspace/hw.x86_64/src/hardware/startup/boards/../../../../install/x86_64/usr/lib\libstartup.a(init_intrinfo_msi.o)
 .bss           0x00000000000002c8        0x0 C:/Users/Dell/ide-8.0-workspace/hw.x86_64/src/hardware/startup/boards/../../../../install/x86_64/usr/lib\libstartup.a(init_mmu.o)
 .bss           0x00000000000002c8        0x0 C:/Users/Dell/ide-8.0-workspace/hw.x86_64/src/hardware/startup/boards/../../../../install/x86_64/usr/lib\libstartup.a(init_qtime.o)
 .bss           0x00000000000002c8        0x8 C:/Users/Dell/ide-8.0-workspace/hw.x86_64/src/hardware/startup/boards/../../../../install/x86_64/usr/lib\libstartup.a(init_qtime_hpet.o)
 .bss           0x00000000000002d0        0x0 C:/Users/Dell/ide-8.0-workspace/hw.x86_64/src/hardware/startup/boards/../../../../install/x86_64/usr/lib\libstartup.a(init_qtime_lapic.o)
 .bss           0x00000000000002d0        0x4 C:/Users/Dell/ide-8.0-workspace/hw.x86_64/src/hardware/startup/boards/../../../../install/x86_64/usr/lib\libstartup.a(init_raminfo.o)
                0x00000000000002d0                mem_scan
 .bss           0x00000000000002d4        0x0 C:/Users/Dell/ide-8.0-workspace/hw.x86_64/src/hardware/startup/boards/../../../../install/x86_64/usr/lib\libstartup.a(init_raminfo_uefi.o)
 *fill*         0x00000000000002d4        0xc 
 .bss           0x00000000000002e0       0x10 C:/Users/Dell/ide-8.0-workspace/hw.x86_64/src/hardware/startup/boards/../../../../install/x86_64/usr/lib\libstartup.a(init_reboot_callout.o)
 .bss           0x00000000000002f0       0x18 C:/Users/Dell/ide-8.0-workspace/hw.x86_64/src/hardware/startup/boards/../../../../install/x86_64/usr/lib\libstartup.a(init_smp.o)
                0x00000000000002f0                smp_prev_output_rtn
                0x00000000000002f8                smp_spin_vaddr
                0x0000000000000300                syspage_available
                0x0000000000000304                cpu_starting
 .bss           0x0000000000000308       0x10 C:/Users/Dell/ide-8.0-workspace/hw.x86_64/src/hardware/startup/boards/../../../../install/x86_64/usr/lib\libstartup.a(init_system_private.o)
                0x0000000000000308                boot_vaddr_end
                0x0000000000000310                boot_vaddr_base
 .bss           0x0000000000000318        0x0 C:/Users/Dell/ide-8.0-workspace/hw.x86_64/src/hardware/startup/boards/../../../../install/x86_64/usr/lib\libstartup.a(intel_microcode_updates.o)
 .bss           0x0000000000000318        0x0 C:/Users/Dell/ide-8.0-workspace/hw.x86_64/src/hardware/startup/boards/../../../../install/x86_64/usr/lib\libstartup.a(intel_misc.o)
 .bss           0x0000000000000318        0x0 C:/Users/Dell/ide-8.0-workspace/hw.x86_64/src/hardware/startup/boards/../../../../install/x86_64/usr/lib\libstartup.a(intel_pxh.o)
 .bss           0x0000000000000318        0x0 C:/Users/Dell/ide-8.0-workspace/hw.x86_64/src/hardware/startup/boards/../../../../install/x86_64/usr/lib\libstartup.a(invert_timer_freq.o)
 .bss           0x0000000000000318       0x10 C:/Users/Dell/ide-8.0-workspace/hw.x86_64/src/hardware/startup/boards/../../../../install/x86_64/usr/lib\libstartup.a(ioapic.o)
 .bss           0x0000000000000328        0x0 C:/Users/Dell/ide-8.0-workspace/hw.x86_64/src/hardware/startup/boards/../../../../install/x86_64/usr/lib\libstartup.a(ioapic_amd.o)
 .bss           0x0000000000000328        0x4 C:/Users/Dell/ide-8.0-workspace/hw.x86_64/src/hardware/startup/boards/../../../../install/x86_64/usr/lib\libstartup.a(ioapic_find.o)
 .bss           0x000000000000032c        0x0 C:/Users/Dell/ide-8.0-workspace/hw.x86_64/src/hardware/startup/boards/../../../../install/x86_64/usr/lib\libstartup.a(ioapic_generic.o)
 .bss           0x000000000000032c        0x0 C:/Users/Dell/ide-8.0-workspace/hw.x86_64/src/hardware/startup/boards/../../../../install/x86_64/usr/lib\libstartup.a(ioapic_ich.o)
 .bss           0x000000000000032c        0x0 C:/Users/Dell/ide-8.0-workspace/hw.x86_64/src/hardware/startup/boards/../../../../install/x86_64/usr/lib\libstartup.a(ioapic_intsrc_disposition.o)
 .bss           0x000000000000032c        0x0 C:/Users/Dell/ide-8.0-workspace/hw.x86_64/src/hardware/startup/boards/../../../../install/x86_64/usr/lib\libstartup.a(ioapic_ioh.o)
 .bss           0x000000000000032c        0x0 C:/Users/Dell/ide-8.0-workspace/hw.x86_64/src/hardware/startup/boards/../../../../install/x86_64/usr/lib\libstartup.a(is_uefi_boot.o)
 *fill*         0x000000000000032c        0x4 
 .bss           0x0000000000000330        0xc C:/Users/Dell/ide-8.0-workspace/hw.x86_64/src/hardware/startup/boards/../../../../install/x86_64/usr/lib\libstartup.a(itss_misc.o)
 .bss           0x000000000000033c        0x0 C:/Users/Dell/ide-8.0-workspace/hw.x86_64/src/hardware/startup/boards/../../../../install/x86_64/usr/lib\libstartup.a(jtag.o)
 *fill*         0x000000000000033c        0x4 
 .bss           0x0000000000000340       0x18 C:/Users/Dell/ide-8.0-workspace/hw.x86_64/src/hardware/startup/boards/../../../../install/x86_64/usr/lib\libstartup.a(kprintf.o)
 .bss           0x0000000000000358        0x0 C:/Users/Dell/ide-8.0-workspace/hw.x86_64/src/hardware/startup/boards/../../../../install/x86_64/usr/lib\libstartup.a(load_ifs.o)
 .bss           0x0000000000000358        0x0 C:/Users/Dell/ide-8.0-workspace/hw.x86_64/src/hardware/startup/boards/../../../../install/x86_64/usr/lib\libstartup.a(map_callout_mem.o)
 .bss           0x0000000000000358        0x0 C:/Users/Dell/ide-8.0-workspace/hw.x86_64/src/hardware/startup/boards/../../../../install/x86_64/usr/lib\libstartup.a(map_startup_mem.o)
 .bss           0x0000000000000358        0x0 C:/Users/Dell/ide-8.0-workspace/hw.x86_64/src/hardware/startup/boards/../../../../install/x86_64/usr/lib\libstartup.a(memcpy.o)
 .bss           0x0000000000000358        0x0 C:/Users/Dell/ide-8.0-workspace/hw.x86_64/src/hardware/startup/boards/../../../../install/x86_64/usr/lib\libstartup.a(memfuncs.o)
 .bss           0x0000000000000358        0x0 C:/Users/Dell/ide-8.0-workspace/hw.x86_64/src/hardware/startup/boards/../../../../install/x86_64/usr/lib\libstartup.a(memmove.o)
 .bss           0x0000000000000358        0x0 C:/Users/Dell/ide-8.0-workspace/hw.x86_64/src/hardware/startup/boards/../../../../install/x86_64/usr/lib\libstartup.a(p2sb_misc.o)
 .bss           0x0000000000000358       0x10 C:/Users/Dell/ide-8.0-workspace/hw.x86_64/src/hardware/startup/boards/../../../../install/x86_64/usr/lib\libstartup.a(pci_known_devs_table.o)
                0x0000000000000358                option_pci_device_table_size
                0x0000000000000360                option_pci_device_table
 .bss           0x0000000000000368        0x4 C:/Users/Dell/ide-8.0-workspace/hw.x86_64/src/hardware/startup/boards/../../../../install/x86_64/usr/lib\libstartup.a(pci_misc.o)
 .bss           0x000000000000036c        0x0 C:/Users/Dell/ide-8.0-workspace/hw.x86_64/src/hardware/startup/boards/../../../../install/x86_64/usr/lib\libstartup.a(pci_read_cfg16.o)
 .bss           0x000000000000036c        0x0 C:/Users/Dell/ide-8.0-workspace/hw.x86_64/src/hardware/startup/boards/../../../../install/x86_64/usr/lib\libstartup.a(pci_read_cfg32.o)
 .bss           0x000000000000036c        0x0 C:/Users/Dell/ide-8.0-workspace/hw.x86_64/src/hardware/startup/boards/../../../../install/x86_64/usr/lib\libstartup.a(pci_read_cfg8.o)
 .bss           0x000000000000036c        0x0 C:/Users/Dell/ide-8.0-workspace/hw.x86_64/src/hardware/startup/boards/../../../../install/x86_64/usr/lib\libstartup.a(pci_write_cfg16.o)
 .bss           0x000000000000036c        0x0 C:/Users/Dell/ide-8.0-workspace/hw.x86_64/src/hardware/startup/boards/../../../../install/x86_64/usr/lib\libstartup.a(pci_write_cfg32.o)
 .bss           0x000000000000036c        0x0 C:/Users/Dell/ide-8.0-workspace/hw.x86_64/src/hardware/startup/boards/../../../../install/x86_64/usr/lib\libstartup.a(pci_write_cfg8.o)
 .bss           0x000000000000036c        0x0 C:/Users/Dell/ide-8.0-workspace/hw.x86_64/src/hardware/startup/boards/../../../../install/x86_64/usr/lib\libstartup.a(pcu_misc.o)
 .bss           0x000000000000036c        0x0 C:/Users/Dell/ide-8.0-workspace/hw.x86_64/src/hardware/startup/boards/../../../../install/x86_64/usr/lib\libstartup.a(piix4_misc.o)
 .bss           0x000000000000036c        0x0 C:/Users/Dell/ide-8.0-workspace/hw.x86_64/src/hardware/startup/boards/../../../../install/x86_64/usr/lib\libstartup.a(print_sysp.o)
 *fill*         0x000000000000036c        0x4 
 .bss           0x0000000000000370       0x10 C:/Users/Dell/ide-8.0-workspace/hw.x86_64/src/hardware/startup/boards/../../../../install/x86_64/usr/lib\libstartup.a(processor64.o)
                0x0000000000000370                page_tables
 .bss           0x0000000000000380       0x34 C:/Users/Dell/ide-8.0-workspace/hw.x86_64/src/hardware/startup/boards/../../../../install/x86_64/usr/lib\libstartup.a(ram.o)
 *fill*         0x00000000000003b4        0x4 
 .bss           0x00000000000003b8       0x30 C:/Users/Dell/ide-8.0-workspace/hw.x86_64/src/hardware/startup/boards/../../../../install/x86_64/usr/lib\libstartup.a(restore_ifs.o)
                0x00000000000003b8                ifs2_size
                0x00000000000003c0                ifs2_paddr_dst
                0x00000000000003c8                ifs2_paddr_src
                0x00000000000003d0                rifs_flag
                0x00000000000003d8                rifs2_info
                0x00000000000003e0                rifs_info
 .bss           0x00000000000003e8        0x0 C:/Users/Dell/ide-8.0-workspace/hw.x86_64/src/hardware/startup/boards/../../../../install/x86_64/usr/lib\libstartup.a(sbx00_misc.o)
 .bss           0x00000000000003e8        0x0 C:/Users/Dell/ide-8.0-workspace/hw.x86_64/src/hardware/startup/boards/../../../../install/x86_64/usr/lib\libstartup.a(sch_misc.o)
 .bss           0x00000000000003e8        0x0 C:/Users/Dell/ide-8.0-workspace/hw.x86_64/src/hardware/startup/boards/../../../../install/x86_64/usr/lib\libstartup.a(set_cycles.o)
 .bss           0x00000000000003e8        0x0 C:/Users/Dell/ide-8.0-workspace/hw.x86_64/src/hardware/startup/boards/../../../../install/x86_64/usr/lib\libstartup.a(ssp.o)
 .bss           0x00000000000003e8        0x0 C:/Users/Dell/ide-8.0-workspace/hw.x86_64/src/hardware/startup/boards/../../../../install/x86_64/usr/lib\libstartup.a(startnext.o)
 .bss           0x00000000000003e8        0x0 C:/Users/Dell/ide-8.0-workspace/hw.x86_64/src/hardware/startup/boards/../../../../install/x86_64/usr/lib\libstartup.a(startup_info.o)
 .bss           0x00000000000003e8        0x0 C:/Users/Dell/ide-8.0-workspace/hw.x86_64/src/hardware/startup/boards/../../../../install/x86_64/usr/lib\libstartup.a(strings.o)
 .bss           0x00000000000003e8        0x0 C:/Users/Dell/ide-8.0-workspace/hw.x86_64/src/hardware/startup/boards/../../../../install/x86_64/usr/lib\libstartup.a(strtoul.o)
 *fill*         0x00000000000003e8       0x18 
 .bss           0x0000000000000400      0x100 C:/Users/Dell/ide-8.0-workspace/hw.x86_64/src/hardware/startup/boards/../../../../install/x86_64/usr/lib\libstartup.a(syspage_memory.o)
                0x0000000000000400                lsp
                0x00000000000004f0                syspage_paddr
 .bss           0x0000000000000500        0x0 C:/Users/Dell/ide-8.0-workspace/hw.x86_64/src/hardware/startup/boards/../../../../install/x86_64/usr/lib\libstartup.a(tweak_cmdline.o)
 .bss           0x0000000000000500       0x24 C:/Users/Dell/ide-8.0-workspace/hw.x86_64/src/hardware/startup/boards/../../../../install/x86_64/usr/lib\libstartup.a(uefi.o)
                0x0000000000000500                efi_runtime_services
                0x0000000000000508                efi_boot_services
                0x0000000000000510                efi_system_table
                0x0000000000000518                efi_image_handle
 .bss           0x0000000000000524        0x4 C:/Users/Dell/ide-8.0-workspace/hw.x86_64/src/hardware/startup/boards/../../../../install/x86_64/usr/lib\libstartup.a(uefi_init.o)
 *fill*         0x0000000000000528       0x18 
 .bss           0x0000000000000540      0x110 C:/Users/Dell/ide-8.0-workspace/hw.x86_64/src/hardware/startup/boards/../../../../install/x86_64/usr/lib\libstartup.a(uefi_io.o)
 *fill*         0x0000000000000650       0x10 
 .bss           0x0000000000000660       0x21 C:/Users/Dell/ide-8.0-workspace/hw.x86_64/src/hardware/startup/boards/../../../../install/x86_64/usr/lib\libstartup.a(ultoa_end.o)
 .bss           0x0000000000000681        0x0 C:/Users/Dell/ide-8.0-workspace/hw.x86_64/src/hardware/startup/boards/../../../../install/x86_64/usr/lib\libstartup.a(uncompress.o)
 .bss           0x0000000000000681        0x0 C:/Users/Dell/ide-8.0-workspace/hw.x86_64/src/hardware/startup/boards/../../../../install/x86_64/usr/lib\libstartup.a(uncompress_ucl.o)
 .bss           0x0000000000000681        0x0 C:/Users/Dell/ide-8.0-workspace/hw.x86_64/src/hardware/startup/boards/../../../../install/x86_64/usr/lib\libstartup.a(x86_64_pcbios_shadow.o)
 *fill*         0x0000000000000681        0xf 
 .bss           0x0000000000000690     0x1000 C:/Users/Dell/ide-8.0-workspace/hw.x86_64/src/hardware/startup/boards/../../../../install/x86_64/usr/lib\libstartup.a(64apstart.o)
 .bss           0x0000000000001690        0x8 C:/Users/Dell/ide-8.0-workspace/hw.x86_64/src/hardware/startup/boards/../../../../install/x86_64/usr/lib\libstartup.a(acpi.o)
 .bss           0x0000000000001698        0x0 C:/Users/Dell/ide-8.0-workspace/hw.x86_64/src/hardware/startup/boards/../../../../install/x86_64/usr/lib\libstartup.a(acpi_ioapic.o)
 .bss           0x0000000000001698        0x8 C:/Users/Dell/ide-8.0-workspace/hw.x86_64/src/hardware/startup/boards/../../../../install/x86_64/usr/lib\libstartup.a(add_interrupt.o)
 .bss           0x00000000000016a0        0x0 C:/Users/Dell/ide-8.0-workspace/hw.x86_64/src/hardware/startup/boards/../../../../install/x86_64/usr/lib\libstartup.a(alloc_qtime.o)
 .bss           0x00000000000016a0        0x0 C:/Users/Dell/ide-8.0-workspace/hw.x86_64/src/hardware/startup/boards/../../../../install/x86_64/usr/lib\libstartup.a(amd_misc.o)
 .bss           0x00000000000016a0        0x0 C:/Users/Dell/ide-8.0-workspace/hw.x86_64/src/hardware/startup/boards/../../../../install/x86_64/usr/lib\libstartup.a(ap_fail.o)
 .bss           0x00000000000016a0       0xe0 C:/Users/Dell/ide-8.0-workspace/hw.x86_64/src/hardware/startup/boards/../../../../install/x86_64/usr/lib\libstartup.a(apic_io_intr.o)
 .bss           0x0000000000001780       0x18 C:/Users/Dell/ide-8.0-workspace/hw.x86_64/src/hardware/startup/boards/../../../../install/x86_64/usr/lib\libstartup.a(apic_local_intr.o)
 .bss           0x0000000000001798       0x10 C:/Users/Dell/ide-8.0-workspace/hw.x86_64/src/hardware/startup/boards/../../../../install/x86_64/usr/lib\libstartup.a(apic_paddr.o)
                0x0000000000001798                lapic_startup_vaddr
                0x00000000000017a0                lapic_callout_vaddr
 .bss           0x00000000000017a8        0x0 C:/Users/Dell/ide-8.0-workspace/hw.x86_64/src/hardware/startup/boards/../../../../install/x86_64/usr/lib\libstartup.a(as_add.o)
 .bss           0x00000000000017a8        0x0 C:/Users/Dell/ide-8.0-workspace/hw.x86_64/src/hardware/startup/boards/../../../../install/x86_64/usr/lib\libstartup.a(as_add64.o)
 .bss           0x00000000000017a8        0x0 C:/Users/Dell/ide-8.0-workspace/hw.x86_64/src/hardware/startup/boards/../../../../install/x86_64/usr/lib\libstartup.a(as_add_containing.o)
 .bss           0x00000000000017a8        0x0 C:/Users/Dell/ide-8.0-workspace/hw.x86_64/src/hardware/startup/boards/../../../../install/x86_64/usr/lib\libstartup.a(as_default.o)
 .bss           0x00000000000017a8        0x0 C:/Users/Dell/ide-8.0-workspace/hw.x86_64/src/hardware/startup/boards/../../../../install/x86_64/usr/lib\libstartup.a(as_find.o)
 .bss           0x00000000000017a8        0x0 C:/Users/Dell/ide-8.0-workspace/hw.x86_64/src/hardware/startup/boards/../../../../install/x86_64/usr/lib\libstartup.a(as_find_containing.o)
 .bss           0x00000000000017a8        0x0 C:/Users/Dell/ide-8.0-workspace/hw.x86_64/src/hardware/startup/boards/../../../../install/x86_64/usr/lib\libstartup.a(as_off2info.o)
 .bss           0x00000000000017a8        0x0 C:/Users/Dell/ide-8.0-workspace/hw.x86_64/src/hardware/startup/boards/../../../../install/x86_64/usr/lib\libstartup.a(board_find_acpi_rsdp.o)
 .bss           0x00000000000017a8        0x4 C:/Users/Dell/ide-8.0-workspace/hw.x86_64/src/hardware/startup/boards/../../../../install/x86_64/usr/lib\libstartup.a(board_find_acpi_rsdp_bios.o)
 .bss           0x00000000000017ac        0x4 C:/Users/Dell/ide-8.0-workspace/hw.x86_64/src/hardware/startup/boards/../../../../install/x86_64/usr/lib\libstartup.a(board_find_acpi_rsdp_uefi.o)
 .bss           0x00000000000017b0        0x0 C:/Users/Dell/ide-8.0-workspace/hw.x86_64/src/hardware/startup/boards/../../../../install/x86_64/usr/lib\libstartup.a(board_smp.o)
 .bss           0x00000000000017b0        0x0 C:/Users/Dell/ide-8.0-workspace/hw.x86_64/src/hardware/startup/boards/../../../../install/x86_64/usr/lib\libstartup.a(board_sysctl.o)
 .bss           0x00000000000017b0        0x0 C:/Users/Dell/ide-8.0-workspace/hw.x86_64/src/hardware/startup/boards/../../../../install/x86_64/usr/lib\libstartup.a(calc_cksum.o)
 .bss           0x00000000000017b0        0x0 C:/Users/Dell/ide-8.0-workspace/hw.x86_64/src/hardware/startup/boards/../../../../install/x86_64/usr/lib\libstartup.a(callout_apstart.o)
 .bss           0x00000000000017b0        0x0 C:/Users/Dell/ide-8.0-workspace/hw.x86_64/src/hardware/startup/boards/../../../../install/x86_64/usr/lib\libstartup.a(callout_interrupt_apic.o)
 .bss           0x00000000000017b0        0x0 C:/Users/Dell/ide-8.0-workspace/hw.x86_64/src/hardware/startup/boards/../../../../install/x86_64/usr/lib\libstartup.a(callout_interrupt_ioapic.o)
 .bss           0x00000000000017b0        0x0 C:/Users/Dell/ide-8.0-workspace/hw.x86_64/src/hardware/startup/boards/../../../../install/x86_64/usr/lib\libstartup.a(callout_reboot.o)
 .bss           0x00000000000017b0       0x20 C:/Users/Dell/ide-8.0-workspace/hw.x86_64/src/hardware/startup/boards/../../../../install/x86_64/usr/lib\libstartup.a(callouts.o)
 .bss           0x00000000000017d0       0x10 C:/Users/Dell/ide-8.0-workspace/hw.x86_64/src/hardware/startup/boards/../../../../install/x86_64/usr/lib\libstartup.a(chip_access.o)
 .bss           0x00000000000017e0        0x0 C:/Users/Dell/ide-8.0-workspace/hw.x86_64/src/hardware/startup/boards/../../../../install/x86_64/usr/lib\libstartup.a(cpu_family_clock.o)
 .bss           0x00000000000017e0        0x4 C:/Users/Dell/ide-8.0-workspace/hw.x86_64/src/hardware/startup/boards/../../../../install/x86_64/usr/lib\libstartup.a(cpu_family_model.o)
 .bss           0x00000000000017e4       0x14 C:/Users/Dell/ide-8.0-workspace/hw.x86_64/src/hardware/startup/boards/../../../../install/x86_64/usr/lib\libstartup.a(cpu_features.o)
                0x00000000000017e4                cpu_features_set
                0x00000000000017e8                cpu_tsc
                0x00000000000017ec                cpu_features3
                0x00000000000017f0                cpu_features2
                0x00000000000017f4                cpu_features
 .bss           0x00000000000017f8        0x0 C:/Users/Dell/ide-8.0-workspace/hw.x86_64/src/hardware/startup/boards/../../../../install/x86_64/usr/lib\libstartup.a(cpu_id.o)
 .bss           0x00000000000017f8        0x0 C:/Users/Dell/ide-8.0-workspace/hw.x86_64/src/hardware/startup/boards/../../../../install/x86_64/usr/lib\libstartup.a(cpu_startnext.o)
 .bss           0x00000000000017f8       0x10 C:/Users/Dell/ide-8.0-workspace/hw.x86_64/src/hardware/startup/boards/../../../../install/x86_64/usr/lib\libstartup.a(cpu_syspage_memory.o)
                0x00000000000017f8                idt_ptr
                0x0000000000001800                gdt_ptr
 .bss           0x0000000000001808        0x0 C:/Users/Dell/ide-8.0-workspace/hw.x86_64/src/hardware/startup/boards/../../../../install/x86_64/usr/lib\libstartup.a(cpu_tsc.o)
 .bss           0x0000000000001808        0x8 C:/Users/Dell/ide-8.0-workspace/hw.x86_64/src/hardware/startup/boards/../../../../install/x86_64/usr/lib\libstartup.a(cpu_tweak_cmdline.o)
 .bss           0x0000000000001810        0x0 C:/Users/Dell/ide-8.0-workspace/hw.x86_64/src/hardware/startup/boards/../../../../install/x86_64/usr/lib\libstartup.a(crash_done.o)
 .bss           0x0000000000001810        0x0 C:/Users/Dell/ide-8.0-workspace/hw.x86_64/src/hardware/startup/boards/../../../../install/x86_64/usr/lib\libstartup.a(dummy_print_char.o)
 .bss           0x0000000000001810        0x0 C:/Users/Dell/ide-8.0-workspace/hw.x86_64/src/hardware/startup/boards/../../../../install/x86_64/usr/lib\libstartup.a(elf.o)
 .bss           0x0000000000001810        0x0 C:/Users/Dell/ide-8.0-workspace/hw.x86_64/src/hardware/startup/boards/../../../../install/x86_64/usr/lib\libstartup.a(elf32.o)
 .bss           0x0000000000001810        0x0 C:/Users/Dell/ide-8.0-workspace/hw.x86_64/src/hardware/startup/boards/../../../../install/x86_64/usr/lib\libstartup.a(elf64.o)
 .bss           0x0000000000001810        0x8 C:/Users/Dell/ide-8.0-workspace/hw.x86_64/src/hardware/startup/boards/../../../../install/x86_64/usr/lib\libstartup.a(elf_map.o)
 .bss           0x0000000000001818       0x20 C:/Users/Dell/ide-8.0-workspace/hw.x86_64/src/hardware/startup/boards/../../../../install/x86_64/usr/lib\libstartup.a(fdt_vars.o)
                0x0000000000001818                fdt_boot_option
                0x0000000000001820                fdt_size
                0x0000000000001828                fdt_paddr
                0x0000000000001830                fdt
 .bss           0x0000000000001838        0x0 C:/Users/Dell/ide-8.0-workspace/hw.x86_64/src/hardware/startup/boards/../../../../install/x86_64/usr/lib\libstartup.a(find_ecam_base.o)
 .bss           0x0000000000001838        0x0 C:/Users/Dell/ide-8.0-workspace/hw.x86_64/src/hardware/startup/boards/../../../../install/x86_64/usr/lib\libstartup.a(find_top_intr.o)
 .bss           0x0000000000001838       0x24 C:/Users/Dell/ide-8.0-workspace/hw.x86_64/src/hardware/startup/boards/../../../../install/x86_64/usr/lib\libstartup.a(hv_guest.o)
                0x0000000000001838                hypervisor_host
 .bss           0x000000000000185c        0x0 C:/Users/Dell/ide-8.0-workspace/hw.x86_64/src/hardware/startup/boards/../../../../install/x86_64/usr/lib\libstartup.a(hw_cpuid_string.o)
 .bss           0x000000000000185c        0x0 C:/Users/Dell/ide-8.0-workspace/hw.x86_64/src/hardware/startup/boards/../../../../install/x86_64/usr/lib\libstartup.a(hw_cpuspeed.o)
 .bss           0x000000000000185c        0x0 C:/Users/Dell/ide-8.0-workspace/hw.x86_64/src/hardware/startup/boards/../../../../install/x86_64/usr/lib\libstartup.a(hw_scanmem.o)
 .bss           0x000000000000185c        0x0 C:/Users/Dell/ide-8.0-workspace/hw.x86_64/src/hardware/startup/boards/../../../../install/x86_64/usr/lib\libstartup.a(hwi_add_device.o)
 .bss           0x000000000000185c        0x0 C:/Users/Dell/ide-8.0-workspace/hw.x86_64/src/hardware/startup/boards/../../../../install/x86_64/usr/lib\libstartup.a(hwi_add_irq.o)
 .bss           0x000000000000185c        0x0 C:/Users/Dell/ide-8.0-workspace/hw.x86_64/src/hardware/startup/boards/../../../../install/x86_64/usr/lib\libstartup.a(hwi_add_location.o)
 .bss           0x000000000000185c        0x0 C:/Users/Dell/ide-8.0-workspace/hw.x86_64/src/hardware/startup/boards/../../../../install/x86_64/usr/lib\libstartup.a(hwi_default.o)
 .bss           0x000000000000185c        0x0 C:/Users/Dell/ide-8.0-workspace/hw.x86_64/src/hardware/startup/boards/../../../../install/x86_64/usr/lib\libstartup.a(hwi_find_as.o)
 .bss           0x000000000000185c        0x0 C:/Users/Dell/ide-8.0-workspace/hw.x86_64/src/hardware/startup/boards/../../../../install/x86_64/usr/lib\libstartup.a(hwidev_add.o)
 .bss           0x000000000000185c        0x0 C:/Users/Dell/ide-8.0-workspace/hw.x86_64/src/hardware/startup/boards/../../../../install/x86_64/usr/lib\libstartup.a(hwitag_add_irq.o)
 .bss           0x000000000000185c        0x0 C:/Users/Dell/ide-8.0-workspace/hw.x86_64/src/hardware/startup/boards/../../../../install/x86_64/usr/lib\libstartup.a(hwitag_add_location.o)
 .bss           0x000000000000185c        0x0 C:/Users/Dell/ide-8.0-workspace/hw.x86_64/src/hardware/startup/boards/../../../../install/x86_64/usr/lib\libstartup.a(hypervisor.o)
 .bss           0x000000000000185c        0x0 C:/Users/Dell/ide-8.0-workspace/hw.x86_64/src/hardware/startup/boards/../../../../install/x86_64/usr/lib\libstartup.a(ich_misc.o)
 *fill*         0x000000000000185c        0x4 
 .bss           0x0000000000001860       0x10 C:/Users/Dell/ide-8.0-workspace/hw.x86_64/src/hardware/startup/boards/../../../../install/x86_64/usr/lib\libstartup.a(imps.o)
 .bss           0x0000000000001870        0x0 C:/Users/Dell/ide-8.0-workspace/hw.x86_64/src/hardware/startup/boards/../../../../install/x86_64/usr/lib\libstartup.a(imps_ioapic.o)
 .bss           0x0000000000001870        0x0 C:/Users/Dell/ide-8.0-workspace/hw.x86_64/src/hardware/startup/boards/../../../../install/x86_64/usr/lib\libstartup.a(imps_smp.o)
 .bss           0x0000000000001870        0x0 C:/Users/Dell/ide-8.0-workspace/hw.x86_64/src/hardware/startup/boards/../../../../install/x86_64/usr/lib\libstartup.a(init_asinfo.o)
 .bss           0x0000000000001870       0x20 C:/Users/Dell/ide-8.0-workspace/hw.x86_64/src/hardware/startup/boards/../../../../install/x86_64/usr/lib\libstartup.a(init_gdt.o)
                0x0000000000001870                idt_size
                0x0000000000001878                idt_paddr
                0x0000000000001880                gdt_size
                0x0000000000001888                gdt_paddr
 .bss           0x0000000000001890        0x0 C:/Users/Dell/ide-8.0-workspace/hw.x86_64/src/hardware/startup/boards/../../../../install/x86_64/usr/lib\libstartup.a(init_mitigation_mem.o)
 .bss           0x0000000000001890        0x0 C:/Users/Dell/ide-8.0-workspace/hw.x86_64/src/hardware/startup/boards/../../../../install/x86_64/usr/lib\libstartup.a(ioapic_auto_config.o)
 .bss           0x0000000000001890        0x0 C:/Users/Dell/ide-8.0-workspace/hw.x86_64/src/hardware/startup/boards/../../../../install/x86_64/usr/lib\libstartup.a(ioapic_default_configs.o)
 .bss           0x0000000000001890        0x0 C:/Users/Dell/ide-8.0-workspace/hw.x86_64/src/hardware/startup/boards/../../../../install/x86_64/usr/lib\libstartup.a(map_startup_io.o)
 .bss           0x0000000000001890        0x0 C:/Users/Dell/ide-8.0-workspace/hw.x86_64/src/hardware/startup/boards/../../../../install/x86_64/usr/lib\libstartup.a(rtc_time.o)
 .bss           0x0000000000001890        0x0 C:/Users/Dell/ide-8.0-workspace/hw.x86_64/src/hardware/startup/boards/../../../../install/x86_64/usr/lib\libstartup.a(timer_ns2tick.o)
 .bss           0x0000000000001890        0x0 C:/Users/Dell/ide-8.0-workspace/hw.x86_64/src/hardware/startup/boards/../../../../install/x86_64/usr/lib\libstartup.a(timer_tick2ns.o)
 .bss           0x0000000000001890        0x0 C:/Users/Dell/ide-8.0-workspace/hw.x86_64/src/hardware/startup/boards/../../../../install/x86_64/usr/lib\libstartup.a(acpi_smp.o)
 *fill*         0x0000000000001890       0x10 
 .bss           0x00000000000018a0       0x60 C:/Users/Dell/ide-8.0-workspace/hw.x86_64/src/hardware/startup/boards/../../../../install/x86_64/usr/lib\libstartup.a(apic_smp.o)
 .bss           0x0000000000001900        0x0 C:/Users/Dell/ide-8.0-workspace/hw.x86_64/src/hardware/startup/boards/../../../../install/x86_64/usr/lib\libstartup.a(bootstrap_cmdline.o)
 .bss           0x0000000000001900        0x0 C:/Users/Dell/ide-8.0-workspace/hw.x86_64/src/hardware/startup/boards/../../../../install/x86_64/usr/lib\libstartup.a(hw_rtc_mc146818.o)
 .bss           0x0000000000001900        0x0 C:/Users/Dell/ide-8.0-workspace/hw.x86_64/src/hardware/startup/boards/../../../../install/x86_64/usr/lib\libstartup.a(hwi_add_rtc.o)
 .bss           0x0000000000001900        0x0 C:/Users/Dell/ide-8.0-workspace/hw.x86_64/src/hardware/startup/boards/../../../../install/x86_64/usr/lib\libstartup.a(16apstart.o)
 .bss           0x0000000000001900        0x0 C:/Users/Dell/ide-8.0-workspace/hw.x86_64/src/hardware/startup/boards/../../../../install/x86_64/usr/lib\libstartup.a(bcd2bin.o)
 .bss           0x0000000000001900        0x0 C:/Users/Dell/ide-8.0-workspace/hw.x86_64/src/hardware/startup/boards/../../../../install/x86_64/usr/lib\libstartup.a(calc_time_t.o)
 .bss           0x0000000000001900        0x0 C:/Users/Dell/qnx800/target/qnx/x86_64/usr/lib\libucl.a(n2b_d.o)
 .bss           0x0000000000001900        0x0 C:/Users/Dell/qnx800/target/qnx/x86_64/lib\libc.a(hwi_find_item.o)
 .bss           0x0000000000001900        0x0 C:/Users/Dell/qnx800/target/qnx/x86_64/lib\libc.a(hwi_off2tag.o)
 .bss           0x0000000000001900        0x0 C:/Users/Dell/qnx800/target/qnx/x86_64/lib\libc.a(hwi_tag2off.o)
 .bss           0x0000000000001900        0x0 C:/Users/Dell/qnx800/target/qnx/x86_64/lib\libc.a(memcmp.o)
 .bss           0x0000000000001900        0x0 C:/Users/Dell/qnx800/target/qnx/x86_64/lib\libc.a(memset.o)
 .bss           0x0000000000001900        0x0 C:/Users/Dell/qnx800/target/qnx/x86_64/lib\libc.a(strcasecmp.o)
 .bss           0x0000000000001900        0x0 C:/Users/Dell/qnx800/target/qnx/x86_64/lib\libc.a(strchr.o)
 .bss           0x0000000000001900        0x0 C:/Users/Dell/qnx800/target/qnx/x86_64/lib\libc.a(strcmp.o)
 .bss           0x0000000000001900        0x0 C:/Users/Dell/qnx800/target/qnx/x86_64/lib\libc.a(strlcpy.o)
 .bss           0x0000000000001900        0x0 C:/Users/Dell/qnx800/target/qnx/x86_64/lib\libc.a(strlen.o)
 .bss           0x0000000000001900        0x0 C:/Users/Dell/qnx800/target/qnx/x86_64/lib\libc.a(strstr.o)
 .bss           0x0000000000001900        0x8 C:/Users/Dell/qnx800/target/qnx/x86_64/lib\libc.a(__progname.o)
                0x0000000000001900                __progname
 .bss           0x0000000000001908        0x0 C:/Users/Dell/qnx800/target/qnx/x86_64/lib\libc.a(_ssp.o)
 .bss           0x0000000000001908        0x8 C:/Users/Dell/qnx800/target/qnx/x86_64/lib\libc.a(__stack_chk_guard.o)
                0x0000000000001908                __stack_chk_guard
 .bss           0x0000000000001910        0x8 C:/Users/Dell/qnx800/target/qnx/x86_64/lib\libc.a(xtolotab.o)
                0x0000000000001910                _Tls_setup__Tolotab
 .bss           0x0000000000001918        0x0 C:/Users/Dell/qnx800/target/qnx/x86_64/lib\libc.a(strncasecmp.o)
 .bss           0x0000000000001918        0x0 C:/Users/Dell/qnx800/target/qnx/x86_64/lib\libc.a(strncmp.o)
 .bss           0x0000000000001918        0x0 C:/Users/Dell/qnx800/target/qnx/x86_64/lib\libc.a(strrchr.o)

.lbss
 *(.lbss)

.lrodata
 *(.lrodata)

.ldata
 *(.ldata)

.stab
 *(.stab)

.stabstr
 *(.stabstr)

.stab.excl
 *(.stab.excl)

.stab.exclstr
 *(.stab.exclstr)

.stab.index
 *(.stab.index)

.stab.indexstr
 *(.stab.indexstr)

.comment        0x0000000000000000     0x2e57
 *(.comment)
 .comment       0x0000000000000000       0x46 main.o
 .comment       0x0000000000000046       0x46 C:/Users/Dell/ide-8.0-workspace/hw.x86_64/src/hardware/startup/boards/../../../../install/x86_64/usr/lib\libstartup.a(_main.o)
 .comment       0x000000000000008c       0x46 C:/Users/Dell/ide-8.0-workspace/hw.x86_64/src/hardware/startup/boards/../../../../install/x86_64/usr/lib\libstartup.a(board_init.o)
 .comment       0x00000000000000d2       0x46 C:/Users/Dell/ide-8.0-workspace/hw.x86_64/src/hardware/startup/boards/../../../../install/x86_64/usr/lib\libstartup.a(common_options.o)
 .comment       0x0000000000000118       0x46 C:/Users/Dell/ide-8.0-workspace/hw.x86_64/src/hardware/startup/boards/../../../../install/x86_64/usr/lib\libstartup.a(cpu_cluster_add.o)
 .comment       0x000000000000015e       0x46 C:/Users/Dell/ide-8.0-workspace/hw.x86_64/src/hardware/startup/boards/../../../../install/x86_64/usr/lib\libstartup.a(cpu_common_options.o)
 .comment       0x00000000000001a4       0x46 C:/Users/Dell/ide-8.0-workspace/hw.x86_64/src/hardware/startup/boards/../../../../install/x86_64/usr/lib\libstartup.a(cpu_startup.o)
 .comment       0x00000000000001ea       0x46 C:/Users/Dell/ide-8.0-workspace/hw.x86_64/src/hardware/startup/boards/../../../../install/x86_64/usr/lib\libstartup.a(debug.o)
 .comment       0x0000000000000230       0x46 C:/Users/Dell/ide-8.0-workspace/hw.x86_64/src/hardware/startup/boards/../../../../install/x86_64/usr/lib\libstartup.a(getopt.o)
 .comment       0x0000000000000276       0x46 C:/Users/Dell/ide-8.0-workspace/hw.x86_64/src/hardware/startup/boards/../../../../install/x86_64/usr/lib\libstartup.a(getsize.o)
 .comment       0x00000000000002bc       0x46 C:/Users/Dell/ide-8.0-workspace/hw.x86_64/src/hardware/startup/boards/../../../../install/x86_64/usr/lib\libstartup.a(hw_ser8250.o)
 .comment       0x0000000000000302       0x46 C:/Users/Dell/ide-8.0-workspace/hw.x86_64/src/hardware/startup/boards/../../../../install/x86_64/usr/lib\libstartup.a(hw_ser8250_pci.o)
 .comment       0x0000000000000348       0x46 C:/Users/Dell/ide-8.0-workspace/hw.x86_64/src/hardware/startup/boards/../../../../install/x86_64/usr/lib\libstartup.a(hw_vgaout32.o)
 .comment       0x000000000000038e       0x46 C:/Users/Dell/ide-8.0-workspace/hw.x86_64/src/hardware/startup/boards/../../../../install/x86_64/usr/lib\libstartup.a(hwi_add_nanospin.o)
 .comment       0x00000000000003d4       0x46 C:/Users/Dell/ide-8.0-workspace/hw.x86_64/src/hardware/startup/boards/../../../../install/x86_64/usr/lib\libstartup.a(hwi_alloc.o)
 .comment       0x000000000000041a       0x46 C:/Users/Dell/ide-8.0-workspace/hw.x86_64/src/hardware/startup/boards/../../../../install/x86_64/usr/lib\libstartup.a(hypervisor_setup.o)
 .comment       0x0000000000000460       0x46 C:/Users/Dell/ide-8.0-workspace/hw.x86_64/src/hardware/startup/boards/../../../../install/x86_64/usr/lib\libstartup.a(init_cacheattr.o)
 .comment       0x00000000000004a6       0x46 C:/Users/Dell/ide-8.0-workspace/hw.x86_64/src/hardware/startup/boards/../../../../install/x86_64/usr/lib\libstartup.a(init_cpuinfo.o)
 .comment       0x00000000000004ec       0x46 C:/Users/Dell/ide-8.0-workspace/hw.x86_64/src/hardware/startup/boards/../../../../install/x86_64/usr/lib\libstartup.a(init_hwinfo.o)
 .comment       0x0000000000000532       0x46 C:/Users/Dell/ide-8.0-workspace/hw.x86_64/src/hardware/startup/boards/../../../../install/x86_64/usr/lib\libstartup.a(init_intrinfo.o)
 .comment       0x0000000000000578       0x46 C:/Users/Dell/ide-8.0-workspace/hw.x86_64/src/hardware/startup/boards/../../../../install/x86_64/usr/lib\libstartup.a(init_intrinfo_msi.o)
 .comment       0x00000000000005be       0x46 C:/Users/Dell/ide-8.0-workspace/hw.x86_64/src/hardware/startup/boards/../../../../install/x86_64/usr/lib\libstartup.a(init_mmu.o)
 .comment       0x0000000000000604       0x46 C:/Users/Dell/ide-8.0-workspace/hw.x86_64/src/hardware/startup/boards/../../../../install/x86_64/usr/lib\libstartup.a(init_qtime.o)
 .comment       0x000000000000064a       0x46 C:/Users/Dell/ide-8.0-workspace/hw.x86_64/src/hardware/startup/boards/../../../../install/x86_64/usr/lib\libstartup.a(init_qtime_hpet.o)
 .comment       0x0000000000000690       0x46 C:/Users/Dell/ide-8.0-workspace/hw.x86_64/src/hardware/startup/boards/../../../../install/x86_64/usr/lib\libstartup.a(init_qtime_lapic.o)
 .comment       0x00000000000006d6       0x46 C:/Users/Dell/ide-8.0-workspace/hw.x86_64/src/hardware/startup/boards/../../../../install/x86_64/usr/lib\libstartup.a(init_raminfo.o)
 .comment       0x000000000000071c       0x46 C:/Users/Dell/ide-8.0-workspace/hw.x86_64/src/hardware/startup/boards/../../../../install/x86_64/usr/lib\libstartup.a(init_raminfo_uefi.o)
 .comment       0x0000000000000762       0x46 C:/Users/Dell/ide-8.0-workspace/hw.x86_64/src/hardware/startup/boards/../../../../install/x86_64/usr/lib\libstartup.a(init_reboot_callout.o)
 .comment       0x00000000000007a8       0x46 C:/Users/Dell/ide-8.0-workspace/hw.x86_64/src/hardware/startup/boards/../../../../install/x86_64/usr/lib\libstartup.a(init_smp.o)
 .comment       0x00000000000007ee       0x46 C:/Users/Dell/ide-8.0-workspace/hw.x86_64/src/hardware/startup/boards/../../../../install/x86_64/usr/lib\libstartup.a(init_system_private.o)
 .comment       0x0000000000000834       0x46 C:/Users/Dell/ide-8.0-workspace/hw.x86_64/src/hardware/startup/boards/../../../../install/x86_64/usr/lib\libstartup.a(intel_microcode_updates.o)
 .comment       0x000000000000087a       0x46 C:/Users/Dell/ide-8.0-workspace/hw.x86_64/src/hardware/startup/boards/../../../../install/x86_64/usr/lib\libstartup.a(intel_misc.o)
 .comment       0x00000000000008c0       0x46 C:/Users/Dell/ide-8.0-workspace/hw.x86_64/src/hardware/startup/boards/../../../../install/x86_64/usr/lib\libstartup.a(intel_pxh.o)
 .comment       0x0000000000000906       0x46 C:/Users/Dell/ide-8.0-workspace/hw.x86_64/src/hardware/startup/boards/../../../../install/x86_64/usr/lib\libstartup.a(invert_timer_freq.o)
 .comment       0x000000000000094c       0x46 C:/Users/Dell/ide-8.0-workspace/hw.x86_64/src/hardware/startup/boards/../../../../install/x86_64/usr/lib\libstartup.a(ioapic.o)
 .comment       0x0000000000000992       0x46 C:/Users/Dell/ide-8.0-workspace/hw.x86_64/src/hardware/startup/boards/../../../../install/x86_64/usr/lib\libstartup.a(ioapic_amd.o)
 .comment       0x00000000000009d8       0x46 C:/Users/Dell/ide-8.0-workspace/hw.x86_64/src/hardware/startup/boards/../../../../install/x86_64/usr/lib\libstartup.a(ioapic_find.o)
 .comment       0x0000000000000a1e       0x46 C:/Users/Dell/ide-8.0-workspace/hw.x86_64/src/hardware/startup/boards/../../../../install/x86_64/usr/lib\libstartup.a(ioapic_generic.o)
 .comment       0x0000000000000a64       0x46 C:/Users/Dell/ide-8.0-workspace/hw.x86_64/src/hardware/startup/boards/../../../../install/x86_64/usr/lib\libstartup.a(ioapic_ich.o)
 .comment       0x0000000000000aaa       0x46 C:/Users/Dell/ide-8.0-workspace/hw.x86_64/src/hardware/startup/boards/../../../../install/x86_64/usr/lib\libstartup.a(ioapic_intsrc_disposition.o)
 .comment       0x0000000000000af0       0x46 C:/Users/Dell/ide-8.0-workspace/hw.x86_64/src/hardware/startup/boards/../../../../install/x86_64/usr/lib\libstartup.a(ioapic_ioh.o)
 .comment       0x0000000000000b36       0x46 C:/Users/Dell/ide-8.0-workspace/hw.x86_64/src/hardware/startup/boards/../../../../install/x86_64/usr/lib\libstartup.a(is_uefi_boot.o)
 .comment       0x0000000000000b7c       0x46 C:/Users/Dell/ide-8.0-workspace/hw.x86_64/src/hardware/startup/boards/../../../../install/x86_64/usr/lib\libstartup.a(itss_misc.o)
 .comment       0x0000000000000bc2       0x46 C:/Users/Dell/ide-8.0-workspace/hw.x86_64/src/hardware/startup/boards/../../../../install/x86_64/usr/lib\libstartup.a(jtag.o)
 .comment       0x0000000000000c08       0x46 C:/Users/Dell/ide-8.0-workspace/hw.x86_64/src/hardware/startup/boards/../../../../install/x86_64/usr/lib\libstartup.a(kprintf.o)
 .comment       0x0000000000000c4e       0x46 C:/Users/Dell/ide-8.0-workspace/hw.x86_64/src/hardware/startup/boards/../../../../install/x86_64/usr/lib\libstartup.a(load_ifs.o)
 .comment       0x0000000000000c94       0x46 C:/Users/Dell/ide-8.0-workspace/hw.x86_64/src/hardware/startup/boards/../../../../install/x86_64/usr/lib\libstartup.a(map_callout_mem.o)
 .comment       0x0000000000000cda       0x46 C:/Users/Dell/ide-8.0-workspace/hw.x86_64/src/hardware/startup/boards/../../../../install/x86_64/usr/lib\libstartup.a(map_startup_mem.o)
 .comment       0x0000000000000d20       0x46 C:/Users/Dell/ide-8.0-workspace/hw.x86_64/src/hardware/startup/boards/../../../../install/x86_64/usr/lib\libstartup.a(memcpy.o)
 .comment       0x0000000000000d66       0x46 C:/Users/Dell/ide-8.0-workspace/hw.x86_64/src/hardware/startup/boards/../../../../install/x86_64/usr/lib\libstartup.a(memfuncs.o)
 .comment       0x0000000000000dac       0x46 C:/Users/Dell/ide-8.0-workspace/hw.x86_64/src/hardware/startup/boards/../../../../install/x86_64/usr/lib\libstartup.a(memmove.o)
 .comment       0x0000000000000df2       0x46 C:/Users/Dell/ide-8.0-workspace/hw.x86_64/src/hardware/startup/boards/../../../../install/x86_64/usr/lib\libstartup.a(p2sb_misc.o)
 .comment       0x0000000000000e38       0x46 C:/Users/Dell/ide-8.0-workspace/hw.x86_64/src/hardware/startup/boards/../../../../install/x86_64/usr/lib\libstartup.a(pci_known_devs_table.o)
 .comment       0x0000000000000e7e       0x46 C:/Users/Dell/ide-8.0-workspace/hw.x86_64/src/hardware/startup/boards/../../../../install/x86_64/usr/lib\libstartup.a(pci_misc.o)
 .comment       0x0000000000000ec4       0x46 C:/Users/Dell/ide-8.0-workspace/hw.x86_64/src/hardware/startup/boards/../../../../install/x86_64/usr/lib\libstartup.a(pci_read_cfg16.o)
 .comment       0x0000000000000f0a       0x46 C:/Users/Dell/ide-8.0-workspace/hw.x86_64/src/hardware/startup/boards/../../../../install/x86_64/usr/lib\libstartup.a(pci_read_cfg32.o)
 .comment       0x0000000000000f50       0x46 C:/Users/Dell/ide-8.0-workspace/hw.x86_64/src/hardware/startup/boards/../../../../install/x86_64/usr/lib\libstartup.a(pci_read_cfg8.o)
 .comment       0x0000000000000f96       0x46 C:/Users/Dell/ide-8.0-workspace/hw.x86_64/src/hardware/startup/boards/../../../../install/x86_64/usr/lib\libstartup.a(pci_write_cfg16.o)
 .comment       0x0000000000000fdc       0x46 C:/Users/Dell/ide-8.0-workspace/hw.x86_64/src/hardware/startup/boards/../../../../install/x86_64/usr/lib\libstartup.a(pci_write_cfg32.o)
 .comment       0x0000000000001022       0x46 C:/Users/Dell/ide-8.0-workspace/hw.x86_64/src/hardware/startup/boards/../../../../install/x86_64/usr/lib\libstartup.a(pci_write_cfg8.o)
 .comment       0x0000000000001068       0x46 C:/Users/Dell/ide-8.0-workspace/hw.x86_64/src/hardware/startup/boards/../../../../install/x86_64/usr/lib\libstartup.a(pcu_misc.o)
 .comment       0x00000000000010ae       0x46 C:/Users/Dell/ide-8.0-workspace/hw.x86_64/src/hardware/startup/boards/../../../../install/x86_64/usr/lib\libstartup.a(piix4_misc.o)
 .comment       0x00000000000010f4       0x46 C:/Users/Dell/ide-8.0-workspace/hw.x86_64/src/hardware/startup/boards/../../../../install/x86_64/usr/lib\libstartup.a(print_sysp.o)
 .comment       0x000000000000113a       0x46 C:/Users/Dell/ide-8.0-workspace/hw.x86_64/src/hardware/startup/boards/../../../../install/x86_64/usr/lib\libstartup.a(processor64.o)
 .comment       0x0000000000001180       0x46 C:/Users/Dell/ide-8.0-workspace/hw.x86_64/src/hardware/startup/boards/../../../../install/x86_64/usr/lib\libstartup.a(ram.o)
 .comment       0x00000000000011c6       0x46 C:/Users/Dell/ide-8.0-workspace/hw.x86_64/src/hardware/startup/boards/../../../../install/x86_64/usr/lib\libstartup.a(restore_ifs.o)
 .comment       0x000000000000120c       0x46 C:/Users/Dell/ide-8.0-workspace/hw.x86_64/src/hardware/startup/boards/../../../../install/x86_64/usr/lib\libstartup.a(sbx00_misc.o)
 .comment       0x0000000000001252       0x46 C:/Users/Dell/ide-8.0-workspace/hw.x86_64/src/hardware/startup/boards/../../../../install/x86_64/usr/lib\libstartup.a(sch_misc.o)
 .comment       0x0000000000001298       0x46 C:/Users/Dell/ide-8.0-workspace/hw.x86_64/src/hardware/startup/boards/../../../../install/x86_64/usr/lib\libstartup.a(set_cycles.o)
 .comment       0x00000000000012de       0x46 C:/Users/Dell/ide-8.0-workspace/hw.x86_64/src/hardware/startup/boards/../../../../install/x86_64/usr/lib\libstartup.a(ssp.o)
 .comment       0x0000000000001324       0x46 C:/Users/Dell/ide-8.0-workspace/hw.x86_64/src/hardware/startup/boards/../../../../install/x86_64/usr/lib\libstartup.a(startnext.o)
 .comment       0x000000000000136a       0x46 C:/Users/Dell/ide-8.0-workspace/hw.x86_64/src/hardware/startup/boards/../../../../install/x86_64/usr/lib\libstartup.a(startup_info.o)
 .comment       0x00000000000013b0       0x46 C:/Users/Dell/ide-8.0-workspace/hw.x86_64/src/hardware/startup/boards/../../../../install/x86_64/usr/lib\libstartup.a(strings.o)
 .comment       0x00000000000013f6       0x46 C:/Users/Dell/ide-8.0-workspace/hw.x86_64/src/hardware/startup/boards/../../../../install/x86_64/usr/lib\libstartup.a(strtoul.o)
 .comment       0x000000000000143c       0x46 C:/Users/Dell/ide-8.0-workspace/hw.x86_64/src/hardware/startup/boards/../../../../install/x86_64/usr/lib\libstartup.a(syspage_memory.o)
 .comment       0x0000000000001482       0x46 C:/Users/Dell/ide-8.0-workspace/hw.x86_64/src/hardware/startup/boards/../../../../install/x86_64/usr/lib\libstartup.a(tweak_cmdline.o)
 .comment       0x00000000000014c8       0x46 C:/Users/Dell/ide-8.0-workspace/hw.x86_64/src/hardware/startup/boards/../../../../install/x86_64/usr/lib\libstartup.a(uefi.o)
 .comment       0x000000000000150e       0x46 C:/Users/Dell/ide-8.0-workspace/hw.x86_64/src/hardware/startup/boards/../../../../install/x86_64/usr/lib\libstartup.a(uefi_init.o)
 .comment       0x0000000000001554       0x46 C:/Users/Dell/ide-8.0-workspace/hw.x86_64/src/hardware/startup/boards/../../../../install/x86_64/usr/lib\libstartup.a(uefi_io.o)
 .comment       0x000000000000159a       0x46 C:/Users/Dell/ide-8.0-workspace/hw.x86_64/src/hardware/startup/boards/../../../../install/x86_64/usr/lib\libstartup.a(ultoa_end.o)
 .comment       0x00000000000015e0       0x46 C:/Users/Dell/ide-8.0-workspace/hw.x86_64/src/hardware/startup/boards/../../../../install/x86_64/usr/lib\libstartup.a(uncompress.o)
 .comment       0x0000000000001626       0x46 C:/Users/Dell/ide-8.0-workspace/hw.x86_64/src/hardware/startup/boards/../../../../install/x86_64/usr/lib\libstartup.a(uncompress_ucl.o)
 .comment       0x000000000000166c       0x46 C:/Users/Dell/ide-8.0-workspace/hw.x86_64/src/hardware/startup/boards/../../../../install/x86_64/usr/lib\libstartup.a(x86_64_pcbios_shadow.o)
 .comment       0x00000000000016b2       0x46 C:/Users/Dell/ide-8.0-workspace/hw.x86_64/src/hardware/startup/boards/../../../../install/x86_64/usr/lib\libstartup.a(acpi.o)
 .comment       0x00000000000016f8       0x46 C:/Users/Dell/ide-8.0-workspace/hw.x86_64/src/hardware/startup/boards/../../../../install/x86_64/usr/lib\libstartup.a(acpi_ioapic.o)
 .comment       0x000000000000173e       0x46 C:/Users/Dell/ide-8.0-workspace/hw.x86_64/src/hardware/startup/boards/../../../../install/x86_64/usr/lib\libstartup.a(add_interrupt.o)
 .comment       0x0000000000001784       0x46 C:/Users/Dell/ide-8.0-workspace/hw.x86_64/src/hardware/startup/boards/../../../../install/x86_64/usr/lib\libstartup.a(alloc_qtime.o)
 .comment       0x00000000000017ca       0x46 C:/Users/Dell/ide-8.0-workspace/hw.x86_64/src/hardware/startup/boards/../../../../install/x86_64/usr/lib\libstartup.a(amd_misc.o)
 .comment       0x0000000000001810       0x46 C:/Users/Dell/ide-8.0-workspace/hw.x86_64/src/hardware/startup/boards/../../../../install/x86_64/usr/lib\libstartup.a(ap_fail.o)
 .comment       0x0000000000001856       0x46 C:/Users/Dell/ide-8.0-workspace/hw.x86_64/src/hardware/startup/boards/../../../../install/x86_64/usr/lib\libstartup.a(apic_io_intr.o)
 .comment       0x000000000000189c       0x46 C:/Users/Dell/ide-8.0-workspace/hw.x86_64/src/hardware/startup/boards/../../../../install/x86_64/usr/lib\libstartup.a(apic_local_intr.o)
 .comment       0x00000000000018e2       0x46 C:/Users/Dell/ide-8.0-workspace/hw.x86_64/src/hardware/startup/boards/../../../../install/x86_64/usr/lib\libstartup.a(apic_paddr.o)
 .comment       0x0000000000001928       0x46 C:/Users/Dell/ide-8.0-workspace/hw.x86_64/src/hardware/startup/boards/../../../../install/x86_64/usr/lib\libstartup.a(as_add.o)
 .comment       0x000000000000196e       0x46 C:/Users/Dell/ide-8.0-workspace/hw.x86_64/src/hardware/startup/boards/../../../../install/x86_64/usr/lib\libstartup.a(as_add64.o)
 .comment       0x00000000000019b4       0x46 C:/Users/Dell/ide-8.0-workspace/hw.x86_64/src/hardware/startup/boards/../../../../install/x86_64/usr/lib\libstartup.a(as_add_containing.o)
 .comment       0x00000000000019fa       0x46 C:/Users/Dell/ide-8.0-workspace/hw.x86_64/src/hardware/startup/boards/../../../../install/x86_64/usr/lib\libstartup.a(as_default.o)
 .comment       0x0000000000001a40       0x46 C:/Users/Dell/ide-8.0-workspace/hw.x86_64/src/hardware/startup/boards/../../../../install/x86_64/usr/lib\libstartup.a(as_find.o)
 .comment       0x0000000000001a86       0x46 C:/Users/Dell/ide-8.0-workspace/hw.x86_64/src/hardware/startup/boards/../../../../install/x86_64/usr/lib\libstartup.a(as_find_containing.o)
 .comment       0x0000000000001acc       0x46 C:/Users/Dell/ide-8.0-workspace/hw.x86_64/src/hardware/startup/boards/../../../../install/x86_64/usr/lib\libstartup.a(as_off2info.o)
 .comment       0x0000000000001b12       0x46 C:/Users/Dell/ide-8.0-workspace/hw.x86_64/src/hardware/startup/boards/../../../../install/x86_64/usr/lib\libstartup.a(board_find_acpi_rsdp.o)
 .comment       0x0000000000001b58       0x46 C:/Users/Dell/ide-8.0-workspace/hw.x86_64/src/hardware/startup/boards/../../../../install/x86_64/usr/lib\libstartup.a(board_find_acpi_rsdp_bios.o)
 .comment       0x0000000000001b9e       0x46 C:/Users/Dell/ide-8.0-workspace/hw.x86_64/src/hardware/startup/boards/../../../../install/x86_64/usr/lib\libstartup.a(board_find_acpi_rsdp_uefi.o)
 .comment       0x0000000000001be4       0x46 C:/Users/Dell/ide-8.0-workspace/hw.x86_64/src/hardware/startup/boards/../../../../install/x86_64/usr/lib\libstartup.a(board_smp.o)
 .comment       0x0000000000001c2a       0x46 C:/Users/Dell/ide-8.0-workspace/hw.x86_64/src/hardware/startup/boards/../../../../install/x86_64/usr/lib\libstartup.a(board_sysctl.o)
 .comment       0x0000000000001c70       0x46 C:/Users/Dell/ide-8.0-workspace/hw.x86_64/src/hardware/startup/boards/../../../../install/x86_64/usr/lib\libstartup.a(calc_cksum.o)
 .comment       0x0000000000001cb6       0x46 C:/Users/Dell/ide-8.0-workspace/hw.x86_64/src/hardware/startup/boards/../../../../install/x86_64/usr/lib\libstartup.a(callouts.o)
 .comment       0x0000000000001cfc       0x46 C:/Users/Dell/ide-8.0-workspace/hw.x86_64/src/hardware/startup/boards/../../../../install/x86_64/usr/lib\libstartup.a(chip_access.o)
 .comment       0x0000000000001d42       0x46 C:/Users/Dell/ide-8.0-workspace/hw.x86_64/src/hardware/startup/boards/../../../../install/x86_64/usr/lib\libstartup.a(cpu_family_clock.o)
 .comment       0x0000000000001d88       0x46 C:/Users/Dell/ide-8.0-workspace/hw.x86_64/src/hardware/startup/boards/../../../../install/x86_64/usr/lib\libstartup.a(cpu_family_model.o)
 .comment       0x0000000000001dce       0x46 C:/Users/Dell/ide-8.0-workspace/hw.x86_64/src/hardware/startup/boards/../../../../install/x86_64/usr/lib\libstartup.a(cpu_features.o)
 .comment       0x0000000000001e14       0x46 C:/Users/Dell/ide-8.0-workspace/hw.x86_64/src/hardware/startup/boards/../../../../install/x86_64/usr/lib\libstartup.a(cpu_startnext.o)
 .comment       0x0000000000001e5a       0x46 C:/Users/Dell/ide-8.0-workspace/hw.x86_64/src/hardware/startup/boards/../../../../install/x86_64/usr/lib\libstartup.a(cpu_syspage_memory.o)
 .comment       0x0000000000001ea0       0x46 C:/Users/Dell/ide-8.0-workspace/hw.x86_64/src/hardware/startup/boards/../../../../install/x86_64/usr/lib\libstartup.a(cpu_tsc.o)
 .comment       0x0000000000001ee6       0x46 C:/Users/Dell/ide-8.0-workspace/hw.x86_64/src/hardware/startup/boards/../../../../install/x86_64/usr/lib\libstartup.a(cpu_tweak_cmdline.o)
 .comment       0x0000000000001f2c       0x46 C:/Users/Dell/ide-8.0-workspace/hw.x86_64/src/hardware/startup/boards/../../../../install/x86_64/usr/lib\libstartup.a(crash_done.o)
 .comment       0x0000000000001f72       0x46 C:/Users/Dell/ide-8.0-workspace/hw.x86_64/src/hardware/startup/boards/../../../../install/x86_64/usr/lib\libstartup.a(dummy_print_char.o)
 .comment       0x0000000000001fb8       0x46 C:/Users/Dell/ide-8.0-workspace/hw.x86_64/src/hardware/startup/boards/../../../../install/x86_64/usr/lib\libstartup.a(elf.o)
 .comment       0x0000000000001ffe       0x46 C:/Users/Dell/ide-8.0-workspace/hw.x86_64/src/hardware/startup/boards/../../../../install/x86_64/usr/lib\libstartup.a(elf32.o)
 .comment       0x0000000000002044       0x46 C:/Users/Dell/ide-8.0-workspace/hw.x86_64/src/hardware/startup/boards/../../../../install/x86_64/usr/lib\libstartup.a(elf64.o)
 .comment       0x000000000000208a       0x46 C:/Users/Dell/ide-8.0-workspace/hw.x86_64/src/hardware/startup/boards/../../../../install/x86_64/usr/lib\libstartup.a(elf_map.o)
 .comment       0x00000000000020d0       0x46 C:/Users/Dell/ide-8.0-workspace/hw.x86_64/src/hardware/startup/boards/../../../../install/x86_64/usr/lib\libstartup.a(fdt_vars.o)
 .comment       0x0000000000002116       0x46 C:/Users/Dell/ide-8.0-workspace/hw.x86_64/src/hardware/startup/boards/../../../../install/x86_64/usr/lib\libstartup.a(find_ecam_base.o)
 .comment       0x000000000000215c       0x46 C:/Users/Dell/ide-8.0-workspace/hw.x86_64/src/hardware/startup/boards/../../../../install/x86_64/usr/lib\libstartup.a(find_top_intr.o)
 .comment       0x00000000000021a2       0x46 C:/Users/Dell/ide-8.0-workspace/hw.x86_64/src/hardware/startup/boards/../../../../install/x86_64/usr/lib\libstartup.a(hv_guest.o)
 .comment       0x00000000000021e8       0x46 C:/Users/Dell/ide-8.0-workspace/hw.x86_64/src/hardware/startup/boards/../../../../install/x86_64/usr/lib\libstartup.a(hw_cpuid_string.o)
 .comment       0x000000000000222e       0x46 C:/Users/Dell/ide-8.0-workspace/hw.x86_64/src/hardware/startup/boards/../../../../install/x86_64/usr/lib\libstartup.a(hw_cpuspeed.o)
 .comment       0x0000000000002274       0x46 C:/Users/Dell/ide-8.0-workspace/hw.x86_64/src/hardware/startup/boards/../../../../install/x86_64/usr/lib\libstartup.a(hw_scanmem.o)
 .comment       0x00000000000022ba       0x46 C:/Users/Dell/ide-8.0-workspace/hw.x86_64/src/hardware/startup/boards/../../../../install/x86_64/usr/lib\libstartup.a(hwi_add_device.o)
 .comment       0x0000000000002300       0x46 C:/Users/Dell/ide-8.0-workspace/hw.x86_64/src/hardware/startup/boards/../../../../install/x86_64/usr/lib\libstartup.a(hwi_add_irq.o)
 .comment       0x0000000000002346       0x46 C:/Users/Dell/ide-8.0-workspace/hw.x86_64/src/hardware/startup/boards/../../../../install/x86_64/usr/lib\libstartup.a(hwi_add_location.o)
 .comment       0x000000000000238c       0x46 C:/Users/Dell/ide-8.0-workspace/hw.x86_64/src/hardware/startup/boards/../../../../install/x86_64/usr/lib\libstartup.a(hwi_default.o)
 .comment       0x00000000000023d2       0x46 C:/Users/Dell/ide-8.0-workspace/hw.x86_64/src/hardware/startup/boards/../../../../install/x86_64/usr/lib\libstartup.a(hwi_find_as.o)
 .comment       0x0000000000002418       0x46 C:/Users/Dell/ide-8.0-workspace/hw.x86_64/src/hardware/startup/boards/../../../../install/x86_64/usr/lib\libstartup.a(hwidev_add.o)
 .comment       0x000000000000245e       0x46 C:/Users/Dell/ide-8.0-workspace/hw.x86_64/src/hardware/startup/boards/../../../../install/x86_64/usr/lib\libstartup.a(hwitag_add_irq.o)
 .comment       0x00000000000024a4       0x46 C:/Users/Dell/ide-8.0-workspace/hw.x86_64/src/hardware/startup/boards/../../../../install/x86_64/usr/lib\libstartup.a(hwitag_add_location.o)
 .comment       0x00000000000024ea       0x46 C:/Users/Dell/ide-8.0-workspace/hw.x86_64/src/hardware/startup/boards/../../../../install/x86_64/usr/lib\libstartup.a(hypervisor.o)
 .comment       0x0000000000002530       0x46 C:/Users/Dell/ide-8.0-workspace/hw.x86_64/src/hardware/startup/boards/../../../../install/x86_64/usr/lib\libstartup.a(ich_misc.o)
 .comment       0x0000000000002576       0x46 C:/Users/Dell/ide-8.0-workspace/hw.x86_64/src/hardware/startup/boards/../../../../install/x86_64/usr/lib\libstartup.a(imps.o)
 .comment       0x00000000000025bc       0x46 C:/Users/Dell/ide-8.0-workspace/hw.x86_64/src/hardware/startup/boards/../../../../install/x86_64/usr/lib\libstartup.a(imps_ioapic.o)
 .comment       0x0000000000002602       0x46 C:/Users/Dell/ide-8.0-workspace/hw.x86_64/src/hardware/startup/boards/../../../../install/x86_64/usr/lib\libstartup.a(imps_smp.o)
 .comment       0x0000000000002648       0x46 C:/Users/Dell/ide-8.0-workspace/hw.x86_64/src/hardware/startup/boards/../../../../install/x86_64/usr/lib\libstartup.a(init_asinfo.o)
 .comment       0x000000000000268e       0x46 C:/Users/Dell/ide-8.0-workspace/hw.x86_64/src/hardware/startup/boards/../../../../install/x86_64/usr/lib\libstartup.a(init_gdt.o)
 .comment       0x00000000000026d4       0x46 C:/Users/Dell/ide-8.0-workspace/hw.x86_64/src/hardware/startup/boards/../../../../install/x86_64/usr/lib\libstartup.a(init_mitigation_mem.o)
 .comment       0x000000000000271a       0x46 C:/Users/Dell/ide-8.0-workspace/hw.x86_64/src/hardware/startup/boards/../../../../install/x86_64/usr/lib\libstartup.a(ioapic_auto_config.o)
 .comment       0x0000000000002760       0x46 C:/Users/Dell/ide-8.0-workspace/hw.x86_64/src/hardware/startup/boards/../../../../install/x86_64/usr/lib\libstartup.a(ioapic_default_configs.o)
 .comment       0x00000000000027a6       0x46 C:/Users/Dell/ide-8.0-workspace/hw.x86_64/src/hardware/startup/boards/../../../../install/x86_64/usr/lib\libstartup.a(map_startup_io.o)
 .comment       0x00000000000027ec       0x46 C:/Users/Dell/ide-8.0-workspace/hw.x86_64/src/hardware/startup/boards/../../../../install/x86_64/usr/lib\libstartup.a(rtc_time.o)
 .comment       0x0000000000002832       0x46 C:/Users/Dell/ide-8.0-workspace/hw.x86_64/src/hardware/startup/boards/../../../../install/x86_64/usr/lib\libstartup.a(timer_ns2tick.o)
 .comment       0x0000000000002878       0x46 C:/Users/Dell/ide-8.0-workspace/hw.x86_64/src/hardware/startup/boards/../../../../install/x86_64/usr/lib\libstartup.a(timer_tick2ns.o)
 .comment       0x00000000000028be       0x46 C:/Users/Dell/ide-8.0-workspace/hw.x86_64/src/hardware/startup/boards/../../../../install/x86_64/usr/lib\libstartup.a(acpi_smp.o)
 .comment       0x0000000000002904       0x46 C:/Users/Dell/ide-8.0-workspace/hw.x86_64/src/hardware/startup/boards/../../../../install/x86_64/usr/lib\libstartup.a(apic_smp.o)
 .comment       0x000000000000294a       0x46 C:/Users/Dell/ide-8.0-workspace/hw.x86_64/src/hardware/startup/boards/../../../../install/x86_64/usr/lib\libstartup.a(bootstrap_cmdline.o)
 .comment       0x0000000000002990       0x46 C:/Users/Dell/ide-8.0-workspace/hw.x86_64/src/hardware/startup/boards/../../../../install/x86_64/usr/lib\libstartup.a(hw_rtc_mc146818.o)
 .comment       0x00000000000029d6       0x46 C:/Users/Dell/ide-8.0-workspace/hw.x86_64/src/hardware/startup/boards/../../../../install/x86_64/usr/lib\libstartup.a(hwi_add_rtc.o)
 .comment       0x0000000000002a1c       0x46 C:/Users/Dell/ide-8.0-workspace/hw.x86_64/src/hardware/startup/boards/../../../../install/x86_64/usr/lib\libstartup.a(bcd2bin.o)
 .comment       0x0000000000002a62       0x46 C:/Users/Dell/ide-8.0-workspace/hw.x86_64/src/hardware/startup/boards/../../../../install/x86_64/usr/lib\libstartup.a(calc_time_t.o)
 .comment       0x0000000000002aa8       0x21 C:/Users/Dell/qnx800/target/qnx/x86_64/usr/lib\libucl.a(n2b_d.o)
 .comment       0x0000000000002ac9       0x46 C:/Users/Dell/qnx800/target/qnx/x86_64/lib\libc.a(hwi_find_item.o)
 .comment       0x0000000000002b0f       0x46 C:/Users/Dell/qnx800/target/qnx/x86_64/lib\libc.a(hwi_off2tag.o)
 .comment       0x0000000000002b55       0x46 C:/Users/Dell/qnx800/target/qnx/x86_64/lib\libc.a(hwi_tag2off.o)
 .comment       0x0000000000002b9b       0x46 C:/Users/Dell/qnx800/target/qnx/x86_64/lib\libc.a(strcasecmp.o)
 .comment       0x0000000000002be1       0x46 C:/Users/Dell/qnx800/target/qnx/x86_64/lib\libc.a(strlcpy.o)
 .comment       0x0000000000002c27       0x46 C:/Users/Dell/qnx800/target/qnx/x86_64/lib\libc.a(strstr.o)
 .comment       0x0000000000002c6d       0x46 C:/Users/Dell/qnx800/target/qnx/x86_64/lib\libc.a(__progname.o)
 .comment       0x0000000000002cb3       0x46 C:/Users/Dell/qnx800/target/qnx/x86_64/lib\libc.a(_ssp.o)
 .comment       0x0000000000002cf9       0x46 C:/Users/Dell/qnx800/target/qnx/x86_64/lib\libc.a(__stack_chk_guard.o)
 .comment       0x0000000000002d3f       0x46 C:/Users/Dell/qnx800/target/qnx/x86_64/lib\libc.a(xtolotab.o)
 .comment       0x0000000000002d85       0x46 C:/Users/Dell/qnx800/target/qnx/x86_64/lib\libc.a(strncasecmp.o)
 .comment       0x0000000000002dcb       0x46 C:/Users/Dell/qnx800/target/qnx/x86_64/lib\libc.a(strncmp.o)
 .comment       0x0000000000002e11       0x46 C:/Users/Dell/qnx800/target/qnx/x86_64/lib\libc.a(strrchr.o)

.QNX.command.line
                0x0000000000000000    0x537fe
 .QNX.command.line
                0x0000000000000000      0x7a5 C:/Users/Dell/ide-8.0-workspace/hw.x86_64/src/hardware/startup/boards/../../../../install/x86_64/usr/lib\libstartup.a(_main.o)
 .QNX.command.line
                0x00000000000007a5      0x7b9 C:/Users/Dell/ide-8.0-workspace/hw.x86_64/src/hardware/startup/boards/../../../../install/x86_64/usr/lib\libstartup.a(board_init.o)
 .QNX.command.line
                0x0000000000000f5e      0x7c9 C:/Users/Dell/ide-8.0-workspace/hw.x86_64/src/hardware/startup/boards/../../../../install/x86_64/usr/lib\libstartup.a(common_options.o)
 .QNX.command.line
                0x0000000000001727      0x7cd C:/Users/Dell/ide-8.0-workspace/hw.x86_64/src/hardware/startup/boards/../../../../install/x86_64/usr/lib\libstartup.a(cpu_cluster_add.o)
 .QNX.command.line
                0x0000000000001ef4      0x7ef C:/Users/Dell/ide-8.0-workspace/hw.x86_64/src/hardware/startup/boards/../../../../install/x86_64/usr/lib\libstartup.a(cpu_common_options.o)
 .QNX.command.line
                0x00000000000026e3      0x7d3 C:/Users/Dell/ide-8.0-workspace/hw.x86_64/src/hardware/startup/boards/../../../../install/x86_64/usr/lib\libstartup.a(cpu_startup.o)
 .QNX.command.line
                0x0000000000002eb6      0x7a5 C:/Users/Dell/ide-8.0-workspace/hw.x86_64/src/hardware/startup/boards/../../../../install/x86_64/usr/lib\libstartup.a(debug.o)
 .QNX.command.line
                0x000000000000365b      0x7a9 C:/Users/Dell/ide-8.0-workspace/hw.x86_64/src/hardware/startup/boards/../../../../install/x86_64/usr/lib\libstartup.a(getopt.o)
 .QNX.command.line
                0x0000000000003e04      0x7ad C:/Users/Dell/ide-8.0-workspace/hw.x86_64/src/hardware/startup/boards/../../../../install/x86_64/usr/lib\libstartup.a(getsize.o)
 .QNX.command.line
                0x00000000000045b1      0x7b9 C:/Users/Dell/ide-8.0-workspace/hw.x86_64/src/hardware/startup/boards/../../../../install/x86_64/usr/lib\libstartup.a(hw_ser8250.o)
 .QNX.command.line
                0x0000000000004d6a      0x7c9 C:/Users/Dell/ide-8.0-workspace/hw.x86_64/src/hardware/startup/boards/../../../../install/x86_64/usr/lib\libstartup.a(hw_ser8250_pci.o)
 .QNX.command.line
                0x0000000000005533      0x7d3 C:/Users/Dell/ide-8.0-workspace/hw.x86_64/src/hardware/startup/boards/../../../../install/x86_64/usr/lib\libstartup.a(hw_vgaout32.o)
 .QNX.command.line
                0x0000000000005d06      0x7d1 C:/Users/Dell/ide-8.0-workspace/hw.x86_64/src/hardware/startup/boards/../../../../install/x86_64/usr/lib\libstartup.a(hwi_add_nanospin.o)
 .QNX.command.line
                0x00000000000064d7      0x7b5 C:/Users/Dell/ide-8.0-workspace/hw.x86_64/src/hardware/startup/boards/../../../../install/x86_64/usr/lib\libstartup.a(hwi_alloc.o)
 .QNX.command.line
                0x0000000000006c8c      0x7d1 C:/Users/Dell/ide-8.0-workspace/hw.x86_64/src/hardware/startup/boards/../../../../install/x86_64/usr/lib\libstartup.a(hypervisor_setup.o)
 .QNX.command.line
                0x000000000000745d      0x7c9 C:/Users/Dell/ide-8.0-workspace/hw.x86_64/src/hardware/startup/boards/../../../../install/x86_64/usr/lib\libstartup.a(init_cacheattr.o)
 .QNX.command.line
                0x0000000000007c26      0x7d7 C:/Users/Dell/ide-8.0-workspace/hw.x86_64/src/hardware/startup/boards/../../../../install/x86_64/usr/lib\libstartup.a(init_cpuinfo.o)
 .QNX.command.line
                0x00000000000083fd      0x7d3 C:/Users/Dell/ide-8.0-workspace/hw.x86_64/src/hardware/startup/boards/../../../../install/x86_64/usr/lib\libstartup.a(init_hwinfo.o)
 .QNX.command.line
                0x0000000000008bd0      0x7d3 C:/Users/Dell/ide-8.0-workspace/hw.x86_64/src/hardware/startup/boards/../../../../install/x86_64/usr/lib\libstartup.a(init_intrinfo.o)
 .QNX.command.line
                0x00000000000093a3      0x7eb C:/Users/Dell/ide-8.0-workspace/hw.x86_64/src/hardware/startup/boards/../../../../install/x86_64/usr/lib\libstartup.a(init_intrinfo_msi.o)
 .QNX.command.line
                0x0000000000009b8e      0x7bf C:/Users/Dell/ide-8.0-workspace/hw.x86_64/src/hardware/startup/boards/../../../../install/x86_64/usr/lib\libstartup.a(init_mmu.o)
 .QNX.command.line
                0x000000000000a34d      0x7cf C:/Users/Dell/ide-8.0-workspace/hw.x86_64/src/hardware/startup/boards/../../../../install/x86_64/usr/lib\libstartup.a(init_qtime.o)
 .QNX.command.line
                0x000000000000ab1c      0x7e3 C:/Users/Dell/ide-8.0-workspace/hw.x86_64/src/hardware/startup/boards/../../../../install/x86_64/usr/lib\libstartup.a(init_qtime_hpet.o)
 .QNX.command.line
                0x000000000000b2ff      0x7e7 C:/Users/Dell/ide-8.0-workspace/hw.x86_64/src/hardware/startup/boards/../../../../install/x86_64/usr/lib\libstartup.a(init_qtime_lapic.o)
 .QNX.command.line
                0x000000000000bae6      0x7cf C:/Users/Dell/ide-8.0-workspace/hw.x86_64/src/hardware/startup/boards/../../../../install/x86_64/usr/lib\libstartup.a(init_raminfo.o)
 .QNX.command.line
                0x000000000000c2b5      0x7d5 C:/Users/Dell/ide-8.0-workspace/hw.x86_64/src/hardware/startup/boards/../../../../install/x86_64/usr/lib\libstartup.a(init_raminfo_uefi.o)
 .QNX.command.line
                0x000000000000ca8a      0x7f3 C:/Users/Dell/ide-8.0-workspace/hw.x86_64/src/hardware/startup/boards/../../../../install/x86_64/usr/lib\libstartup.a(init_reboot_callout.o)
 .QNX.command.line
                0x000000000000d27d      0x7b1 C:/Users/Dell/ide-8.0-workspace/hw.x86_64/src/hardware/startup/boards/../../../../install/x86_64/usr/lib\libstartup.a(init_smp.o)
 .QNX.command.line
                0x000000000000da2e      0x7dd C:/Users/Dell/ide-8.0-workspace/hw.x86_64/src/hardware/startup/boards/../../../../install/x86_64/usr/lib\libstartup.a(init_system_private.o)
 .QNX.command.line
                0x000000000000e20b      0x803 C:/Users/Dell/ide-8.0-workspace/hw.x86_64/src/hardware/startup/boards/../../../../install/x86_64/usr/lib\libstartup.a(intel_microcode_updates.o)
 .QNX.command.line
                0x000000000000ea0e      0x7cf C:/Users/Dell/ide-8.0-workspace/hw.x86_64/src/hardware/startup/boards/../../../../install/x86_64/usr/lib\libstartup.a(intel_misc.o)
 .QNX.command.line
                0x000000000000f1dd      0x7cb C:/Users/Dell/ide-8.0-workspace/hw.x86_64/src/hardware/startup/boards/../../../../install/x86_64/usr/lib\libstartup.a(intel_pxh.o)
 .QNX.command.line
                0x000000000000f9a8      0x7d5 C:/Users/Dell/ide-8.0-workspace/hw.x86_64/src/hardware/startup/boards/../../../../install/x86_64/usr/lib\libstartup.a(invert_timer_freq.o)
 .QNX.command.line
                0x000000000001017d      0x7bf C:/Users/Dell/ide-8.0-workspace/hw.x86_64/src/hardware/startup/boards/../../../../install/x86_64/usr/lib\libstartup.a(ioapic.o)
 .QNX.command.line
                0x000000000001093c      0x7cf C:/Users/Dell/ide-8.0-workspace/hw.x86_64/src/hardware/startup/boards/../../../../install/x86_64/usr/lib\libstartup.a(ioapic_amd.o)
 .QNX.command.line
                0x000000000001110b      0x7d3 C:/Users/Dell/ide-8.0-workspace/hw.x86_64/src/hardware/startup/boards/../../../../install/x86_64/usr/lib\libstartup.a(ioapic_find.o)
 .QNX.command.line
                0x00000000000118de      0x7df C:/Users/Dell/ide-8.0-workspace/hw.x86_64/src/hardware/startup/boards/../../../../install/x86_64/usr/lib\libstartup.a(ioapic_generic.o)
 .QNX.command.line
                0x00000000000120bd      0x7cf C:/Users/Dell/ide-8.0-workspace/hw.x86_64/src/hardware/startup/boards/../../../../install/x86_64/usr/lib\libstartup.a(ioapic_ich.o)
 .QNX.command.line
                0x000000000001288c      0x80b C:/Users/Dell/ide-8.0-workspace/hw.x86_64/src/hardware/startup/boards/../../../../install/x86_64/usr/lib\libstartup.a(ioapic_intsrc_disposition.o)
 .QNX.command.line
                0x0000000000013097      0x7cf C:/Users/Dell/ide-8.0-workspace/hw.x86_64/src/hardware/startup/boards/../../../../install/x86_64/usr/lib\libstartup.a(ioapic_ioh.o)
 .QNX.command.line
                0x0000000000013866      0x7d7 C:/Users/Dell/ide-8.0-workspace/hw.x86_64/src/hardware/startup/boards/../../../../install/x86_64/usr/lib\libstartup.a(is_uefi_boot.o)
 .QNX.command.line
                0x000000000001403d      0x7cb C:/Users/Dell/ide-8.0-workspace/hw.x86_64/src/hardware/startup/boards/../../../../install/x86_64/usr/lib\libstartup.a(itss_misc.o)
 .QNX.command.line
                0x0000000000014808      0x7a1 C:/Users/Dell/ide-8.0-workspace/hw.x86_64/src/hardware/startup/boards/../../../../install/x86_64/usr/lib\libstartup.a(jtag.o)
 .QNX.command.line
                0x0000000000014fa9      0x7ad C:/Users/Dell/ide-8.0-workspace/hw.x86_64/src/hardware/startup/boards/../../../../install/x86_64/usr/lib\libstartup.a(kprintf.o)
 .QNX.command.line
                0x0000000000015756      0x7b1 C:/Users/Dell/ide-8.0-workspace/hw.x86_64/src/hardware/startup/boards/../../../../install/x86_64/usr/lib\libstartup.a(load_ifs.o)
 .QNX.command.line
                0x0000000000015f07      0x7e3 C:/Users/Dell/ide-8.0-workspace/hw.x86_64/src/hardware/startup/boards/../../../../install/x86_64/usr/lib\libstartup.a(map_callout_mem.o)
 .QNX.command.line
                0x00000000000166ea      0x7db C:/Users/Dell/ide-8.0-workspace/hw.x86_64/src/hardware/startup/boards/../../../../install/x86_64/usr/lib\libstartup.a(map_startup_mem.o)
 .QNX.command.line
                0x0000000000016ec5      0x7a9 C:/Users/Dell/ide-8.0-workspace/hw.x86_64/src/hardware/startup/boards/../../../../install/x86_64/usr/lib\libstartup.a(memcpy.o)
 .QNX.command.line
                0x000000000001766e      0x7b1 C:/Users/Dell/ide-8.0-workspace/hw.x86_64/src/hardware/startup/boards/../../../../install/x86_64/usr/lib\libstartup.a(memfuncs.o)
 .QNX.command.line
                0x0000000000017e1f      0x7ad C:/Users/Dell/ide-8.0-workspace/hw.x86_64/src/hardware/startup/boards/../../../../install/x86_64/usr/lib\libstartup.a(memmove.o)
 .QNX.command.line
                0x00000000000185cc      0x7cb C:/Users/Dell/ide-8.0-workspace/hw.x86_64/src/hardware/startup/boards/../../../../install/x86_64/usr/lib\libstartup.a(p2sb_misc.o)
 .QNX.command.line
                0x0000000000018d97      0x7f7 C:/Users/Dell/ide-8.0-workspace/hw.x86_64/src/hardware/startup/boards/../../../../install/x86_64/usr/lib\libstartup.a(pci_known_devs_table.o)
 .QNX.command.line
                0x000000000001958e      0x7c7 C:/Users/Dell/ide-8.0-workspace/hw.x86_64/src/hardware/startup/boards/../../../../install/x86_64/usr/lib\libstartup.a(pci_misc.o)
 .QNX.command.line
                0x0000000000019d55      0x7c9 C:/Users/Dell/ide-8.0-workspace/hw.x86_64/src/hardware/startup/boards/../../../../install/x86_64/usr/lib\libstartup.a(pci_read_cfg16.o)
 .QNX.command.line
                0x000000000001a51e      0x7df C:/Users/Dell/ide-8.0-workspace/hw.x86_64/src/hardware/startup/boards/../../../../install/x86_64/usr/lib\libstartup.a(pci_read_cfg32.o)
 .QNX.command.line
                0x000000000001acfd      0x7c5 C:/Users/Dell/ide-8.0-workspace/hw.x86_64/src/hardware/startup/boards/../../../../install/x86_64/usr/lib\libstartup.a(pci_read_cfg8.o)
 .QNX.command.line
                0x000000000001b4c2      0x7cd C:/Users/Dell/ide-8.0-workspace/hw.x86_64/src/hardware/startup/boards/../../../../install/x86_64/usr/lib\libstartup.a(pci_write_cfg16.o)
 .QNX.command.line
                0x000000000001bc8f      0x7e3 C:/Users/Dell/ide-8.0-workspace/hw.x86_64/src/hardware/startup/boards/../../../../install/x86_64/usr/lib\libstartup.a(pci_write_cfg32.o)
 .QNX.command.line
                0x000000000001c472      0x7c9 C:/Users/Dell/ide-8.0-workspace/hw.x86_64/src/hardware/startup/boards/../../../../install/x86_64/usr/lib\libstartup.a(pci_write_cfg8.o)
 .QNX.command.line
                0x000000000001cc3b      0x7c7 C:/Users/Dell/ide-8.0-workspace/hw.x86_64/src/hardware/startup/boards/../../../../install/x86_64/usr/lib\libstartup.a(pcu_misc.o)
 .QNX.command.line
                0x000000000001d402      0x7cf C:/Users/Dell/ide-8.0-workspace/hw.x86_64/src/hardware/startup/boards/../../../../install/x86_64/usr/lib\libstartup.a(piix4_misc.o)
 .QNX.command.line
                0x000000000001dbd1      0x7b9 C:/Users/Dell/ide-8.0-workspace/hw.x86_64/src/hardware/startup/boards/../../../../install/x86_64/usr/lib\libstartup.a(print_sysp.o)
 .QNX.command.line
                0x000000000001e38a      0x7cb C:/Users/Dell/ide-8.0-workspace/hw.x86_64/src/hardware/startup/boards/../../../../install/x86_64/usr/lib\libstartup.a(processor64.o)
 .QNX.command.line
                0x000000000001eb55      0x79d C:/Users/Dell/ide-8.0-workspace/hw.x86_64/src/hardware/startup/boards/../../../../install/x86_64/usr/lib\libstartup.a(ram.o)
 .QNX.command.line
                0x000000000001f2f2      0x7bd C:/Users/Dell/ide-8.0-workspace/hw.x86_64/src/hardware/startup/boards/../../../../install/x86_64/usr/lib\libstartup.a(restore_ifs.o)
 .QNX.command.line
                0x000000000001faaf      0x7cf C:/Users/Dell/ide-8.0-workspace/hw.x86_64/src/hardware/startup/boards/../../../../install/x86_64/usr/lib\libstartup.a(sbx00_misc.o)
 .QNX.command.line
                0x000000000002027e      0x7c7 C:/Users/Dell/ide-8.0-workspace/hw.x86_64/src/hardware/startup/boards/../../../../install/x86_64/usr/lib\libstartup.a(sch_misc.o)
 .QNX.command.line
                0x0000000000020a45      0x7c7 C:/Users/Dell/ide-8.0-workspace/hw.x86_64/src/hardware/startup/boards/../../../../install/x86_64/usr/lib\libstartup.a(set_cycles.o)
 .QNX.command.line
                0x000000000002120c      0x79d C:/Users/Dell/ide-8.0-workspace/hw.x86_64/src/hardware/startup/boards/../../../../install/x86_64/usr/lib\libstartup.a(ssp.o)
 .QNX.command.line
                0x00000000000219a9      0x7b5 C:/Users/Dell/ide-8.0-workspace/hw.x86_64/src/hardware/startup/boards/../../../../install/x86_64/usr/lib\libstartup.a(startnext.o)
 .QNX.command.line
                0x000000000002215e      0x7c1 C:/Users/Dell/ide-8.0-workspace/hw.x86_64/src/hardware/startup/boards/../../../../install/x86_64/usr/lib\libstartup.a(startup_info.o)
 .QNX.command.line
                0x000000000002291f      0x7ad C:/Users/Dell/ide-8.0-workspace/hw.x86_64/src/hardware/startup/boards/../../../../install/x86_64/usr/lib\libstartup.a(strings.o)
 .QNX.command.line
                0x00000000000230cc      0x7ad C:/Users/Dell/ide-8.0-workspace/hw.x86_64/src/hardware/startup/boards/../../../../install/x86_64/usr/lib\libstartup.a(strtoul.o)
 .QNX.command.line
                0x0000000000023879      0x7c9 C:/Users/Dell/ide-8.0-workspace/hw.x86_64/src/hardware/startup/boards/../../../../install/x86_64/usr/lib\libstartup.a(syspage_memory.o)
 .QNX.command.line
                0x0000000000024042      0x7c5 C:/Users/Dell/ide-8.0-workspace/hw.x86_64/src/hardware/startup/boards/../../../../install/x86_64/usr/lib\libstartup.a(tweak_cmdline.o)
 .QNX.command.line
                0x0000000000024807      0x7a1 C:/Users/Dell/ide-8.0-workspace/hw.x86_64/src/hardware/startup/boards/../../../../install/x86_64/usr/lib\libstartup.a(uefi.o)
 .QNX.command.line
                0x0000000000024fa8      0x7c3 C:/Users/Dell/ide-8.0-workspace/hw.x86_64/src/hardware/startup/boards/../../../../install/x86_64/usr/lib\libstartup.a(uefi_init.o)
 .QNX.command.line
                0x000000000002576b      0x7ad C:/Users/Dell/ide-8.0-workspace/hw.x86_64/src/hardware/startup/boards/../../../../install/x86_64/usr/lib\libstartup.a(uefi_io.o)
 .QNX.command.line
                0x0000000000025f18      0x7b5 C:/Users/Dell/ide-8.0-workspace/hw.x86_64/src/hardware/startup/boards/../../../../install/x86_64/usr/lib\libstartup.a(ultoa_end.o)
 .QNX.command.line
                0x00000000000266cd      0x7b9 C:/Users/Dell/ide-8.0-workspace/hw.x86_64/src/hardware/startup/boards/../../../../install/x86_64/usr/lib\libstartup.a(uncompress.o)
 .QNX.command.line
                0x0000000000026e86      0x7c9 C:/Users/Dell/ide-8.0-workspace/hw.x86_64/src/hardware/startup/boards/../../../../install/x86_64/usr/lib\libstartup.a(uncompress_ucl.o)
 .QNX.command.line
                0x000000000002764f      0x7ef C:/Users/Dell/ide-8.0-workspace/hw.x86_64/src/hardware/startup/boards/../../../../install/x86_64/usr/lib\libstartup.a(x86_64_pcbios_shadow.o)
 .QNX.command.line
                0x0000000000027e3e      0x7a1 C:/Users/Dell/ide-8.0-workspace/hw.x86_64/src/hardware/startup/boards/../../../../install/x86_64/usr/lib\libstartup.a(acpi.o)
 .QNX.command.line
                0x00000000000285df      0x7d3 C:/Users/Dell/ide-8.0-workspace/hw.x86_64/src/hardware/startup/boards/../../../../install/x86_64/usr/lib\libstartup.a(acpi_ioapic.o)
 .QNX.command.line
                0x0000000000028db2      0x7c5 C:/Users/Dell/ide-8.0-workspace/hw.x86_64/src/hardware/startup/boards/../../../../install/x86_64/usr/lib\libstartup.a(add_interrupt.o)
 .QNX.command.line
                0x0000000000029577      0x7bd C:/Users/Dell/ide-8.0-workspace/hw.x86_64/src/hardware/startup/boards/../../../../install/x86_64/usr/lib\libstartup.a(alloc_qtime.o)
 .QNX.command.line
                0x0000000000029d34      0x7c7 C:/Users/Dell/ide-8.0-workspace/hw.x86_64/src/hardware/startup/boards/../../../../install/x86_64/usr/lib\libstartup.a(amd_misc.o)
 .QNX.command.line
                0x000000000002a4fb      0x7ad C:/Users/Dell/ide-8.0-workspace/hw.x86_64/src/hardware/startup/boards/../../../../install/x86_64/usr/lib\libstartup.a(ap_fail.o)
 .QNX.command.line
                0x000000000002aca8      0x7d7 C:/Users/Dell/ide-8.0-workspace/hw.x86_64/src/hardware/startup/boards/../../../../install/x86_64/usr/lib\libstartup.a(apic_io_intr.o)
 .QNX.command.line
                0x000000000002b47f      0x7e3 C:/Users/Dell/ide-8.0-workspace/hw.x86_64/src/hardware/startup/boards/../../../../install/x86_64/usr/lib\libstartup.a(apic_local_intr.o)
 .QNX.command.line
                0x000000000002bc62      0x7cf C:/Users/Dell/ide-8.0-workspace/hw.x86_64/src/hardware/startup/boards/../../../../install/x86_64/usr/lib\libstartup.a(apic_paddr.o)
 .QNX.command.line
                0x000000000002c431      0x7a9 C:/Users/Dell/ide-8.0-workspace/hw.x86_64/src/hardware/startup/boards/../../../../install/x86_64/usr/lib\libstartup.a(as_add.o)
 .QNX.command.line
                0x000000000002cbda      0x7b1 C:/Users/Dell/ide-8.0-workspace/hw.x86_64/src/hardware/startup/boards/../../../../install/x86_64/usr/lib\libstartup.a(as_add64.o)
 .QNX.command.line
                0x000000000002d38b      0x7d5 C:/Users/Dell/ide-8.0-workspace/hw.x86_64/src/hardware/startup/boards/../../../../install/x86_64/usr/lib\libstartup.a(as_add_containing.o)
 .QNX.command.line
                0x000000000002db60      0x7cf C:/Users/Dell/ide-8.0-workspace/hw.x86_64/src/hardware/startup/boards/../../../../install/x86_64/usr/lib\libstartup.a(as_default.o)
 .QNX.command.line
                0x000000000002e32f      0x7ad C:/Users/Dell/ide-8.0-workspace/hw.x86_64/src/hardware/startup/boards/../../../../install/x86_64/usr/lib\libstartup.a(as_find.o)
 .QNX.command.line
                0x000000000002eadc      0x7d9 C:/Users/Dell/ide-8.0-workspace/hw.x86_64/src/hardware/startup/boards/../../../../install/x86_64/usr/lib\libstartup.a(as_find_containing.o)
 .QNX.command.line
                0x000000000002f2b5      0x7bd C:/Users/Dell/ide-8.0-workspace/hw.x86_64/src/hardware/startup/boards/../../../../install/x86_64/usr/lib\libstartup.a(as_off2info.o)
 .QNX.command.line
                0x000000000002fa72      0x7f7 C:/Users/Dell/ide-8.0-workspace/hw.x86_64/src/hardware/startup/boards/../../../../install/x86_64/usr/lib\libstartup.a(board_find_acpi_rsdp.o)
 .QNX.command.line
                0x0000000000030269      0x80b C:/Users/Dell/ide-8.0-workspace/hw.x86_64/src/hardware/startup/boards/../../../../install/x86_64/usr/lib\libstartup.a(board_find_acpi_rsdp_bios.o)
 .QNX.command.line
                0x0000000000030a74      0x80b C:/Users/Dell/ide-8.0-workspace/hw.x86_64/src/hardware/startup/boards/../../../../install/x86_64/usr/lib\libstartup.a(board_find_acpi_rsdp_uefi.o)
 .QNX.command.line
                0x000000000003127f      0x7cb C:/Users/Dell/ide-8.0-workspace/hw.x86_64/src/hardware/startup/boards/../../../../install/x86_64/usr/lib\libstartup.a(board_smp.o)
 .QNX.command.line
                0x0000000000031a4a      0x7cf C:/Users/Dell/ide-8.0-workspace/hw.x86_64/src/hardware/startup/boards/../../../../install/x86_64/usr/lib\libstartup.a(board_sysctl.o)
 .QNX.command.line
                0x0000000000032219      0x7b9 C:/Users/Dell/ide-8.0-workspace/hw.x86_64/src/hardware/startup/boards/../../../../install/x86_64/usr/lib\libstartup.a(calc_cksum.o)
 .QNX.command.line
                0x00000000000329d2      0x7b1 C:/Users/Dell/ide-8.0-workspace/hw.x86_64/src/hardware/startup/boards/../../../../install/x86_64/usr/lib\libstartup.a(callouts.o)
 .QNX.command.line
                0x0000000000033183      0x7bd C:/Users/Dell/ide-8.0-workspace/hw.x86_64/src/hardware/startup/boards/../../../../install/x86_64/usr/lib\libstartup.a(chip_access.o)
 .QNX.command.line
                0x0000000000033940      0x7e7 C:/Users/Dell/ide-8.0-workspace/hw.x86_64/src/hardware/startup/boards/../../../../install/x86_64/usr/lib\libstartup.a(cpu_family_clock.o)
 .QNX.command.line
                0x0000000000034127      0x7e7 C:/Users/Dell/ide-8.0-workspace/hw.x86_64/src/hardware/startup/boards/../../../../install/x86_64/usr/lib\libstartup.a(cpu_family_model.o)
 .QNX.command.line
                0x000000000003490e      0x7d7 C:/Users/Dell/ide-8.0-workspace/hw.x86_64/src/hardware/startup/boards/../../../../install/x86_64/usr/lib\libstartup.a(cpu_features.o)
 .QNX.command.line
                0x00000000000350e5      0x7d3 C:/Users/Dell/ide-8.0-workspace/hw.x86_64/src/hardware/startup/boards/../../../../install/x86_64/usr/lib\libstartup.a(cpu_startnext.o)
 .QNX.command.line
                0x00000000000358b8      0x7e7 C:/Users/Dell/ide-8.0-workspace/hw.x86_64/src/hardware/startup/boards/../../../../install/x86_64/usr/lib\libstartup.a(cpu_syspage_memory.o)
 .QNX.command.line
                0x000000000003609f      0x7c3 C:/Users/Dell/ide-8.0-workspace/hw.x86_64/src/hardware/startup/boards/../../../../install/x86_64/usr/lib\libstartup.a(cpu_tsc.o)
 .QNX.command.line
                0x0000000000036862      0x7eb C:/Users/Dell/ide-8.0-workspace/hw.x86_64/src/hardware/startup/boards/../../../../install/x86_64/usr/lib\libstartup.a(cpu_tweak_cmdline.o)
 .QNX.command.line
                0x000000000003704d      0x7b9 C:/Users/Dell/ide-8.0-workspace/hw.x86_64/src/hardware/startup/boards/../../../../install/x86_64/usr/lib\libstartup.a(crash_done.o)
 .QNX.command.line
                0x0000000000037806      0x7d1 C:/Users/Dell/ide-8.0-workspace/hw.x86_64/src/hardware/startup/boards/../../../../install/x86_64/usr/lib\libstartup.a(dummy_print_char.o)
 .QNX.command.line
                0x0000000000037fd7      0x79d C:/Users/Dell/ide-8.0-workspace/hw.x86_64/src/hardware/startup/boards/../../../../install/x86_64/usr/lib\libstartup.a(elf.o)
 .QNX.command.line
                0x0000000000038774      0x7a5 C:/Users/Dell/ide-8.0-workspace/hw.x86_64/src/hardware/startup/boards/../../../../install/x86_64/usr/lib\libstartup.a(elf32.o)
 .QNX.command.line
                0x0000000000038f19      0x7a5 C:/Users/Dell/ide-8.0-workspace/hw.x86_64/src/hardware/startup/boards/../../../../install/x86_64/usr/lib\libstartup.a(elf64.o)
 .QNX.command.line
                0x00000000000396be      0x7bb C:/Users/Dell/ide-8.0-workspace/hw.x86_64/src/hardware/startup/boards/../../../../install/x86_64/usr/lib\libstartup.a(elf_map.o)
 .QNX.command.line
                0x0000000000039e79      0x7b1 C:/Users/Dell/ide-8.0-workspace/hw.x86_64/src/hardware/startup/boards/../../../../install/x86_64/usr/lib\libstartup.a(fdt_vars.o)
 .QNX.command.line
                0x000000000003a62a      0x7df C:/Users/Dell/ide-8.0-workspace/hw.x86_64/src/hardware/startup/boards/../../../../install/x86_64/usr/lib\libstartup.a(find_ecam_base.o)
 .QNX.command.line
                0x000000000003ae09      0x7db C:/Users/Dell/ide-8.0-workspace/hw.x86_64/src/hardware/startup/boards/../../../../install/x86_64/usr/lib\libstartup.a(find_top_intr.o)
 .QNX.command.line
                0x000000000003b5e4      0x7c7 C:/Users/Dell/ide-8.0-workspace/hw.x86_64/src/hardware/startup/boards/../../../../install/x86_64/usr/lib\libstartup.a(hv_guest.o)
 .QNX.command.line
                0x000000000003bdab      0x7db C:/Users/Dell/ide-8.0-workspace/hw.x86_64/src/hardware/startup/boards/../../../../install/x86_64/usr/lib\libstartup.a(hw_cpuid_string.o)
 .QNX.command.line
                0x000000000003c586      0x7cb C:/Users/Dell/ide-8.0-workspace/hw.x86_64/src/hardware/startup/boards/../../../../install/x86_64/usr/lib\libstartup.a(hw_cpuspeed.o)
 .QNX.command.line
                0x000000000003cd51      0x7cf C:/Users/Dell/ide-8.0-workspace/hw.x86_64/src/hardware/startup/boards/../../../../install/x86_64/usr/lib\libstartup.a(hw_scanmem.o)
 .QNX.command.line
                0x000000000003d520      0x7c9 C:/Users/Dell/ide-8.0-workspace/hw.x86_64/src/hardware/startup/boards/../../../../install/x86_64/usr/lib\libstartup.a(hwi_add_device.o)
 .QNX.command.line
                0x000000000003dce9      0x7bd C:/Users/Dell/ide-8.0-workspace/hw.x86_64/src/hardware/startup/boards/../../../../install/x86_64/usr/lib\libstartup.a(hwi_add_irq.o)
 .QNX.command.line
                0x000000000003e4a6      0x7d1 C:/Users/Dell/ide-8.0-workspace/hw.x86_64/src/hardware/startup/boards/../../../../install/x86_64/usr/lib\libstartup.a(hwi_add_location.o)
 .QNX.command.line
                0x000000000003ec77      0x7bd C:/Users/Dell/ide-8.0-workspace/hw.x86_64/src/hardware/startup/boards/../../../../install/x86_64/usr/lib\libstartup.a(hwi_default.o)
 .QNX.command.line
                0x000000000003f434      0x7bd C:/Users/Dell/ide-8.0-workspace/hw.x86_64/src/hardware/startup/boards/../../../../install/x86_64/usr/lib\libstartup.a(hwi_find_as.o)
 .QNX.command.line
                0x000000000003fbf1      0x7b9 C:/Users/Dell/ide-8.0-workspace/hw.x86_64/src/hardware/startup/boards/../../../../install/x86_64/usr/lib\libstartup.a(hwidev_add.o)
 .QNX.command.line
                0x00000000000403aa      0x7c9 C:/Users/Dell/ide-8.0-workspace/hw.x86_64/src/hardware/startup/boards/../../../../install/x86_64/usr/lib\libstartup.a(hwitag_add_irq.o)
 .QNX.command.line
                0x0000000000040b73      0x7dd C:/Users/Dell/ide-8.0-workspace/hw.x86_64/src/hardware/startup/boards/../../../../install/x86_64/usr/lib\libstartup.a(hwitag_add_location.o)
 .QNX.command.line
                0x0000000000041350      0x7c7 C:/Users/Dell/ide-8.0-workspace/hw.x86_64/src/hardware/startup/boards/../../../../install/x86_64/usr/lib\libstartup.a(hypervisor.o)
 .QNX.command.line
                0x0000000000041b17      0x7c7 C:/Users/Dell/ide-8.0-workspace/hw.x86_64/src/hardware/startup/boards/../../../../install/x86_64/usr/lib\libstartup.a(ich_misc.o)
 .QNX.command.line
                0x00000000000422de      0x7b7 C:/Users/Dell/ide-8.0-workspace/hw.x86_64/src/hardware/startup/boards/../../../../install/x86_64/usr/lib\libstartup.a(imps.o)
 .QNX.command.line
                0x0000000000042a95      0x7d3 C:/Users/Dell/ide-8.0-workspace/hw.x86_64/src/hardware/startup/boards/../../../../install/x86_64/usr/lib\libstartup.a(imps_ioapic.o)
 .QNX.command.line
                0x0000000000043268      0x7c7 C:/Users/Dell/ide-8.0-workspace/hw.x86_64/src/hardware/startup/boards/../../../../install/x86_64/usr/lib\libstartup.a(imps_smp.o)
 .QNX.command.line
                0x0000000000043a2f      0x7d3 C:/Users/Dell/ide-8.0-workspace/hw.x86_64/src/hardware/startup/boards/../../../../install/x86_64/usr/lib\libstartup.a(init_asinfo.o)
 .QNX.command.line
                0x0000000000044202      0x7bf C:/Users/Dell/ide-8.0-workspace/hw.x86_64/src/hardware/startup/boards/../../../../install/x86_64/usr/lib\libstartup.a(init_gdt.o)
 .QNX.command.line
                0x00000000000449c1      0x7f3 C:/Users/Dell/ide-8.0-workspace/hw.x86_64/src/hardware/startup/boards/../../../../install/x86_64/usr/lib\libstartup.a(init_mitigation_mem.o)
 .QNX.command.line
                0x00000000000451b4      0x7ef C:/Users/Dell/ide-8.0-workspace/hw.x86_64/src/hardware/startup/boards/../../../../install/x86_64/usr/lib\libstartup.a(ioapic_auto_config.o)
 .QNX.command.line
                0x00000000000459a3      0x7ff C:/Users/Dell/ide-8.0-workspace/hw.x86_64/src/hardware/startup/boards/../../../../install/x86_64/usr/lib\libstartup.a(ioapic_default_configs.o)
 .QNX.command.line
                0x00000000000461a2      0x7df C:/Users/Dell/ide-8.0-workspace/hw.x86_64/src/hardware/startup/boards/../../../../install/x86_64/usr/lib\libstartup.a(map_startup_io.o)
 .QNX.command.line
                0x0000000000046981      0x7c7 C:/Users/Dell/ide-8.0-workspace/hw.x86_64/src/hardware/startup/boards/../../../../install/x86_64/usr/lib\libstartup.a(rtc_time.o)
 .QNX.command.line
                0x0000000000047148      0x7c5 C:/Users/Dell/ide-8.0-workspace/hw.x86_64/src/hardware/startup/boards/../../../../install/x86_64/usr/lib\libstartup.a(timer_ns2tick.o)
 .QNX.command.line
                0x000000000004790d      0x7c5 C:/Users/Dell/ide-8.0-workspace/hw.x86_64/src/hardware/startup/boards/../../../../install/x86_64/usr/lib\libstartup.a(timer_tick2ns.o)
 .QNX.command.line
                0x00000000000480d2      0x7c7 C:/Users/Dell/ide-8.0-workspace/hw.x86_64/src/hardware/startup/boards/../../../../install/x86_64/usr/lib\libstartup.a(acpi_smp.o)
 .QNX.command.line
                0x0000000000048899      0x7c7 C:/Users/Dell/ide-8.0-workspace/hw.x86_64/src/hardware/startup/boards/../../../../install/x86_64/usr/lib\libstartup.a(apic_smp.o)
 .QNX.command.line
                0x0000000000049060      0x7d5 C:/Users/Dell/ide-8.0-workspace/hw.x86_64/src/hardware/startup/boards/../../../../install/x86_64/usr/lib\libstartup.a(bootstrap_cmdline.o)
 .QNX.command.line
                0x0000000000049835      0x7cd C:/Users/Dell/ide-8.0-workspace/hw.x86_64/src/hardware/startup/boards/../../../../install/x86_64/usr/lib\libstartup.a(hw_rtc_mc146818.o)
 .QNX.command.line
                0x000000000004a002      0x7bd C:/Users/Dell/ide-8.0-workspace/hw.x86_64/src/hardware/startup/boards/../../../../install/x86_64/usr/lib\libstartup.a(hwi_add_rtc.o)
 .QNX.command.line
                0x000000000004a7bf      0x7ad C:/Users/Dell/ide-8.0-workspace/hw.x86_64/src/hardware/startup/boards/../../../../install/x86_64/usr/lib\libstartup.a(bcd2bin.o)
 .QNX.command.line
                0x000000000004af6c      0x7bd C:/Users/Dell/ide-8.0-workspace/hw.x86_64/src/hardware/startup/boards/../../../../install/x86_64/usr/lib\libstartup.a(calc_time_t.o)
 .QNX.command.line
                0x000000000004b729      0x7ac C:/Users/Dell/qnx800/target/qnx/x86_64/usr/lib\libucl.a(n2b_d.o)
 .QNX.command.line
                0x000000000004bed5      0x942 C:/Users/Dell/qnx800/target/qnx/x86_64/lib\libc.a(hwi_find_item.o)
 .QNX.command.line
                0x000000000004c817      0x93a C:/Users/Dell/qnx800/target/qnx/x86_64/lib\libc.a(hwi_off2tag.o)
 .QNX.command.line
                0x000000000004d151      0x93a C:/Users/Dell/qnx800/target/qnx/x86_64/lib\libc.a(hwi_tag2off.o)
 .QNX.command.line
                0x000000000004da8b      0x95b C:/Users/Dell/qnx800/target/qnx/x86_64/lib\libc.a(strcasecmp.o)
 .QNX.command.line
                0x000000000004e3e6      0x94f C:/Users/Dell/qnx800/target/qnx/x86_64/lib\libc.a(strlcpy.o)
 .QNX.command.line
                0x000000000004ed35      0x94b C:/Users/Dell/qnx800/target/qnx/x86_64/lib\libc.a(strstr.o)
 .QNX.command.line
                0x000000000004f680      0x94e C:/Users/Dell/qnx800/target/qnx/x86_64/lib\libc.a(__progname.o)
 .QNX.command.line
                0x000000000004ffce      0x936 C:/Users/Dell/qnx800/target/qnx/x86_64/lib\libc.a(_ssp.o)
 .QNX.command.line
                0x0000000000050904      0x96a C:/Users/Dell/qnx800/target/qnx/x86_64/lib\libc.a(__stack_chk_guard.o)
 .QNX.command.line
                0x000000000005126e      0x993 C:/Users/Dell/qnx800/target/qnx/x86_64/lib\libc.a(xtolotab.o)
 .QNX.command.line
                0x0000000000051c01      0x95f C:/Users/Dell/qnx800/target/qnx/x86_64/lib\libc.a(strncasecmp.o)
 .QNX.command.line
                0x0000000000052560      0x94f C:/Users/Dell/qnx800/target/qnx/x86_64/lib\libc.a(strncmp.o)
 .QNX.command.line
                0x0000000000052eaf      0x94f C:/Users/Dell/qnx800/target/qnx/x86_64/lib\libc.a(strrchr.o)

.qnx.srctrack   0x0000000000000000   0x1853c3
 .qnx.srctrack  0x0000000000000000     0x280f C:/Users/Dell/ide-8.0-workspace/hw.x86_64/src/hardware/startup/boards/../../../../install/x86_64/usr/lib\libstartup.a(_main.o)
 .qnx.srctrack  0x000000000000280f     0x2777 C:/Users/Dell/ide-8.0-workspace/hw.x86_64/src/hardware/startup/boards/../../../../install/x86_64/usr/lib\libstartup.a(board_init.o)
 .qnx.srctrack  0x0000000000004f86     0x277b C:/Users/Dell/ide-8.0-workspace/hw.x86_64/src/hardware/startup/boards/../../../../install/x86_64/usr/lib\libstartup.a(common_options.o)
 .qnx.srctrack  0x0000000000007701     0x277c C:/Users/Dell/ide-8.0-workspace/hw.x86_64/src/hardware/startup/boards/../../../../install/x86_64/usr/lib\libstartup.a(cpu_cluster_add.o)
 .qnx.srctrack  0x0000000000009e7d     0x278a C:/Users/Dell/ide-8.0-workspace/hw.x86_64/src/hardware/startup/boards/../../../../install/x86_64/usr/lib\libstartup.a(cpu_common_options.o)
 .qnx.srctrack  0x000000000000c607     0x2814 C:/Users/Dell/ide-8.0-workspace/hw.x86_64/src/hardware/startup/boards/../../../../install/x86_64/usr/lib\libstartup.a(cpu_startup.o)
 .qnx.srctrack  0x000000000000ee1b     0x2772 C:/Users/Dell/ide-8.0-workspace/hw.x86_64/src/hardware/startup/boards/../../../../install/x86_64/usr/lib\libstartup.a(debug.o)
 .qnx.srctrack  0x000000000001158d     0x2773 C:/Users/Dell/ide-8.0-workspace/hw.x86_64/src/hardware/startup/boards/../../../../install/x86_64/usr/lib\libstartup.a(getopt.o)
 .qnx.srctrack  0x0000000000013d00     0x2774 C:/Users/Dell/ide-8.0-workspace/hw.x86_64/src/hardware/startup/boards/../../../../install/x86_64/usr/lib\libstartup.a(getsize.o)
 .qnx.srctrack  0x0000000000016474     0x2816 C:/Users/Dell/ide-8.0-workspace/hw.x86_64/src/hardware/startup/boards/../../../../install/x86_64/usr/lib\libstartup.a(hw_ser8250.o)
 .qnx.srctrack  0x0000000000018c8a     0x277b C:/Users/Dell/ide-8.0-workspace/hw.x86_64/src/hardware/startup/boards/../../../../install/x86_64/usr/lib\libstartup.a(hw_ser8250_pci.o)
 .qnx.srctrack  0x000000000001b405     0x2783 C:/Users/Dell/ide-8.0-workspace/hw.x86_64/src/hardware/startup/boards/../../../../install/x86_64/usr/lib\libstartup.a(hw_vgaout32.o)
 .qnx.srctrack  0x000000000001db88     0x277d C:/Users/Dell/ide-8.0-workspace/hw.x86_64/src/hardware/startup/boards/../../../../install/x86_64/usr/lib\libstartup.a(hwi_add_nanospin.o)
 .qnx.srctrack  0x0000000000020305     0x2776 C:/Users/Dell/ide-8.0-workspace/hw.x86_64/src/hardware/startup/boards/../../../../install/x86_64/usr/lib\libstartup.a(hwi_alloc.o)
 .qnx.srctrack  0x0000000000022a7b     0x277d C:/Users/Dell/ide-8.0-workspace/hw.x86_64/src/hardware/startup/boards/../../../../install/x86_64/usr/lib\libstartup.a(hypervisor_setup.o)
 .qnx.srctrack  0x00000000000251f8     0x277b C:/Users/Dell/ide-8.0-workspace/hw.x86_64/src/hardware/startup/boards/../../../../install/x86_64/usr/lib\libstartup.a(init_cacheattr.o)
 .qnx.srctrack  0x0000000000027973     0x2784 C:/Users/Dell/ide-8.0-workspace/hw.x86_64/src/hardware/startup/boards/../../../../install/x86_64/usr/lib\libstartup.a(init_cpuinfo.o)
 .qnx.srctrack  0x000000000002a0f7     0x2898 C:/Users/Dell/ide-8.0-workspace/hw.x86_64/src/hardware/startup/boards/../../../../install/x86_64/usr/lib\libstartup.a(init_hwinfo.o)
 .qnx.srctrack  0x000000000002c98f     0x2cf8 C:/Users/Dell/ide-8.0-workspace/hw.x86_64/src/hardware/startup/boards/../../../../install/x86_64/usr/lib\libstartup.a(init_intrinfo.o)
 .qnx.srctrack  0x000000000002f687     0x2812 C:/Users/Dell/ide-8.0-workspace/hw.x86_64/src/hardware/startup/boards/../../../../install/x86_64/usr/lib\libstartup.a(init_intrinfo_msi.o)
 .qnx.srctrack  0x0000000000031e99     0x277c C:/Users/Dell/ide-8.0-workspace/hw.x86_64/src/hardware/startup/boards/../../../../install/x86_64/usr/lib\libstartup.a(init_mmu.o)
 .qnx.srctrack  0x0000000000034615     0x2782 C:/Users/Dell/ide-8.0-workspace/hw.x86_64/src/hardware/startup/boards/../../../../install/x86_64/usr/lib\libstartup.a(init_qtime.o)
 .qnx.srctrack  0x0000000000036d97     0x29b8 C:/Users/Dell/ide-8.0-workspace/hw.x86_64/src/hardware/startup/boards/../../../../install/x86_64/usr/lib\libstartup.a(init_qtime_hpet.o)
 .qnx.srctrack  0x000000000003974f     0x289c C:/Users/Dell/ide-8.0-workspace/hw.x86_64/src/hardware/startup/boards/../../../../install/x86_64/usr/lib\libstartup.a(init_qtime_lapic.o)
 .qnx.srctrack  0x000000000003bfeb     0x280b C:/Users/Dell/ide-8.0-workspace/hw.x86_64/src/hardware/startup/boards/../../../../install/x86_64/usr/lib\libstartup.a(init_raminfo.o)
 .qnx.srctrack  0x000000000003e7f6     0x2803 C:/Users/Dell/ide-8.0-workspace/hw.x86_64/src/hardware/startup/boards/../../../../install/x86_64/usr/lib\libstartup.a(init_raminfo_uefi.o)
 .qnx.srctrack  0x0000000000040ff9     0x278b C:/Users/Dell/ide-8.0-workspace/hw.x86_64/src/hardware/startup/boards/../../../../install/x86_64/usr/lib\libstartup.a(init_reboot_callout.o)
 .qnx.srctrack  0x0000000000043784     0x289a C:/Users/Dell/ide-8.0-workspace/hw.x86_64/src/hardware/startup/boards/../../../../install/x86_64/usr/lib\libstartup.a(init_smp.o)
 .qnx.srctrack  0x000000000004601e     0x2780 C:/Users/Dell/ide-8.0-workspace/hw.x86_64/src/hardware/startup/boards/../../../../install/x86_64/usr/lib\libstartup.a(init_system_private.o)
 .qnx.srctrack  0x000000000004879e     0x2820 C:/Users/Dell/ide-8.0-workspace/hw.x86_64/src/hardware/startup/boards/../../../../install/x86_64/usr/lib\libstartup.a(intel_microcode_updates.o)
 .qnx.srctrack  0x000000000004afbe     0x2898 C:/Users/Dell/ide-8.0-workspace/hw.x86_64/src/hardware/startup/boards/../../../../install/x86_64/usr/lib\libstartup.a(intel_misc.o)
 .qnx.srctrack  0x000000000004d856     0x2896 C:/Users/Dell/ide-8.0-workspace/hw.x86_64/src/hardware/startup/boards/../../../../install/x86_64/usr/lib\libstartup.a(intel_pxh.o)
 .qnx.srctrack  0x00000000000500ec     0x277e C:/Users/Dell/ide-8.0-workspace/hw.x86_64/src/hardware/startup/boards/../../../../install/x86_64/usr/lib\libstartup.a(invert_timer_freq.o)
 .qnx.srctrack  0x000000000005286a     0x277e C:/Users/Dell/ide-8.0-workspace/hw.x86_64/src/hardware/startup/boards/../../../../install/x86_64/usr/lib\libstartup.a(ioapic.o)
 .qnx.srctrack  0x0000000000054fe8     0x2892 C:/Users/Dell/ide-8.0-workspace/hw.x86_64/src/hardware/startup/boards/../../../../install/x86_64/usr/lib\libstartup.a(ioapic_amd.o)
 .qnx.srctrack  0x000000000005787a     0x2783 C:/Users/Dell/ide-8.0-workspace/hw.x86_64/src/hardware/startup/boards/../../../../install/x86_64/usr/lib\libstartup.a(ioapic_find.o)
 .qnx.srctrack  0x0000000000059ffd     0x280c C:/Users/Dell/ide-8.0-workspace/hw.x86_64/src/hardware/startup/boards/../../../../install/x86_64/usr/lib\libstartup.a(ioapic_generic.o)
 .qnx.srctrack  0x000000000005c809     0x2927 C:/Users/Dell/ide-8.0-workspace/hw.x86_64/src/hardware/startup/boards/../../../../install/x86_64/usr/lib\libstartup.a(ioapic_ich.o)
 .qnx.srctrack  0x000000000005f130     0x28a7 C:/Users/Dell/ide-8.0-workspace/hw.x86_64/src/hardware/startup/boards/../../../../install/x86_64/usr/lib\libstartup.a(ioapic_intsrc_disposition.o)
 .qnx.srctrack  0x00000000000619d7     0x29ad C:/Users/Dell/ide-8.0-workspace/hw.x86_64/src/hardware/startup/boards/../../../../install/x86_64/usr/lib\libstartup.a(ioapic_ioh.o)
 .qnx.srctrack  0x0000000000064384     0x280f C:/Users/Dell/ide-8.0-workspace/hw.x86_64/src/hardware/startup/boards/../../../../install/x86_64/usr/lib\libstartup.a(is_uefi_boot.o)
 .qnx.srctrack  0x0000000000066b93     0x2897 C:/Users/Dell/ide-8.0-workspace/hw.x86_64/src/hardware/startup/boards/../../../../install/x86_64/usr/lib\libstartup.a(itss_misc.o)
 .qnx.srctrack  0x000000000006942a     0x2771 C:/Users/Dell/ide-8.0-workspace/hw.x86_64/src/hardware/startup/boards/../../../../install/x86_64/usr/lib\libstartup.a(jtag.o)
 .qnx.srctrack  0x000000000006bb9b     0x2774 C:/Users/Dell/ide-8.0-workspace/hw.x86_64/src/hardware/startup/boards/../../../../install/x86_64/usr/lib\libstartup.a(kprintf.o)
 .qnx.srctrack  0x000000000006e30f     0x2775 C:/Users/Dell/ide-8.0-workspace/hw.x86_64/src/hardware/startup/boards/../../../../install/x86_64/usr/lib\libstartup.a(load_ifs.o)
 .qnx.srctrack  0x0000000000070a84     0x2787 C:/Users/Dell/ide-8.0-workspace/hw.x86_64/src/hardware/startup/boards/../../../../install/x86_64/usr/lib\libstartup.a(map_callout_mem.o)
 .qnx.srctrack  0x000000000007320b     0x2783 C:/Users/Dell/ide-8.0-workspace/hw.x86_64/src/hardware/startup/boards/../../../../install/x86_64/usr/lib\libstartup.a(map_startup_mem.o)
 .qnx.srctrack  0x000000000007598e      0x954 C:/Users/Dell/ide-8.0-workspace/hw.x86_64/src/hardware/startup/boards/../../../../install/x86_64/usr/lib\libstartup.a(memcpy.o)
 .qnx.srctrack  0x00000000000762e2     0x2775 C:/Users/Dell/ide-8.0-workspace/hw.x86_64/src/hardware/startup/boards/../../../../install/x86_64/usr/lib\libstartup.a(memfuncs.o)
 .qnx.srctrack  0x0000000000078a57      0x817 C:/Users/Dell/ide-8.0-workspace/hw.x86_64/src/hardware/startup/boards/../../../../install/x86_64/usr/lib\libstartup.a(memmove.o)
 .qnx.srctrack  0x000000000007926e     0x280b C:/Users/Dell/ide-8.0-workspace/hw.x86_64/src/hardware/startup/boards/../../../../install/x86_64/usr/lib\libstartup.a(p2sb_misc.o)
 .qnx.srctrack  0x000000000007ba79     0x2816 C:/Users/Dell/ide-8.0-workspace/hw.x86_64/src/hardware/startup/boards/../../../../install/x86_64/usr/lib\libstartup.a(pci_known_devs_table.o)
 .qnx.srctrack  0x000000000007e28f     0x280a C:/Users/Dell/ide-8.0-workspace/hw.x86_64/src/hardware/startup/boards/../../../../install/x86_64/usr/lib\libstartup.a(pci_misc.o)
 .qnx.srctrack  0x0000000000080a99     0x277b C:/Users/Dell/ide-8.0-workspace/hw.x86_64/src/hardware/startup/boards/../../../../install/x86_64/usr/lib\libstartup.a(pci_read_cfg16.o)
 .qnx.srctrack  0x0000000000083214     0x2786 C:/Users/Dell/ide-8.0-workspace/hw.x86_64/src/hardware/startup/boards/../../../../install/x86_64/usr/lib\libstartup.a(pci_read_cfg32.o)
 .qnx.srctrack  0x000000000008599a     0x277a C:/Users/Dell/ide-8.0-workspace/hw.x86_64/src/hardware/startup/boards/../../../../install/x86_64/usr/lib\libstartup.a(pci_read_cfg8.o)
 .qnx.srctrack  0x0000000000088114     0x277c C:/Users/Dell/ide-8.0-workspace/hw.x86_64/src/hardware/startup/boards/../../../../install/x86_64/usr/lib\libstartup.a(pci_write_cfg16.o)
 .qnx.srctrack  0x000000000008a890     0x2787 C:/Users/Dell/ide-8.0-workspace/hw.x86_64/src/hardware/startup/boards/../../../../install/x86_64/usr/lib\libstartup.a(pci_write_cfg32.o)
 .qnx.srctrack  0x000000000008d017     0x277b C:/Users/Dell/ide-8.0-workspace/hw.x86_64/src/hardware/startup/boards/../../../../install/x86_64/usr/lib\libstartup.a(pci_write_cfg8.o)
 .qnx.srctrack  0x000000000008f792     0x280a C:/Users/Dell/ide-8.0-workspace/hw.x86_64/src/hardware/startup/boards/../../../../install/x86_64/usr/lib\libstartup.a(pcu_misc.o)
 .qnx.srctrack  0x0000000000091f9c     0x289b C:/Users/Dell/ide-8.0-workspace/hw.x86_64/src/hardware/startup/boards/../../../../install/x86_64/usr/lib\libstartup.a(piix4_misc.o)
 .qnx.srctrack  0x0000000000094837     0x2885 C:/Users/Dell/ide-8.0-workspace/hw.x86_64/src/hardware/startup/boards/../../../../install/x86_64/usr/lib\libstartup.a(print_sysp.o)
 .qnx.srctrack  0x00000000000970bc     0x277f C:/Users/Dell/ide-8.0-workspace/hw.x86_64/src/hardware/startup/boards/../../../../install/x86_64/usr/lib\libstartup.a(processor64.o)
 .qnx.srctrack  0x000000000009983b     0x2770 C:/Users/Dell/ide-8.0-workspace/hw.x86_64/src/hardware/startup/boards/../../../../install/x86_64/usr/lib\libstartup.a(ram.o)
 .qnx.srctrack  0x000000000009bfab     0x2778 C:/Users/Dell/ide-8.0-workspace/hw.x86_64/src/hardware/startup/boards/../../../../install/x86_64/usr/lib\libstartup.a(restore_ifs.o)
 .qnx.srctrack  0x000000000009e723     0x289b C:/Users/Dell/ide-8.0-workspace/hw.x86_64/src/hardware/startup/boards/../../../../install/x86_64/usr/lib\libstartup.a(sbx00_misc.o)
 .qnx.srctrack  0x00000000000a0fbe     0x2897 C:/Users/Dell/ide-8.0-workspace/hw.x86_64/src/hardware/startup/boards/../../../../install/x86_64/usr/lib\libstartup.a(sch_misc.o)
 .qnx.srctrack  0x00000000000a3855     0x2808 C:/Users/Dell/ide-8.0-workspace/hw.x86_64/src/hardware/startup/boards/../../../../install/x86_64/usr/lib\libstartup.a(set_cycles.o)
 .qnx.srctrack  0x00000000000a605d     0x2770 C:/Users/Dell/ide-8.0-workspace/hw.x86_64/src/hardware/startup/boards/../../../../install/x86_64/usr/lib\libstartup.a(ssp.o)
 .qnx.srctrack  0x00000000000a87cd     0x27fb C:/Users/Dell/ide-8.0-workspace/hw.x86_64/src/hardware/startup/boards/../../../../install/x86_64/usr/lib\libstartup.a(startnext.o)
 .qnx.srctrack  0x00000000000aafc8     0x2779 C:/Users/Dell/ide-8.0-workspace/hw.x86_64/src/hardware/startup/boards/../../../../install/x86_64/usr/lib\libstartup.a(startup_info.o)
 .qnx.srctrack  0x00000000000ad741     0x2774 C:/Users/Dell/ide-8.0-workspace/hw.x86_64/src/hardware/startup/boards/../../../../install/x86_64/usr/lib\libstartup.a(strings.o)
 .qnx.srctrack  0x00000000000afeb5     0x2774 C:/Users/Dell/ide-8.0-workspace/hw.x86_64/src/hardware/startup/boards/../../../../install/x86_64/usr/lib\libstartup.a(strtoul.o)
 .qnx.srctrack  0x00000000000b2629     0x277b C:/Users/Dell/ide-8.0-workspace/hw.x86_64/src/hardware/startup/boards/../../../../install/x86_64/usr/lib\libstartup.a(syspage_memory.o)
 .qnx.srctrack  0x00000000000b4da4     0x277a C:/Users/Dell/ide-8.0-workspace/hw.x86_64/src/hardware/startup/boards/../../../../install/x86_64/usr/lib\libstartup.a(tweak_cmdline.o)
 .qnx.srctrack  0x00000000000b751e     0x27f6 C:/Users/Dell/ide-8.0-workspace/hw.x86_64/src/hardware/startup/boards/../../../../install/x86_64/usr/lib\libstartup.a(uefi.o)
 .qnx.srctrack  0x00000000000b9d14     0x2802 C:/Users/Dell/ide-8.0-workspace/hw.x86_64/src/hardware/startup/boards/../../../../install/x86_64/usr/lib\libstartup.a(uefi_init.o)
 .qnx.srctrack  0x00000000000bc516     0x27f9 C:/Users/Dell/ide-8.0-workspace/hw.x86_64/src/hardware/startup/boards/../../../../install/x86_64/usr/lib\libstartup.a(uefi_io.o)
 .qnx.srctrack  0x00000000000bed0f     0x2776 C:/Users/Dell/ide-8.0-workspace/hw.x86_64/src/hardware/startup/boards/../../../../install/x86_64/usr/lib\libstartup.a(ultoa_end.o)
 .qnx.srctrack  0x00000000000c1485     0x2777 C:/Users/Dell/ide-8.0-workspace/hw.x86_64/src/hardware/startup/boards/../../../../install/x86_64/usr/lib\libstartup.a(uncompress.o)
 .qnx.srctrack  0x00000000000c3bfc     0x28bd C:/Users/Dell/ide-8.0-workspace/hw.x86_64/src/hardware/startup/boards/../../../../install/x86_64/usr/lib\libstartup.a(uncompress_ucl.o)
 .qnx.srctrack  0x00000000000c64b9     0x2788 C:/Users/Dell/ide-8.0-workspace/hw.x86_64/src/hardware/startup/boards/../../../../install/x86_64/usr/lib\libstartup.a(x86_64_pcbios_shadow.o)
 .qnx.srctrack  0x00000000000c8c41     0x2771 C:/Users/Dell/ide-8.0-workspace/hw.x86_64/src/hardware/startup/boards/../../../../install/x86_64/usr/lib\libstartup.a(acpi.o)
 .qnx.srctrack  0x00000000000cb3b2     0x2783 C:/Users/Dell/ide-8.0-workspace/hw.x86_64/src/hardware/startup/boards/../../../../install/x86_64/usr/lib\libstartup.a(acpi_ioapic.o)
 .qnx.srctrack  0x00000000000cdb35     0x277a C:/Users/Dell/ide-8.0-workspace/hw.x86_64/src/hardware/startup/boards/../../../../install/x86_64/usr/lib\libstartup.a(add_interrupt.o)
 .qnx.srctrack  0x00000000000d02af     0x2778 C:/Users/Dell/ide-8.0-workspace/hw.x86_64/src/hardware/startup/boards/../../../../install/x86_64/usr/lib\libstartup.a(alloc_qtime.o)
 .qnx.srctrack  0x00000000000d2a27     0x2920 C:/Users/Dell/ide-8.0-workspace/hw.x86_64/src/hardware/startup/boards/../../../../install/x86_64/usr/lib\libstartup.a(amd_misc.o)
 .qnx.srctrack  0x00000000000d5347     0x2774 C:/Users/Dell/ide-8.0-workspace/hw.x86_64/src/hardware/startup/boards/../../../../install/x86_64/usr/lib\libstartup.a(ap_fail.o)
 .qnx.srctrack  0x00000000000d7abb     0x2935 C:/Users/Dell/ide-8.0-workspace/hw.x86_64/src/hardware/startup/boards/../../../../install/x86_64/usr/lib\libstartup.a(apic_io_intr.o)
 .qnx.srctrack  0x00000000000da3f0     0x289a C:/Users/Dell/ide-8.0-workspace/hw.x86_64/src/hardware/startup/boards/../../../../install/x86_64/usr/lib\libstartup.a(apic_local_intr.o)
 .qnx.srctrack  0x00000000000dcc8a     0x2782 C:/Users/Dell/ide-8.0-workspace/hw.x86_64/src/hardware/startup/boards/../../../../install/x86_64/usr/lib\libstartup.a(apic_paddr.o)
 .qnx.srctrack  0x00000000000df40c     0x2773 C:/Users/Dell/ide-8.0-workspace/hw.x86_64/src/hardware/startup/boards/../../../../install/x86_64/usr/lib\libstartup.a(as_add.o)
 .qnx.srctrack  0x00000000000e1b7f     0x2775 C:/Users/Dell/ide-8.0-workspace/hw.x86_64/src/hardware/startup/boards/../../../../install/x86_64/usr/lib\libstartup.a(as_add64.o)
 .qnx.srctrack  0x00000000000e42f4     0x277e C:/Users/Dell/ide-8.0-workspace/hw.x86_64/src/hardware/startup/boards/../../../../install/x86_64/usr/lib\libstartup.a(as_add_containing.o)
 .qnx.srctrack  0x00000000000e6a72     0x2782 C:/Users/Dell/ide-8.0-workspace/hw.x86_64/src/hardware/startup/boards/../../../../install/x86_64/usr/lib\libstartup.a(as_default.o)
 .qnx.srctrack  0x00000000000e91f4     0x2774 C:/Users/Dell/ide-8.0-workspace/hw.x86_64/src/hardware/startup/boards/../../../../install/x86_64/usr/lib\libstartup.a(as_find.o)
 .qnx.srctrack  0x00000000000eb968     0x277f C:/Users/Dell/ide-8.0-workspace/hw.x86_64/src/hardware/startup/boards/../../../../install/x86_64/usr/lib\libstartup.a(as_find_containing.o)
 .qnx.srctrack  0x00000000000ee0e7     0x2778 C:/Users/Dell/ide-8.0-workspace/hw.x86_64/src/hardware/startup/boards/../../../../install/x86_64/usr/lib\libstartup.a(as_off2info.o)
 .qnx.srctrack  0x00000000000f085f     0x278c C:/Users/Dell/ide-8.0-workspace/hw.x86_64/src/hardware/startup/boards/../../../../install/x86_64/usr/lib\libstartup.a(board_find_acpi_rsdp.o)
 .qnx.srctrack  0x00000000000f2feb     0x2791 C:/Users/Dell/ide-8.0-workspace/hw.x86_64/src/hardware/startup/boards/../../../../install/x86_64/usr/lib\libstartup.a(board_find_acpi_rsdp_bios.o)
 .qnx.srctrack  0x00000000000f577c     0x2816 C:/Users/Dell/ide-8.0-workspace/hw.x86_64/src/hardware/startup/boards/../../../../install/x86_64/usr/lib\libstartup.a(board_find_acpi_rsdp_uefi.o)
 .qnx.srctrack  0x00000000000f7f92     0x2781 C:/Users/Dell/ide-8.0-workspace/hw.x86_64/src/hardware/startup/boards/../../../../install/x86_64/usr/lib\libstartup.a(board_smp.o)
 .qnx.srctrack  0x00000000000fa713     0x2780 C:/Users/Dell/ide-8.0-workspace/hw.x86_64/src/hardware/startup/boards/../../../../install/x86_64/usr/lib\libstartup.a(board_sysctl.o)
 .qnx.srctrack  0x00000000000fce93     0x2777 C:/Users/Dell/ide-8.0-workspace/hw.x86_64/src/hardware/startup/boards/../../../../install/x86_64/usr/lib\libstartup.a(calc_cksum.o)
 .qnx.srctrack  0x00000000000ff60a     0x2775 C:/Users/Dell/ide-8.0-workspace/hw.x86_64/src/hardware/startup/boards/../../../../install/x86_64/usr/lib\libstartup.a(callouts.o)
 .qnx.srctrack  0x0000000000101d7f     0x2778 C:/Users/Dell/ide-8.0-workspace/hw.x86_64/src/hardware/startup/boards/../../../../install/x86_64/usr/lib\libstartup.a(chip_access.o)
 .qnx.srctrack  0x00000000001044f7     0x289e C:/Users/Dell/ide-8.0-workspace/hw.x86_64/src/hardware/startup/boards/../../../../install/x86_64/usr/lib\libstartup.a(cpu_family_clock.o)
 .qnx.srctrack  0x0000000000106d95     0x2788 C:/Users/Dell/ide-8.0-workspace/hw.x86_64/src/hardware/startup/boards/../../../../install/x86_64/usr/lib\libstartup.a(cpu_family_model.o)
 .qnx.srctrack  0x000000000010951d     0x2784 C:/Users/Dell/ide-8.0-workspace/hw.x86_64/src/hardware/startup/boards/../../../../install/x86_64/usr/lib\libstartup.a(cpu_features.o)
 .qnx.srctrack  0x000000000010bca1     0x2781 C:/Users/Dell/ide-8.0-workspace/hw.x86_64/src/hardware/startup/boards/../../../../install/x86_64/usr/lib\libstartup.a(cpu_startnext.o)
 .qnx.srctrack  0x000000000010e422     0x2786 C:/Users/Dell/ide-8.0-workspace/hw.x86_64/src/hardware/startup/boards/../../../../install/x86_64/usr/lib\libstartup.a(cpu_syspage_memory.o)
 .qnx.srctrack  0x0000000000110ba8     0x277f C:/Users/Dell/ide-8.0-workspace/hw.x86_64/src/hardware/startup/boards/../../../../install/x86_64/usr/lib\libstartup.a(cpu_tsc.o)
 .qnx.srctrack  0x0000000000113327     0x2814 C:/Users/Dell/ide-8.0-workspace/hw.x86_64/src/hardware/startup/boards/../../../../install/x86_64/usr/lib\libstartup.a(cpu_tweak_cmdline.o)
 .qnx.srctrack  0x0000000000115b3b     0x2777 C:/Users/Dell/ide-8.0-workspace/hw.x86_64/src/hardware/startup/boards/../../../../install/x86_64/usr/lib\libstartup.a(crash_done.o)
 .qnx.srctrack  0x00000000001182b2     0x277d C:/Users/Dell/ide-8.0-workspace/hw.x86_64/src/hardware/startup/boards/../../../../install/x86_64/usr/lib\libstartup.a(dummy_print_char.o)
 .qnx.srctrack  0x000000000011aa2f     0x2770 C:/Users/Dell/ide-8.0-workspace/hw.x86_64/src/hardware/startup/boards/../../../../install/x86_64/usr/lib\libstartup.a(elf.o)
 .qnx.srctrack  0x000000000011d19f     0x2772 C:/Users/Dell/ide-8.0-workspace/hw.x86_64/src/hardware/startup/boards/../../../../install/x86_64/usr/lib\libstartup.a(elf32.o)
 .qnx.srctrack  0x000000000011f911     0x2772 C:/Users/Dell/ide-8.0-workspace/hw.x86_64/src/hardware/startup/boards/../../../../install/x86_64/usr/lib\libstartup.a(elf64.o)
 .qnx.srctrack  0x0000000000122083     0x277b C:/Users/Dell/ide-8.0-workspace/hw.x86_64/src/hardware/startup/boards/../../../../install/x86_64/usr/lib\libstartup.a(elf_map.o)
 .qnx.srctrack  0x00000000001247fe     0x2a7f C:/Users/Dell/ide-8.0-workspace/hw.x86_64/src/hardware/startup/boards/../../../../install/x86_64/usr/lib\libstartup.a(fdt_vars.o)
 .qnx.srctrack  0x000000000012727d     0x2812 C:/Users/Dell/ide-8.0-workspace/hw.x86_64/src/hardware/startup/boards/../../../../install/x86_64/usr/lib\libstartup.a(find_ecam_base.o)
 .qnx.srctrack  0x0000000000129a8f     0x2785 C:/Users/Dell/ide-8.0-workspace/hw.x86_64/src/hardware/startup/boards/../../../../install/x86_64/usr/lib\libstartup.a(find_top_intr.o)
 .qnx.srctrack  0x000000000012c214     0x280a C:/Users/Dell/ide-8.0-workspace/hw.x86_64/src/hardware/startup/boards/../../../../install/x86_64/usr/lib\libstartup.a(hv_guest.o)
 .qnx.srctrack  0x000000000012ea1e     0x2783 C:/Users/Dell/ide-8.0-workspace/hw.x86_64/src/hardware/startup/boards/../../../../install/x86_64/usr/lib\libstartup.a(hw_cpuid_string.o)
 .qnx.srctrack  0x00000000001311a1     0x277f C:/Users/Dell/ide-8.0-workspace/hw.x86_64/src/hardware/startup/boards/../../../../install/x86_64/usr/lib\libstartup.a(hw_cpuspeed.o)
 .qnx.srctrack  0x0000000000133920     0x2782 C:/Users/Dell/ide-8.0-workspace/hw.x86_64/src/hardware/startup/boards/../../../../install/x86_64/usr/lib\libstartup.a(hw_scanmem.o)
 .qnx.srctrack  0x00000000001360a2     0x277b C:/Users/Dell/ide-8.0-workspace/hw.x86_64/src/hardware/startup/boards/../../../../install/x86_64/usr/lib\libstartup.a(hwi_add_device.o)
 .qnx.srctrack  0x000000000013881d     0x2778 C:/Users/Dell/ide-8.0-workspace/hw.x86_64/src/hardware/startup/boards/../../../../install/x86_64/usr/lib\libstartup.a(hwi_add_irq.o)
 .qnx.srctrack  0x000000000013af95     0x277d C:/Users/Dell/ide-8.0-workspace/hw.x86_64/src/hardware/startup/boards/../../../../install/x86_64/usr/lib\libstartup.a(hwi_add_location.o)
 .qnx.srctrack  0x000000000013d712     0x2778 C:/Users/Dell/ide-8.0-workspace/hw.x86_64/src/hardware/startup/boards/../../../../install/x86_64/usr/lib\libstartup.a(hwi_default.o)
 .qnx.srctrack  0x000000000013fe8a     0x2778 C:/Users/Dell/ide-8.0-workspace/hw.x86_64/src/hardware/startup/boards/../../../../install/x86_64/usr/lib\libstartup.a(hwi_find_as.o)
 .qnx.srctrack  0x0000000000142602     0x2777 C:/Users/Dell/ide-8.0-workspace/hw.x86_64/src/hardware/startup/boards/../../../../install/x86_64/usr/lib\libstartup.a(hwidev_add.o)
 .qnx.srctrack  0x0000000000144d79     0x277b C:/Users/Dell/ide-8.0-workspace/hw.x86_64/src/hardware/startup/boards/../../../../install/x86_64/usr/lib\libstartup.a(hwitag_add_irq.o)
 .qnx.srctrack  0x00000000001474f4     0x2780 C:/Users/Dell/ide-8.0-workspace/hw.x86_64/src/hardware/startup/boards/../../../../install/x86_64/usr/lib\libstartup.a(hwitag_add_location.o)
 .qnx.srctrack  0x0000000000149c74     0x277e C:/Users/Dell/ide-8.0-workspace/hw.x86_64/src/hardware/startup/boards/../../../../install/x86_64/usr/lib\libstartup.a(hypervisor.o)
 .qnx.srctrack  0x000000000014c3f2     0x2925 C:/Users/Dell/ide-8.0-workspace/hw.x86_64/src/hardware/startup/boards/../../../../install/x86_64/usr/lib\libstartup.a(ich_misc.o)
 .qnx.srctrack  0x000000000014ed17     0x277c C:/Users/Dell/ide-8.0-workspace/hw.x86_64/src/hardware/startup/boards/../../../../install/x86_64/usr/lib\libstartup.a(imps.o)
 .qnx.srctrack  0x0000000000151493     0x2783 C:/Users/Dell/ide-8.0-workspace/hw.x86_64/src/hardware/startup/boards/../../../../install/x86_64/usr/lib\libstartup.a(imps_ioapic.o)
 .qnx.srctrack  0x0000000000153c16     0x2780 C:/Users/Dell/ide-8.0-workspace/hw.x86_64/src/hardware/startup/boards/../../../../install/x86_64/usr/lib\libstartup.a(imps_smp.o)
 .qnx.srctrack  0x0000000000156396     0x2783 C:/Users/Dell/ide-8.0-workspace/hw.x86_64/src/hardware/startup/boards/../../../../install/x86_64/usr/lib\libstartup.a(init_asinfo.o)
 .qnx.srctrack  0x0000000000158b19     0x277c C:/Users/Dell/ide-8.0-workspace/hw.x86_64/src/hardware/startup/boards/../../../../install/x86_64/usr/lib\libstartup.a(init_gdt.o)
 .qnx.srctrack  0x000000000015b295     0x278b C:/Users/Dell/ide-8.0-workspace/hw.x86_64/src/hardware/startup/boards/../../../../install/x86_64/usr/lib\libstartup.a(init_mitigation_mem.o)
 .qnx.srctrack  0x000000000015da20     0x2816 C:/Users/Dell/ide-8.0-workspace/hw.x86_64/src/hardware/startup/boards/../../../../install/x86_64/usr/lib\libstartup.a(ioapic_auto_config.o)
 .qnx.srctrack  0x0000000000160236     0x281a C:/Users/Dell/ide-8.0-workspace/hw.x86_64/src/hardware/startup/boards/../../../../install/x86_64/usr/lib\libstartup.a(ioapic_default_configs.o)
 .qnx.srctrack  0x0000000000162a50     0x2786 C:/Users/Dell/ide-8.0-workspace/hw.x86_64/src/hardware/startup/boards/../../../../install/x86_64/usr/lib\libstartup.a(map_startup_io.o)
 .qnx.srctrack  0x00000000001651d6     0x2780 C:/Users/Dell/ide-8.0-workspace/hw.x86_64/src/hardware/startup/boards/../../../../install/x86_64/usr/lib\libstartup.a(rtc_time.o)
 .qnx.srctrack  0x0000000000167956     0x277a C:/Users/Dell/ide-8.0-workspace/hw.x86_64/src/hardware/startup/boards/../../../../install/x86_64/usr/lib\libstartup.a(timer_ns2tick.o)
 .qnx.srctrack  0x000000000016a0d0     0x277a C:/Users/Dell/ide-8.0-workspace/hw.x86_64/src/hardware/startup/boards/../../../../install/x86_64/usr/lib\libstartup.a(timer_tick2ns.o)
 .qnx.srctrack  0x000000000016c84a     0x2780 C:/Users/Dell/ide-8.0-workspace/hw.x86_64/src/hardware/startup/boards/../../../../install/x86_64/usr/lib\libstartup.a(acpi_smp.o)
 .qnx.srctrack  0x000000000016efca     0x2780 C:/Users/Dell/ide-8.0-workspace/hw.x86_64/src/hardware/startup/boards/../../../../install/x86_64/usr/lib\libstartup.a(apic_smp.o)
 .qnx.srctrack  0x000000000017174a     0x277e C:/Users/Dell/ide-8.0-workspace/hw.x86_64/src/hardware/startup/boards/../../../../install/x86_64/usr/lib\libstartup.a(bootstrap_cmdline.o)
 .qnx.srctrack  0x0000000000173ec8     0x2805 C:/Users/Dell/ide-8.0-workspace/hw.x86_64/src/hardware/startup/boards/../../../../install/x86_64/usr/lib\libstartup.a(hw_rtc_mc146818.o)
 .qnx.srctrack  0x00000000001766cd     0x2778 C:/Users/Dell/ide-8.0-workspace/hw.x86_64/src/hardware/startup/boards/../../../../install/x86_64/usr/lib\libstartup.a(hwi_add_rtc.o)
 .qnx.srctrack  0x0000000000178e45     0x2774 C:/Users/Dell/ide-8.0-workspace/hw.x86_64/src/hardware/startup/boards/../../../../install/x86_64/usr/lib\libstartup.a(bcd2bin.o)
 .qnx.srctrack  0x000000000017b5b9     0x2778 C:/Users/Dell/ide-8.0-workspace/hw.x86_64/src/hardware/startup/boards/../../../../install/x86_64/usr/lib\libstartup.a(calc_time_t.o)
 .qnx.srctrack  0x000000000017dd31      0xd4f C:/Users/Dell/qnx800/target/qnx/x86_64/usr/lib\libucl.a(n2b_d.o)
 .qnx.srctrack  0x000000000017ea80      0x8cb C:/Users/Dell/qnx800/target/qnx/x86_64/lib\libc.a(hwi_find_item.o)
 .qnx.srctrack  0x000000000017f34b      0x635 C:/Users/Dell/qnx800/target/qnx/x86_64/lib\libc.a(hwi_off2tag.o)
 .qnx.srctrack  0x000000000017f980      0x635 C:/Users/Dell/qnx800/target/qnx/x86_64/lib\libc.a(hwi_tag2off.o)
 .qnx.srctrack  0x000000000017ffb5      0x69a C:/Users/Dell/qnx800/target/qnx/x86_64/lib\libc.a(strcasecmp.o)
 .qnx.srctrack  0x000000000018064f      0x707 C:/Users/Dell/qnx800/target/qnx/x86_64/lib\libc.a(strlcpy.o)
 .qnx.srctrack  0x0000000000180d56      0x76e C:/Users/Dell/qnx800/target/qnx/x86_64/lib\libc.a(strstr.o)
 .qnx.srctrack  0x00000000001814c4      0x70d C:/Users/Dell/qnx800/target/qnx/x86_64/lib\libc.a(__progname.o)
 .qnx.srctrack  0x0000000000181bd1      0x298 C:/Users/Dell/qnx800/target/qnx/x86_64/lib\libc.a(_ssp.o)
 .qnx.srctrack  0x0000000000181e69      0xca9 C:/Users/Dell/qnx800/target/qnx/x86_64/lib\libc.a(__stack_chk_guard.o)
 .qnx.srctrack  0x0000000000182b12     0x14e8 C:/Users/Dell/qnx800/target/qnx/x86_64/lib\libc.a(xtolotab.o)
 .qnx.srctrack  0x0000000000183ffa      0x69b C:/Users/Dell/qnx800/target/qnx/x86_64/lib\libc.a(strncasecmp.o)
 .qnx.srctrack  0x0000000000184695      0x697 C:/Users/Dell/qnx800/target/qnx/x86_64/lib\libc.a(strncmp.o)
 .qnx.srctrack  0x0000000000184d2c      0x697 C:/Users/Dell/qnx800/target/qnx/x86_64/lib\libc.a(strrchr.o)

.gnu.build.attributes
 *(.gnu.build.attributes)

.debug
 *(.debug)

.line
 *(.line)

.debug_srcinfo
 *(.debug_srcinfo)

.debug_sfnames
 *(.debug_sfnames)

.debug_aranges  0x0000000000000000      0x630
 *(.debug_aranges)
 .debug_aranges
                0x0000000000000000       0x30 C:/Users/Dell/ide-8.0-workspace/hw.x86_64/src/hardware/startup/boards/../../../../install/x86_64/usr/lib\libstartup.a(callout_debug_8250.o)
 .debug_aranges
                0x0000000000000030       0x30 C:/Users/Dell/ide-8.0-workspace/hw.x86_64/src/hardware/startup/boards/../../../../install/x86_64/usr/lib\libstartup.a(callout_debug_con.o)
 .debug_aranges
                0x0000000000000060       0x30 C:/Users/Dell/ide-8.0-workspace/hw.x86_64/src/hardware/startup/boards/../../../../install/x86_64/usr/lib\libstartup.a(callout_debug_dummy.o)
 .debug_aranges
                0x0000000000000090       0x30 C:/Users/Dell/ide-8.0-workspace/hw.x86_64/src/hardware/startup/boards/../../../../install/x86_64/usr/lib\libstartup.a(cstart64.o)
 .debug_aranges
                0x00000000000000c0       0x30 C:/Users/Dell/ide-8.0-workspace/hw.x86_64/src/hardware/startup/boards/../../../../install/x86_64/usr/lib\libstartup.a(early_setup.o)
 .debug_aranges
                0x00000000000000f0       0x30 C:/Users/Dell/ide-8.0-workspace/hw.x86_64/src/hardware/startup/boards/../../../../install/x86_64/usr/lib\libstartup.a(entry_32prot.o)
 .debug_aranges
                0x0000000000000120       0x30 C:/Users/Dell/ide-8.0-workspace/hw.x86_64/src/hardware/startup/boards/../../../../install/x86_64/usr/lib\libstartup.a(hw_cputype.o)
 .debug_aranges
                0x0000000000000150       0x30 C:/Users/Dell/ide-8.0-workspace/hw.x86_64/src/hardware/startup/boards/../../../../install/x86_64/usr/lib\libstartup.a(64apstart.o)
 .debug_aranges
                0x0000000000000180       0x30 C:/Users/Dell/ide-8.0-workspace/hw.x86_64/src/hardware/startup/boards/../../../../install/x86_64/usr/lib\libstartup.a(callout_apstart.o)
 .debug_aranges
                0x00000000000001b0       0x30 C:/Users/Dell/ide-8.0-workspace/hw.x86_64/src/hardware/startup/boards/../../../../install/x86_64/usr/lib\libstartup.a(callout_interrupt_apic.o)
 .debug_aranges
                0x00000000000001e0       0x30 C:/Users/Dell/ide-8.0-workspace/hw.x86_64/src/hardware/startup/boards/../../../../install/x86_64/usr/lib\libstartup.a(callout_interrupt_ioapic.o)
 .debug_aranges
                0x0000000000000210       0x30 C:/Users/Dell/ide-8.0-workspace/hw.x86_64/src/hardware/startup/boards/../../../../install/x86_64/usr/lib\libstartup.a(callout_reboot.o)
 .debug_aranges
                0x0000000000000240       0x30 C:/Users/Dell/ide-8.0-workspace/hw.x86_64/src/hardware/startup/boards/../../../../install/x86_64/usr/lib\libstartup.a(cpu_id.o)
 .debug_aranges
                0x0000000000000270       0x30 C:/Users/Dell/ide-8.0-workspace/hw.x86_64/src/hardware/startup/boards/../../../../install/x86_64/usr/lib\libstartup.a(16apstart.o)
 .debug_aranges
                0x00000000000002a0       0x30 C:/Users/Dell/qnx800/target/qnx/x86_64/usr/lib\libucl.a(n2b_d.o)
 .debug_aranges
                0x00000000000002d0       0x40 C:/Users/Dell/qnx800/target/qnx/x86_64/lib\libc.a(hwi_find_item.o)
 .debug_aranges
                0x0000000000000310       0x30 C:/Users/Dell/qnx800/target/qnx/x86_64/lib\libc.a(hwi_off2tag.o)
 .debug_aranges
                0x0000000000000340       0x30 C:/Users/Dell/qnx800/target/qnx/x86_64/lib\libc.a(hwi_tag2off.o)
 .debug_aranges
                0x0000000000000370       0x30 C:/Users/Dell/qnx800/target/qnx/x86_64/lib\libc.a(memcmp.o)
 .debug_aranges
                0x00000000000003a0       0x30 C:/Users/Dell/qnx800/target/qnx/x86_64/lib\libc.a(memset.o)
 .debug_aranges
                0x00000000000003d0       0x30 C:/Users/Dell/qnx800/target/qnx/x86_64/lib\libc.a(strcasecmp.o)
 .debug_aranges
                0x0000000000000400       0x30 C:/Users/Dell/qnx800/target/qnx/x86_64/lib\libc.a(strchr.o)
 .debug_aranges
                0x0000000000000430       0x30 C:/Users/Dell/qnx800/target/qnx/x86_64/lib\libc.a(strcmp.o)
 .debug_aranges
                0x0000000000000460       0x30 C:/Users/Dell/qnx800/target/qnx/x86_64/lib\libc.a(strlcpy.o)
 .debug_aranges
                0x0000000000000490       0x30 C:/Users/Dell/qnx800/target/qnx/x86_64/lib\libc.a(strlen.o)
 .debug_aranges
                0x00000000000004c0       0x30 C:/Users/Dell/qnx800/target/qnx/x86_64/lib\libc.a(strstr.o)
 .debug_aranges
                0x00000000000004f0       0x30 C:/Users/Dell/qnx800/target/qnx/x86_64/lib\libc.a(__progname.o)
 .debug_aranges
                0x0000000000000520       0x30 C:/Users/Dell/qnx800/target/qnx/x86_64/lib\libc.a(_ssp.o)
 .debug_aranges
                0x0000000000000550       0x20 C:/Users/Dell/qnx800/target/qnx/x86_64/lib\libc.a(__stack_chk_guard.o)
 .debug_aranges
                0x0000000000000570       0x30 C:/Users/Dell/qnx800/target/qnx/x86_64/lib\libc.a(xtolotab.o)
 .debug_aranges
                0x00000000000005a0       0x30 C:/Users/Dell/qnx800/target/qnx/x86_64/lib\libc.a(strncasecmp.o)
 .debug_aranges
                0x00000000000005d0       0x30 C:/Users/Dell/qnx800/target/qnx/x86_64/lib\libc.a(strncmp.o)
 .debug_aranges
                0x0000000000000600       0x30 C:/Users/Dell/qnx800/target/qnx/x86_64/lib\libc.a(strrchr.o)

.debug_pubnames
 *(.debug_pubnames)

.debug_info     0x0000000000000000     0x271d
 *(.debug_info)
 .debug_info    0x0000000000000000       0x71 C:/Users/Dell/ide-8.0-workspace/hw.x86_64/src/hardware/startup/boards/../../../../install/x86_64/usr/lib\libstartup.a(callout_debug_8250.o)
 .debug_info    0x0000000000000071       0x71 C:/Users/Dell/ide-8.0-workspace/hw.x86_64/src/hardware/startup/boards/../../../../install/x86_64/usr/lib\libstartup.a(callout_debug_con.o)
 .debug_info    0x00000000000000e2       0x71 C:/Users/Dell/ide-8.0-workspace/hw.x86_64/src/hardware/startup/boards/../../../../install/x86_64/usr/lib\libstartup.a(callout_debug_dummy.o)
 .debug_info    0x0000000000000153       0x2e C:/Users/Dell/ide-8.0-workspace/hw.x86_64/src/hardware/startup/boards/../../../../install/x86_64/usr/lib\libstartup.a(cstart64.o)
 .debug_info    0x0000000000000181       0x45 C:/Users/Dell/ide-8.0-workspace/hw.x86_64/src/hardware/startup/boards/../../../../install/x86_64/usr/lib\libstartup.a(early_setup.o)
 .debug_info    0x00000000000001c6       0x71 C:/Users/Dell/ide-8.0-workspace/hw.x86_64/src/hardware/startup/boards/../../../../install/x86_64/usr/lib\libstartup.a(entry_32prot.o)
 .debug_info    0x0000000000000237       0x2e C:/Users/Dell/ide-8.0-workspace/hw.x86_64/src/hardware/startup/boards/../../../../install/x86_64/usr/lib\libstartup.a(hw_cputype.o)
 .debug_info    0x0000000000000265       0x2e C:/Users/Dell/ide-8.0-workspace/hw.x86_64/src/hardware/startup/boards/../../../../install/x86_64/usr/lib\libstartup.a(64apstart.o)
 .debug_info    0x0000000000000293       0x45 C:/Users/Dell/ide-8.0-workspace/hw.x86_64/src/hardware/startup/boards/../../../../install/x86_64/usr/lib\libstartup.a(callout_apstart.o)
 .debug_info    0x00000000000002d8      0x121 C:/Users/Dell/ide-8.0-workspace/hw.x86_64/src/hardware/startup/boards/../../../../install/x86_64/usr/lib\libstartup.a(callout_interrupt_apic.o)
 .debug_info    0x00000000000003f9       0x9d C:/Users/Dell/ide-8.0-workspace/hw.x86_64/src/hardware/startup/boards/../../../../install/x86_64/usr/lib\libstartup.a(callout_interrupt_ioapic.o)
 .debug_info    0x0000000000000496       0x45 C:/Users/Dell/ide-8.0-workspace/hw.x86_64/src/hardware/startup/boards/../../../../install/x86_64/usr/lib\libstartup.a(callout_reboot.o)
 .debug_info    0x00000000000004db       0x71 C:/Users/Dell/ide-8.0-workspace/hw.x86_64/src/hardware/startup/boards/../../../../install/x86_64/usr/lib\libstartup.a(cpu_id.o)
 .debug_info    0x000000000000054c       0x45 C:/Users/Dell/ide-8.0-workspace/hw.x86_64/src/hardware/startup/boards/../../../../install/x86_64/usr/lib\libstartup.a(16apstart.o)
 .debug_info    0x0000000000000591      0x3f5 C:/Users/Dell/qnx800/target/qnx/x86_64/usr/lib\libucl.a(n2b_d.o)
 .debug_info    0x0000000000000986      0xaf9 C:/Users/Dell/qnx800/target/qnx/x86_64/lib\libc.a(hwi_find_item.o)
 .debug_info    0x000000000000147f       0xef C:/Users/Dell/qnx800/target/qnx/x86_64/lib\libc.a(hwi_off2tag.o)
 .debug_info    0x000000000000156e       0xfb C:/Users/Dell/qnx800/target/qnx/x86_64/lib\libc.a(hwi_tag2off.o)
 .debug_info    0x0000000000001669       0x5b C:/Users/Dell/qnx800/target/qnx/x86_64/lib\libc.a(memcmp.o)
 .debug_info    0x00000000000016c4       0x5b C:/Users/Dell/qnx800/target/qnx/x86_64/lib\libc.a(memset.o)
 .debug_info    0x000000000000171f       0xf5 C:/Users/Dell/qnx800/target/qnx/x86_64/lib\libc.a(strcasecmp.o)
 .debug_info    0x0000000000001814       0x5b C:/Users/Dell/qnx800/target/qnx/x86_64/lib\libc.a(strchr.o)
 .debug_info    0x000000000000186f       0x5b C:/Users/Dell/qnx800/target/qnx/x86_64/lib\libc.a(strcmp.o)
 .debug_info    0x00000000000018ca      0x14a C:/Users/Dell/qnx800/target/qnx/x86_64/lib\libc.a(strlcpy.o)
 .debug_info    0x0000000000001a14       0x5b C:/Users/Dell/qnx800/target/qnx/x86_64/lib\libc.a(strlen.o)
 .debug_info    0x0000000000001a6f      0x49c C:/Users/Dell/qnx800/target/qnx/x86_64/lib\libc.a(strstr.o)
 .debug_info    0x0000000000001f0b      0x147 C:/Users/Dell/qnx800/target/qnx/x86_64/lib\libc.a(__progname.o)
 .debug_info    0x0000000000002052      0x1e0 C:/Users/Dell/qnx800/target/qnx/x86_64/lib\libc.a(_ssp.o)
 .debug_info    0x0000000000002232       0x8b C:/Users/Dell/qnx800/target/qnx/x86_64/lib\libc.a(__stack_chk_guard.o)
 .debug_info    0x00000000000022bd      0x121 C:/Users/Dell/qnx800/target/qnx/x86_64/lib\libc.a(xtolotab.o)
 .debug_info    0x00000000000023de      0x135 C:/Users/Dell/qnx800/target/qnx/x86_64/lib\libc.a(strncasecmp.o)
 .debug_info    0x0000000000002513      0x113 C:/Users/Dell/qnx800/target/qnx/x86_64/lib\libc.a(strncmp.o)
 .debug_info    0x0000000000002626       0xf7 C:/Users/Dell/qnx800/target/qnx/x86_64/lib\libc.a(strrchr.o)

.debug_abbrev   0x0000000000000000      0xded
 *(.debug_abbrev)
 .debug_abbrev  0x0000000000000000       0x21 C:/Users/Dell/ide-8.0-workspace/hw.x86_64/src/hardware/startup/boards/../../../../install/x86_64/usr/lib\libstartup.a(callout_debug_8250.o)
 .debug_abbrev  0x0000000000000021       0x21 C:/Users/Dell/ide-8.0-workspace/hw.x86_64/src/hardware/startup/boards/../../../../install/x86_64/usr/lib\libstartup.a(callout_debug_con.o)
 .debug_abbrev  0x0000000000000042       0x21 C:/Users/Dell/ide-8.0-workspace/hw.x86_64/src/hardware/startup/boards/../../../../install/x86_64/usr/lib\libstartup.a(callout_debug_dummy.o)
 .debug_abbrev  0x0000000000000063       0x14 C:/Users/Dell/ide-8.0-workspace/hw.x86_64/src/hardware/startup/boards/../../../../install/x86_64/usr/lib\libstartup.a(cstart64.o)
 .debug_abbrev  0x0000000000000077       0x21 C:/Users/Dell/ide-8.0-workspace/hw.x86_64/src/hardware/startup/boards/../../../../install/x86_64/usr/lib\libstartup.a(early_setup.o)
 .debug_abbrev  0x0000000000000098       0x21 C:/Users/Dell/ide-8.0-workspace/hw.x86_64/src/hardware/startup/boards/../../../../install/x86_64/usr/lib\libstartup.a(entry_32prot.o)
 .debug_abbrev  0x00000000000000b9       0x14 C:/Users/Dell/ide-8.0-workspace/hw.x86_64/src/hardware/startup/boards/../../../../install/x86_64/usr/lib\libstartup.a(hw_cputype.o)
 .debug_abbrev  0x00000000000000cd       0x14 C:/Users/Dell/ide-8.0-workspace/hw.x86_64/src/hardware/startup/boards/../../../../install/x86_64/usr/lib\libstartup.a(64apstart.o)
 .debug_abbrev  0x00000000000000e1       0x21 C:/Users/Dell/ide-8.0-workspace/hw.x86_64/src/hardware/startup/boards/../../../../install/x86_64/usr/lib\libstartup.a(callout_apstart.o)
 .debug_abbrev  0x0000000000000102       0x21 C:/Users/Dell/ide-8.0-workspace/hw.x86_64/src/hardware/startup/boards/../../../../install/x86_64/usr/lib\libstartup.a(callout_interrupt_apic.o)
 .debug_abbrev  0x0000000000000123       0x21 C:/Users/Dell/ide-8.0-workspace/hw.x86_64/src/hardware/startup/boards/../../../../install/x86_64/usr/lib\libstartup.a(callout_interrupt_ioapic.o)
 .debug_abbrev  0x0000000000000144       0x21 C:/Users/Dell/ide-8.0-workspace/hw.x86_64/src/hardware/startup/boards/../../../../install/x86_64/usr/lib\libstartup.a(callout_reboot.o)
 .debug_abbrev  0x0000000000000165       0x21 C:/Users/Dell/ide-8.0-workspace/hw.x86_64/src/hardware/startup/boards/../../../../install/x86_64/usr/lib\libstartup.a(cpu_id.o)
 .debug_abbrev  0x0000000000000186       0x21 C:/Users/Dell/ide-8.0-workspace/hw.x86_64/src/hardware/startup/boards/../../../../install/x86_64/usr/lib\libstartup.a(16apstart.o)
 .debug_abbrev  0x00000000000001a7       0xfa C:/Users/Dell/qnx800/target/qnx/x86_64/usr/lib\libucl.a(n2b_d.o)
 .debug_abbrev  0x00000000000002a1      0x2a8 C:/Users/Dell/qnx800/target/qnx/x86_64/lib\libc.a(hwi_find_item.o)
 .debug_abbrev  0x0000000000000549       0x8d C:/Users/Dell/qnx800/target/qnx/x86_64/lib\libc.a(hwi_off2tag.o)
 .debug_abbrev  0x00000000000005d6       0x8d C:/Users/Dell/qnx800/target/qnx/x86_64/lib\libc.a(hwi_tag2off.o)
 .debug_abbrev  0x0000000000000663       0x21 C:/Users/Dell/qnx800/target/qnx/x86_64/lib\libc.a(memcmp.o)
 .debug_abbrev  0x0000000000000684       0x21 C:/Users/Dell/qnx800/target/qnx/x86_64/lib\libc.a(memset.o)
 .debug_abbrev  0x00000000000006a5       0x83 C:/Users/Dell/qnx800/target/qnx/x86_64/lib\libc.a(strcasecmp.o)
 .debug_abbrev  0x0000000000000728       0x21 C:/Users/Dell/qnx800/target/qnx/x86_64/lib\libc.a(strchr.o)
 .debug_abbrev  0x0000000000000749       0x21 C:/Users/Dell/qnx800/target/qnx/x86_64/lib\libc.a(strcmp.o)
 .debug_abbrev  0x000000000000076a       0xa3 C:/Users/Dell/qnx800/target/qnx/x86_64/lib\libc.a(strlcpy.o)
 .debug_abbrev  0x000000000000080d       0x21 C:/Users/Dell/qnx800/target/qnx/x86_64/lib\libc.a(strlen.o)
 .debug_abbrev  0x000000000000082e      0x1a1 C:/Users/Dell/qnx800/target/qnx/x86_64/lib\libc.a(strstr.o)
 .debug_abbrev  0x00000000000009cf       0xdc C:/Users/Dell/qnx800/target/qnx/x86_64/lib\libc.a(__progname.o)
 .debug_abbrev  0x0000000000000aab       0x9c C:/Users/Dell/qnx800/target/qnx/x86_64/lib\libc.a(_ssp.o)
 .debug_abbrev  0x0000000000000b47       0x40 C:/Users/Dell/qnx800/target/qnx/x86_64/lib\libc.a(__stack_chk_guard.o)
 .debug_abbrev  0x0000000000000b87       0xc6 C:/Users/Dell/qnx800/target/qnx/x86_64/lib\libc.a(xtolotab.o)
 .debug_abbrev  0x0000000000000c4d       0x92 C:/Users/Dell/qnx800/target/qnx/x86_64/lib\libc.a(strncasecmp.o)
 .debug_abbrev  0x0000000000000cdf       0x7c C:/Users/Dell/qnx800/target/qnx/x86_64/lib\libc.a(strncmp.o)
 .debug_abbrev  0x0000000000000d5b       0x92 C:/Users/Dell/qnx800/target/qnx/x86_64/lib\libc.a(strrchr.o)

.debug_line     0x0000000000000000     0x2329
 *(.debug_line)
 .debug_line    0x0000000000000000       0xbf C:/Users/Dell/ide-8.0-workspace/hw.x86_64/src/hardware/startup/boards/../../../../install/x86_64/usr/lib\libstartup.a(callout_debug_8250.o)
 .debug_line    0x00000000000000bf      0x107 C:/Users/Dell/ide-8.0-workspace/hw.x86_64/src/hardware/startup/boards/../../../../install/x86_64/usr/lib\libstartup.a(callout_debug_con.o)
 .debug_line    0x00000000000001c6       0x95 C:/Users/Dell/ide-8.0-workspace/hw.x86_64/src/hardware/startup/boards/../../../../install/x86_64/usr/lib\libstartup.a(callout_debug_dummy.o)
 .debug_line    0x000000000000025b       0xa6 C:/Users/Dell/ide-8.0-workspace/hw.x86_64/src/hardware/startup/boards/../../../../install/x86_64/usr/lib\libstartup.a(cstart64.o)
 .debug_line    0x0000000000000301       0x8f C:/Users/Dell/ide-8.0-workspace/hw.x86_64/src/hardware/startup/boards/../../../../install/x86_64/usr/lib\libstartup.a(early_setup.o)
 .debug_line    0x0000000000000390       0xd6 C:/Users/Dell/ide-8.0-workspace/hw.x86_64/src/hardware/startup/boards/../../../../install/x86_64/usr/lib\libstartup.a(entry_32prot.o)
 .debug_line    0x0000000000000466       0x9b C:/Users/Dell/ide-8.0-workspace/hw.x86_64/src/hardware/startup/boards/../../../../install/x86_64/usr/lib\libstartup.a(hw_cputype.o)
 .debug_line    0x0000000000000501       0x98 C:/Users/Dell/ide-8.0-workspace/hw.x86_64/src/hardware/startup/boards/../../../../install/x86_64/usr/lib\libstartup.a(64apstart.o)
 .debug_line    0x0000000000000599       0x95 C:/Users/Dell/ide-8.0-workspace/hw.x86_64/src/hardware/startup/boards/../../../../install/x86_64/usr/lib\libstartup.a(callout_apstart.o)
 .debug_line    0x000000000000062e       0xf8 C:/Users/Dell/ide-8.0-workspace/hw.x86_64/src/hardware/startup/boards/../../../../install/x86_64/usr/lib\libstartup.a(callout_interrupt_apic.o)
 .debug_line    0x0000000000000726       0xc4 C:/Users/Dell/ide-8.0-workspace/hw.x86_64/src/hardware/startup/boards/../../../../install/x86_64/usr/lib\libstartup.a(callout_interrupt_ioapic.o)
 .debug_line    0x00000000000007ea       0xa5 C:/Users/Dell/ide-8.0-workspace/hw.x86_64/src/hardware/startup/boards/../../../../install/x86_64/usr/lib\libstartup.a(callout_reboot.o)
 .debug_line    0x000000000000088f       0x9b C:/Users/Dell/ide-8.0-workspace/hw.x86_64/src/hardware/startup/boards/../../../../install/x86_64/usr/lib\libstartup.a(cpu_id.o)
 .debug_line    0x000000000000092a       0xb2 C:/Users/Dell/ide-8.0-workspace/hw.x86_64/src/hardware/startup/boards/../../../../install/x86_64/usr/lib\libstartup.a(16apstart.o)
 .debug_line    0x00000000000009dc      0x9f1 C:/Users/Dell/qnx800/target/qnx/x86_64/usr/lib\libucl.a(n2b_d.o)
 .debug_line    0x00000000000013cd      0x1eb C:/Users/Dell/qnx800/target/qnx/x86_64/lib\libc.a(hwi_find_item.o)
 .debug_line    0x00000000000015b8       0x7b C:/Users/Dell/qnx800/target/qnx/x86_64/lib\libc.a(hwi_off2tag.o)
 .debug_line    0x0000000000001633       0x82 C:/Users/Dell/qnx800/target/qnx/x86_64/lib\libc.a(hwi_tag2off.o)
 .debug_line    0x00000000000016b5      0x108 C:/Users/Dell/qnx800/target/qnx/x86_64/lib\libc.a(memcmp.o)
 .debug_line    0x00000000000017bd       0xd9 C:/Users/Dell/qnx800/target/qnx/x86_64/lib\libc.a(memset.o)
 .debug_line    0x0000000000001896       0xec C:/Users/Dell/qnx800/target/qnx/x86_64/lib\libc.a(strcasecmp.o)
 .debug_line    0x0000000000001982      0x132 C:/Users/Dell/qnx800/target/qnx/x86_64/lib\libc.a(strchr.o)
 .debug_line    0x0000000000001ab4       0xf8 C:/Users/Dell/qnx800/target/qnx/x86_64/lib\libc.a(strcmp.o)
 .debug_line    0x0000000000001bac       0xc3 C:/Users/Dell/qnx800/target/qnx/x86_64/lib\libc.a(strlcpy.o)
 .debug_line    0x0000000000001c6f      0x13f C:/Users/Dell/qnx800/target/qnx/x86_64/lib\libc.a(strlen.o)
 .debug_line    0x0000000000001dae      0x15c C:/Users/Dell/qnx800/target/qnx/x86_64/lib\libc.a(strstr.o)
 .debug_line    0x0000000000001f0a       0x7f C:/Users/Dell/qnx800/target/qnx/x86_64/lib\libc.a(__progname.o)
 .debug_line    0x0000000000001f89       0xe0 C:/Users/Dell/qnx800/target/qnx/x86_64/lib\libc.a(_ssp.o)
 .debug_line    0x0000000000002069       0x3a C:/Users/Dell/qnx800/target/qnx/x86_64/lib\libc.a(__stack_chk_guard.o)
 .debug_line    0x00000000000020a3       0x74 C:/Users/Dell/qnx800/target/qnx/x86_64/lib\libc.a(xtolotab.o)
 .debug_line    0x0000000000002117      0x115 C:/Users/Dell/qnx800/target/qnx/x86_64/lib\libc.a(strncasecmp.o)
 .debug_line    0x000000000000222c       0x8d C:/Users/Dell/qnx800/target/qnx/x86_64/lib\libc.a(strncmp.o)
 .debug_line    0x00000000000022b9       0x70 C:/Users/Dell/qnx800/target/qnx/x86_64/lib\libc.a(strrchr.o)

.debug_frame
 *(.debug_frame)

.debug_str      0x0000000000000000     0x4278
 *(.debug_str)
 .debug_str     0x0000000000000000       0xdf C:/Users/Dell/ide-8.0-workspace/hw.x86_64/src/hardware/startup/boards/../../../../install/x86_64/usr/lib\libstartup.a(callout_debug_8250.o)
 .debug_str     0x00000000000000df       0xdf C:/Users/Dell/ide-8.0-workspace/hw.x86_64/src/hardware/startup/boards/../../../../install/x86_64/usr/lib\libstartup.a(callout_debug_con.o)
 .debug_str     0x00000000000001be       0xe3 C:/Users/Dell/ide-8.0-workspace/hw.x86_64/src/hardware/startup/boards/../../../../install/x86_64/usr/lib\libstartup.a(callout_debug_dummy.o)
 .debug_str     0x00000000000002a1       0xa3 C:/Users/Dell/ide-8.0-workspace/hw.x86_64/src/hardware/startup/boards/../../../../install/x86_64/usr/lib\libstartup.a(cstart64.o)
 .debug_str     0x0000000000000344       0xb6 C:/Users/Dell/ide-8.0-workspace/hw.x86_64/src/hardware/startup/boards/../../../../install/x86_64/usr/lib\libstartup.a(early_setup.o)
 .debug_str     0x00000000000003fa       0xc7 C:/Users/Dell/ide-8.0-workspace/hw.x86_64/src/hardware/startup/boards/../../../../install/x86_64/usr/lib\libstartup.a(entry_32prot.o)
 .debug_str     0x00000000000004c1       0xa5 C:/Users/Dell/ide-8.0-workspace/hw.x86_64/src/hardware/startup/boards/../../../../install/x86_64/usr/lib\libstartup.a(hw_cputype.o)
 .debug_str     0x0000000000000566       0xa4 C:/Users/Dell/ide-8.0-workspace/hw.x86_64/src/hardware/startup/boards/../../../../install/x86_64/usr/lib\libstartup.a(64apstart.o)
 .debug_str     0x000000000000060a       0xb3 C:/Users/Dell/ide-8.0-workspace/hw.x86_64/src/hardware/startup/boards/../../../../install/x86_64/usr/lib\libstartup.a(callout_apstart.o)
 .debug_str     0x00000000000006bd      0x1c7 C:/Users/Dell/ide-8.0-workspace/hw.x86_64/src/hardware/startup/boards/../../../../install/x86_64/usr/lib\libstartup.a(callout_interrupt_apic.o)
 .debug_str     0x0000000000000884      0x122 C:/Users/Dell/ide-8.0-workspace/hw.x86_64/src/hardware/startup/boards/../../../../install/x86_64/usr/lib\libstartup.a(callout_interrupt_ioapic.o)
 .debug_str     0x00000000000009a6       0xb0 C:/Users/Dell/ide-8.0-workspace/hw.x86_64/src/hardware/startup/boards/../../../../install/x86_64/usr/lib\libstartup.a(callout_reboot.o)
 .debug_str     0x0000000000000a56       0xca C:/Users/Dell/ide-8.0-workspace/hw.x86_64/src/hardware/startup/boards/../../../../install/x86_64/usr/lib\libstartup.a(cpu_id.o)
 .debug_str     0x0000000000000b20       0xb1 C:/Users/Dell/ide-8.0-workspace/hw.x86_64/src/hardware/startup/boards/../../../../install/x86_64/usr/lib\libstartup.a(16apstart.o)
 .debug_str     0x0000000000000bd1      0x37e C:/Users/Dell/qnx800/target/qnx/x86_64/usr/lib\libucl.a(n2b_d.o)
 .debug_str     0x0000000000000f4f      0x84a C:/Users/Dell/qnx800/target/qnx/x86_64/lib\libc.a(hwi_find_item.o)
 .debug_str     0x0000000000001799      0x352 C:/Users/Dell/qnx800/target/qnx/x86_64/lib\libc.a(hwi_off2tag.o)
 .debug_str     0x0000000000001aeb      0x360 C:/Users/Dell/qnx800/target/qnx/x86_64/lib\libc.a(hwi_tag2off.o)
 .debug_str     0x0000000000001e4b       0xa5 C:/Users/Dell/qnx800/target/qnx/x86_64/lib\libc.a(memcmp.o)
 .debug_str     0x0000000000001ef0       0xa5 C:/Users/Dell/qnx800/target/qnx/x86_64/lib\libc.a(memset.o)
 .debug_str     0x0000000000001f95      0x327 C:/Users/Dell/qnx800/target/qnx/x86_64/lib\libc.a(strcasecmp.o)
 .debug_str     0x00000000000022bc       0xa5 C:/Users/Dell/qnx800/target/qnx/x86_64/lib\libc.a(strchr.o)
 .debug_str     0x0000000000002361       0xa5 C:/Users/Dell/qnx800/target/qnx/x86_64/lib\libc.a(strcmp.o)
 .debug_str     0x0000000000002406      0x350 C:/Users/Dell/qnx800/target/qnx/x86_64/lib\libc.a(strlcpy.o)
 .debug_str     0x0000000000002756       0xa5 C:/Users/Dell/qnx800/target/qnx/x86_64/lib\libc.a(strlen.o)
 .debug_str     0x00000000000027fb      0x3aa C:/Users/Dell/qnx800/target/qnx/x86_64/lib\libc.a(strstr.o)
 .debug_str     0x0000000000002ba5      0x34c C:/Users/Dell/qnx800/target/qnx/x86_64/lib\libc.a(__progname.o)
 .debug_str     0x0000000000002ef1      0x338 C:/Users/Dell/qnx800/target/qnx/x86_64/lib\libc.a(_ssp.o)
 .debug_str     0x0000000000003229      0x32e C:/Users/Dell/qnx800/target/qnx/x86_64/lib\libc.a(__stack_chk_guard.o)
 .debug_str     0x0000000000003557      0x359 C:/Users/Dell/qnx800/target/qnx/x86_64/lib\libc.a(xtolotab.o)
 .debug_str     0x00000000000038b0      0x354 C:/Users/Dell/qnx800/target/qnx/x86_64/lib\libc.a(strncasecmp.o)
 .debug_str     0x0000000000003c04      0x350 C:/Users/Dell/qnx800/target/qnx/x86_64/lib\libc.a(strncmp.o)
 .debug_str     0x0000000000003f54      0x324 C:/Users/Dell/qnx800/target/qnx/x86_64/lib\libc.a(strrchr.o)

.debug_loc
 *(.debug_loc)

.debug_macinfo
 *(.debug_macinfo)

.debug_weaknames
 *(.debug_weaknames)

.debug_funcnames
 *(.debug_funcnames)

.debug_typenames
 *(.debug_typenames)

.debug_varnames
 *(.debug_varnames)

.debug_pubtypes
 *(.debug_pubtypes)

.debug_ranges
 *(.debug_ranges)

.debug_addr
 *(.debug_addr)

.debug_line_str
                0x0000000000000000     0x1466
 *(.debug_line_str)
 .debug_line_str
                0x0000000000000000      0x13c C:/Users/Dell/qnx800/target/qnx/x86_64/usr/lib\libucl.a(n2b_d.o)
 .debug_line_str
                0x000000000000013c      0x215 C:/Users/Dell/qnx800/target/qnx/x86_64/lib\libc.a(hwi_find_item.o)
 .debug_line_str
                0x0000000000000351      0x1e9 C:/Users/Dell/qnx800/target/qnx/x86_64/lib\libc.a(hwi_off2tag.o)
 .debug_line_str
                0x000000000000053a      0x1e9 C:/Users/Dell/qnx800/target/qnx/x86_64/lib\libc.a(hwi_tag2off.o)
 .debug_line_str
                0x0000000000000723      0x111 C:/Users/Dell/qnx800/target/qnx/x86_64/lib\libc.a(strcasecmp.o)
 .debug_line_str
                0x0000000000000834      0x159 C:/Users/Dell/qnx800/target/qnx/x86_64/lib\libc.a(strlcpy.o)
 .debug_line_str
                0x000000000000098d      0x19f C:/Users/Dell/qnx800/target/qnx/x86_64/lib\libc.a(strstr.o)
 .debug_line_str
                0x0000000000000b2c      0x154 C:/Users/Dell/qnx800/target/qnx/x86_64/lib\libc.a(__progname.o)
 .debug_line_str
                0x0000000000000c80      0x147 C:/Users/Dell/qnx800/target/qnx/x86_64/lib\libc.a(_ssp.o)
 .debug_line_str
                0x0000000000000dc7      0x12a C:/Users/Dell/qnx800/target/qnx/x86_64/lib\libc.a(__stack_chk_guard.o)
 .debug_line_str
                0x0000000000000ef1      0x141 C:/Users/Dell/qnx800/target/qnx/x86_64/lib\libc.a(xtolotab.o)
 .debug_line_str
                0x0000000000001032      0x19c C:/Users/Dell/qnx800/target/qnx/x86_64/lib\libc.a(strncasecmp.o)
 .debug_line_str
                0x00000000000011ce      0x190 C:/Users/Dell/qnx800/target/qnx/x86_64/lib\libc.a(strncmp.o)
 .debug_line_str
                0x000000000000135e      0x108 C:/Users/Dell/qnx800/target/qnx/x86_64/lib\libc.a(strrchr.o)

.debug_loclists
                0x0000000000000000      0xff8
 *(.debug_loclists)
 .debug_loclists
                0x0000000000000000      0x957 C:/Users/Dell/qnx800/target/qnx/x86_64/usr/lib\libucl.a(n2b_d.o)
 .debug_loclists
                0x0000000000000957      0x19e C:/Users/Dell/qnx800/target/qnx/x86_64/lib\libc.a(hwi_find_item.o)
 .debug_loclists
                0x0000000000000af5       0x25 C:/Users/Dell/qnx800/target/qnx/x86_64/lib\libc.a(hwi_off2tag.o)
 .debug_loclists
                0x0000000000000b1a       0x25 C:/Users/Dell/qnx800/target/qnx/x86_64/lib\libc.a(hwi_tag2off.o)
 .debug_loclists
                0x0000000000000b3f       0x98 C:/Users/Dell/qnx800/target/qnx/x86_64/lib\libc.a(strcasecmp.o)
 .debug_loclists
                0x0000000000000bd7       0x66 C:/Users/Dell/qnx800/target/qnx/x86_64/lib\libc.a(strlcpy.o)
 .debug_loclists
                0x0000000000000c3d      0x1b1 C:/Users/Dell/qnx800/target/qnx/x86_64/lib\libc.a(strstr.o)
 .debug_loclists
                0x0000000000000dee       0x2d C:/Users/Dell/qnx800/target/qnx/x86_64/lib\libc.a(__progname.o)
 .debug_loclists
                0x0000000000000e1b       0xfd C:/Users/Dell/qnx800/target/qnx/x86_64/lib\libc.a(strncasecmp.o)
 .debug_loclists
                0x0000000000000f18       0xad C:/Users/Dell/qnx800/target/qnx/x86_64/lib\libc.a(strncmp.o)
 .debug_loclists
                0x0000000000000fc5       0x33 C:/Users/Dell/qnx800/target/qnx/x86_64/lib\libc.a(strrchr.o)

.debug_macro
 *(.debug_macro)

.debug_names
 *(.debug_names)

.debug_rnglists
                0x0000000000000000      0x10a
 *(.debug_rnglists)
 .debug_rnglists
                0x0000000000000000       0x8f C:/Users/Dell/qnx800/target/qnx/x86_64/usr/lib\libucl.a(n2b_d.o)
 .debug_rnglists
                0x000000000000008f       0x38 C:/Users/Dell/qnx800/target/qnx/x86_64/lib\libc.a(hwi_find_item.o)
 .debug_rnglists
                0x00000000000000c7       0x43 C:/Users/Dell/qnx800/target/qnx/x86_64/lib\libc.a(strstr.o)

.debug_str_offsets
 *(.debug_str_offsets)

.debug_sup
 *(.debug_sup)

.gnu.attributes
 *(.gnu.attributes)
OUTPUT(C:/Users/Dell/ide-8.0-workspace/hw.x86_64/src/hardware/startup/boards/x86/x86_64/o/startup-x86 elf64-x86-64)
