Archive member included to satisfy reference by file (symbol)

C:/Users/Dell/ide-8.0-workspace/hw.raspberrypi-bcm2712-rpi5_2/src/hardware/startup/boards/../../../../install/aarch64le/usr/lib\libstartup.a(_main.o)
                              main.o (shdr)
C:/Users/Dell/ide-8.0-workspace/hw.raspberrypi-bcm2712-rpi5_2/src/hardware/startup/boards/../../../../install/aarch64le/usr/lib\libstartup.a(_start.o)
                              (_start)
C:/Users/Dell/ide-8.0-workspace/hw.raspberrypi-bcm2712-rpi5_2/src/hardware/startup/boards/../../../../install/aarch64le/usr/lib\libstartup.a(as_add_containing.o)
                              bcm2712_init_raminfo.o (as_add_containing)
C:/Users/Dell/ide-8.0-workspace/hw.raspberrypi-bcm2712-rpi5_2/src/hardware/startup/boards/../../../../install/aarch64le/usr/lib\libstartup.a(as_find_containing.o)
                              C:/Users/Dell/ide-8.0-workspace/hw.raspberrypi-bcm2712-rpi5_2/src/hardware/startup/boards/../../../../install/aarch64le/usr/lib\libstartup.a(as_add_containing.o) (as_find_containing)
C:/Users/Dell/ide-8.0-workspace/hw.raspberrypi-bcm2712-rpi5_2/src/hardware/startup/boards/../../../../install/aarch64le/usr/lib\libstartup.a(as_off2info.o)
                              C:/Users/Dell/ide-8.0-workspace/hw.raspberrypi-bcm2712-rpi5_2/src/hardware/startup/boards/../../../../install/aarch64le/usr/lib\libstartup.a(as_add_containing.o) (as_off2info)
C:/Users/Dell/ide-8.0-workspace/hw.raspberrypi-bcm2712-rpi5_2/src/hardware/startup/boards/../../../../install/aarch64le/usr/lib\libstartup.a(board_init.o)
                              C:/Users/Dell/ide-8.0-workspace/hw.raspberrypi-bcm2712-rpi5_2/src/hardware/startup/boards/../../../../install/aarch64le/usr/lib\libstartup.a(_main.o) (board_init)
C:/Users/Dell/ide-8.0-workspace/hw.raspberrypi-bcm2712-rpi5_2/src/hardware/startup/boards/../../../../install/aarch64le/usr/lib\libstartup.a(bootstrap_cmdline.o)
                              main.o (bootstrap_arg_adjust)
C:/Users/Dell/ide-8.0-workspace/hw.raspberrypi-bcm2712-rpi5_2/src/hardware/startup/boards/../../../../install/aarch64le/usr/lib\libstartup.a(callout_debug_pl011.o)
                              main.o (display_char_pl011)
C:/Users/Dell/ide-8.0-workspace/hw.raspberrypi-bcm2712-rpi5_2/src/hardware/startup/boards/../../../../install/aarch64le/usr/lib\libstartup.a(callout_sendipi_gic_v2.o)
                              board_smp.o (sendipi_gic_v2)
C:/Users/Dell/ide-8.0-workspace/hw.raspberrypi-bcm2712-rpi5_2/src/hardware/startup/boards/../../../../install/aarch64le/usr/lib\libstartup.a(callouts.o)
                              main.o (add_callout_array)
C:/Users/Dell/ide-8.0-workspace/hw.raspberrypi-bcm2712-rpi5_2/src/hardware/startup/boards/../../../../install/aarch64le/usr/lib\libstartup.a(common_options.o)
                              main.o (handle_common_option)
C:/Users/Dell/ide-8.0-workspace/hw.raspberrypi-bcm2712-rpi5_2/src/hardware/startup/boards/../../../../install/aarch64le/usr/lib\libstartup.a(cpu_cluster_add.o)
                              C:/Users/Dell/ide-8.0-workspace/hw.raspberrypi-bcm2712-rpi5_2/src/hardware/startup/boards/../../../../install/aarch64le/usr/lib\libstartup.a(common_options.o) (cpu_cluster_add)
C:/Users/Dell/ide-8.0-workspace/hw.raspberrypi-bcm2712-rpi5_2/src/hardware/startup/boards/../../../../install/aarch64le/usr/lib\libstartup.a(cpu_common_options.o)
                              C:/Users/Dell/ide-8.0-workspace/hw.raspberrypi-bcm2712-rpi5_2/src/hardware/startup/boards/../../../../install/aarch64le/usr/lib\libstartup.a(common_options.o) (cpu_handle_common_option)
C:/Users/Dell/ide-8.0-workspace/hw.raspberrypi-bcm2712-rpi5_2/src/hardware/startup/boards/../../../../install/aarch64le/usr/lib\libstartup.a(cpu_startup.o)
                              C:/Users/Dell/ide-8.0-workspace/hw.raspberrypi-bcm2712-rpi5_2/src/hardware/startup/boards/../../../../install/aarch64le/usr/lib\libstartup.a(_main.o) (cpu_startup)
C:/Users/Dell/ide-8.0-workspace/hw.raspberrypi-bcm2712-rpi5_2/src/hardware/startup/boards/../../../../install/aarch64le/usr/lib\libstartup.a(cstart.o)
                              C:/Users/Dell/ide-8.0-workspace/hw.raspberrypi-bcm2712-rpi5_2/src/hardware/startup/boards/../../../../install/aarch64le/usr/lib\libstartup.a(_main.o) (stack_addr_lo)
C:/Users/Dell/ide-8.0-workspace/hw.raspberrypi-bcm2712-rpi5_2/src/hardware/startup/boards/../../../../install/aarch64le/usr/lib\libstartup.a(debug.o)
                              main.o (print_syspage)
C:/Users/Dell/ide-8.0-workspace/hw.raspberrypi-bcm2712-rpi5_2/src/hardware/startup/boards/../../../../install/aarch64le/usr/lib\libstartup.a(fdt_init_bootopt.o)
                              C:/Users/Dell/ide-8.0-workspace/hw.raspberrypi-bcm2712-rpi5_2/src/hardware/startup/boards/../../../../install/aarch64le/usr/lib\libstartup.a(cpu_common_options.o) (fdt_init_bootopt)
C:/Users/Dell/ide-8.0-workspace/hw.raspberrypi-bcm2712-rpi5_2/src/hardware/startup/boards/../../../../install/aarch64le/usr/lib\libstartup.a(fdt_psci_configure.o)
                              main.o (fdt_psci_configure)
C:/Users/Dell/ide-8.0-workspace/hw.raspberrypi-bcm2712-rpi5_2/src/hardware/startup/boards/../../../../install/aarch64le/usr/lib\libstartup.a(fdt_vars.o)
                              C:/Users/Dell/ide-8.0-workspace/hw.raspberrypi-bcm2712-rpi5_2/src/hardware/startup/boards/../../../../install/aarch64le/usr/lib\libstartup.a(cpu_common_options.o) (fdt_boot_option)
C:/Users/Dell/ide-8.0-workspace/hw.raspberrypi-bcm2712-rpi5_2/src/hardware/startup/boards/../../../../install/aarch64le/usr/lib\libstartup.a(getopt.o)
                              main.o (getopt)
C:/Users/Dell/ide-8.0-workspace/hw.raspberrypi-bcm2712-rpi5_2/src/hardware/startup/boards/../../../../install/aarch64le/usr/lib\libstartup.a(getsize.o)
                              C:/Users/Dell/ide-8.0-workspace/hw.raspberrypi-bcm2712-rpi5_2/src/hardware/startup/boards/../../../../install/aarch64le/usr/lib\libstartup.a(common_options.o) (getsize)
C:/Users/Dell/ide-8.0-workspace/hw.raspberrypi-bcm2712-rpi5_2/src/hardware/startup/boards/../../../../install/aarch64le/usr/lib\libstartup.a(gic.o)
                              C:/Users/Dell/ide-8.0-workspace/hw.raspberrypi-bcm2712-rpi5_2/src/hardware/startup/boards/../../../../install/aarch64le/usr/lib\libstartup.a(callout_sendipi_gic_v2.o) (gic_gicd_vaddr)
C:/Users/Dell/ide-8.0-workspace/hw.raspberrypi-bcm2712-rpi5_2/src/hardware/startup/boards/../../../../install/aarch64le/usr/lib\libstartup.a(gic_v2.o)
                              init_intrinfo.o (gic_v2_init)
C:/Users/Dell/ide-8.0-workspace/hw.raspberrypi-bcm2712-rpi5_2/src/hardware/startup/boards/../../../../install/aarch64le/usr/lib\libstartup.a(hw_serpl011.o)
                              main.o (init_pl011)
C:/Users/Dell/ide-8.0-workspace/hw.raspberrypi-bcm2712-rpi5_2/src/hardware/startup/boards/../../../../install/aarch64le/usr/lib\libstartup.a(hwi_add_nanospin.o)
                              C:/Users/Dell/ide-8.0-workspace/hw.raspberrypi-bcm2712-rpi5_2/src/hardware/startup/boards/../../../../install/aarch64le/usr/lib\libstartup.a(common_options.o) (hwi_add_nanospin)
C:/Users/Dell/ide-8.0-workspace/hw.raspberrypi-bcm2712-rpi5_2/src/hardware/startup/boards/../../../../install/aarch64le/usr/lib\libstartup.a(hwi_alloc.o)
                              C:/Users/Dell/ide-8.0-workspace/hw.raspberrypi-bcm2712-rpi5_2/src/hardware/startup/boards/../../../../install/aarch64le/usr/lib\libstartup.a(as_find_containing.o) (__hwi_find_string)
C:/Users/Dell/ide-8.0-workspace/hw.raspberrypi-bcm2712-rpi5_2/src/hardware/startup/boards/../../../../install/aarch64le/usr/lib\libstartup.a(hwi_find_as.o)
                              init_hwinfo.o (hwi_find_as)
C:/Users/Dell/ide-8.0-workspace/hw.raspberrypi-bcm2712-rpi5_2/src/hardware/startup/boards/../../../../install/aarch64le/usr/lib\libstartup.a(hwidev_add.o)
                              init_hwinfo.o (hwidev_add)
C:/Users/Dell/ide-8.0-workspace/hw.raspberrypi-bcm2712-rpi5_2/src/hardware/startup/boards/../../../../install/aarch64le/usr/lib\libstartup.a(hwidev_add_enet.o)
                              init_hwinfo.o (hwidev_add_enet)
C:/Users/Dell/ide-8.0-workspace/hw.raspberrypi-bcm2712-rpi5_2/src/hardware/startup/boards/../../../../install/aarch64le/usr/lib\libstartup.a(hwidev_add_timer.o)
                              init_hwinfo.o (hwidev_add_timer)
C:/Users/Dell/ide-8.0-workspace/hw.raspberrypi-bcm2712-rpi5_2/src/hardware/startup/boards/../../../../install/aarch64le/usr/lib\libstartup.a(hwitag_add_common.o)
                              init_hwinfo.o (hwitag_add_common)
C:/Users/Dell/ide-8.0-workspace/hw.raspberrypi-bcm2712-rpi5_2/src/hardware/startup/boards/../../../../install/aarch64le/usr/lib\libstartup.a(hwitag_add_inputclk.o)
                              C:/Users/Dell/ide-8.0-workspace/hw.raspberrypi-bcm2712-rpi5_2/src/hardware/startup/boards/../../../../install/aarch64le/usr/lib\libstartup.a(hwidev_add_enet.o) (hwitag_add_inputclk)
C:/Users/Dell/ide-8.0-workspace/hw.raspberrypi-bcm2712-rpi5_2/src/hardware/startup/boards/../../../../install/aarch64le/usr/lib\libstartup.a(hwitag_add_irq.o)
                              C:/Users/Dell/ide-8.0-workspace/hw.raspberrypi-bcm2712-rpi5_2/src/hardware/startup/boards/../../../../install/aarch64le/usr/lib\libstartup.a(hwitag_add_common.o) (hwitag_add_irq)
C:/Users/Dell/ide-8.0-workspace/hw.raspberrypi-bcm2712-rpi5_2/src/hardware/startup/boards/../../../../install/aarch64le/usr/lib\libstartup.a(hwitag_add_location.o)
                              C:/Users/Dell/ide-8.0-workspace/hw.raspberrypi-bcm2712-rpi5_2/src/hardware/startup/boards/../../../../install/aarch64le/usr/lib\libstartup.a(hwitag_add_common.o) (hwitag_add_location)
C:/Users/Dell/ide-8.0-workspace/hw.raspberrypi-bcm2712-rpi5_2/src/hardware/startup/boards/../../../../install/aarch64le/usr/lib\libstartup.a(hwitag_add_nicaddr.o)
                              init_hwinfo.o (hwitag_add_nicaddr)
C:/Users/Dell/ide-8.0-workspace/hw.raspberrypi-bcm2712-rpi5_2/src/hardware/startup/boards/../../../../install/aarch64le/usr/lib\libstartup.a(hwitag_add_nicphyaddr.o)
                              C:/Users/Dell/ide-8.0-workspace/hw.raspberrypi-bcm2712-rpi5_2/src/hardware/startup/boards/../../../../install/aarch64le/usr/lib\libstartup.a(hwidev_add_enet.o) (hwitag_add_nicphyaddr)
C:/Users/Dell/ide-8.0-workspace/hw.raspberrypi-bcm2712-rpi5_2/src/hardware/startup/boards/../../../../install/aarch64le/usr/lib\libstartup.a(hwitag_add_regname.o)
                              init_hwinfo.o (hwitag_add_regname)
C:/Users/Dell/ide-8.0-workspace/hw.raspberrypi-bcm2712-rpi5_2/src/hardware/startup/boards/../../../../install/aarch64le/usr/lib\libstartup.a(hwitag_set_inputclk.o)
                              init_hwinfo.o (hwitag_set_inputclk)
C:/Users/Dell/ide-8.0-workspace/hw.raspberrypi-bcm2712-rpi5_2/src/hardware/startup/boards/../../../../install/aarch64le/usr/lib\libstartup.a(hwitag_set_ivec.o)
                              init_hwinfo.o (hwitag_set_ivec)
C:/Users/Dell/ide-8.0-workspace/hw.raspberrypi-bcm2712-rpi5_2/src/hardware/startup/boards/../../../../install/aarch64le/usr/lib\libstartup.a(hypervisor_setup.o)
                              C:/Users/Dell/ide-8.0-workspace/hw.raspberrypi-bcm2712-rpi5_2/src/hardware/startup/boards/../../../../install/aarch64le/usr/lib\libstartup.a(cpu_common_options.o) (hypervisor_set_options)
C:/Users/Dell/ide-8.0-workspace/hw.raspberrypi-bcm2712-rpi5_2/src/hardware/startup/boards/../../../../install/aarch64le/usr/lib\libstartup.a(init_cacheattr.o)
                              main.o (init_cacheattr)
C:/Users/Dell/ide-8.0-workspace/hw.raspberrypi-bcm2712-rpi5_2/src/hardware/startup/boards/../../../../install/aarch64le/usr/lib\libstartup.a(init_cpuinfo.o)
                              main.o (init_cpuinfo)
C:/Users/Dell/ide-8.0-workspace/hw.raspberrypi-bcm2712-rpi5_2/src/hardware/startup/boards/../../../../install/aarch64le/usr/lib\libstartup.a(init_mmu.o)
                              main.o (init_mmu)
C:/Users/Dell/ide-8.0-workspace/hw.raspberrypi-bcm2712-rpi5_2/src/hardware/startup/boards/../../../../install/aarch64le/usr/lib\libstartup.a(init_qtime.o)
                              main.o (init_qtime)
C:/Users/Dell/ide-8.0-workspace/hw.raspberrypi-bcm2712-rpi5_2/src/hardware/startup/boards/../../../../install/aarch64le/usr/lib\libstartup.a(init_qtime_v8gt.o)
                              C:/Users/Dell/ide-8.0-workspace/hw.raspberrypi-bcm2712-rpi5_2/src/hardware/startup/boards/../../../../install/aarch64le/usr/lib\libstartup.a(init_qtime.o) (init_qtime_v8gt)
C:/Users/Dell/ide-8.0-workspace/hw.raspberrypi-bcm2712-rpi5_2/src/hardware/startup/boards/../../../../install/aarch64le/usr/lib\libstartup.a(init_smp.o)
                              main.o (init_smp)
C:/Users/Dell/ide-8.0-workspace/hw.raspberrypi-bcm2712-rpi5_2/src/hardware/startup/boards/../../../../install/aarch64le/usr/lib\libstartup.a(init_system_private.o)
                              main.o (init_system_private)
C:/Users/Dell/ide-8.0-workspace/hw.raspberrypi-bcm2712-rpi5_2/src/hardware/startup/boards/../../../../install/aarch64le/usr/lib\libstartup.a(invert_timer_freq.o)
                              C:/Users/Dell/ide-8.0-workspace/hw.raspberrypi-bcm2712-rpi5_2/src/hardware/startup/boards/../../../../install/aarch64le/usr/lib\libstartup.a(init_qtime_v8gt.o) (invert_timer_freq)
C:/Users/Dell/ide-8.0-workspace/hw.raspberrypi-bcm2712-rpi5_2/src/hardware/startup/boards/../../../../install/aarch64le/usr/lib\libstartup.a(jtag.o)
                              C:/Users/Dell/ide-8.0-workspace/hw.raspberrypi-bcm2712-rpi5_2/src/hardware/startup/boards/../../../../install/aarch64le/usr/lib\libstartup.a(init_system_private.o) (jtag_reserve_memory)
C:/Users/Dell/ide-8.0-workspace/hw.raspberrypi-bcm2712-rpi5_2/src/hardware/startup/boards/../../../../install/aarch64le/usr/lib\libstartup.a(kprintf.o)
                              bcm2712_init_raminfo.o (kprintf)
C:/Users/Dell/ide-8.0-workspace/hw.raspberrypi-bcm2712-rpi5_2/src/hardware/startup/boards/../../../../install/aarch64le/usr/lib\libstartup.a(load_ifs.o)
                              C:/Users/Dell/ide-8.0-workspace/hw.raspberrypi-bcm2712-rpi5_2/src/hardware/startup/boards/../../../../install/aarch64le/usr/lib\libstartup.a(init_system_private.o) (load_ifs)
C:/Users/Dell/ide-8.0-workspace/hw.raspberrypi-bcm2712-rpi5_2/src/hardware/startup/boards/../../../../install/aarch64le/usr/lib\libstartup.a(map_callout_io.o)
                              callout_reboot_bcm2712.o (callout_io_map)
C:/Users/Dell/ide-8.0-workspace/hw.raspberrypi-bcm2712-rpi5_2/src/hardware/startup/boards/../../../../install/aarch64le/usr/lib\libstartup.a(map_startup_mem.o)
                              C:/Users/Dell/ide-8.0-workspace/hw.raspberrypi-bcm2712-rpi5_2/src/hardware/startup/boards/../../../../install/aarch64le/usr/lib\libstartup.a(fdt_init_bootopt.o) (startup_memory_map)
C:/Users/Dell/ide-8.0-workspace/hw.raspberrypi-bcm2712-rpi5_2/src/hardware/startup/boards/../../../../install/aarch64le/usr/lib\libstartup.a(memcpy.o)
                              init_board_type.o (memcpy)
C:/Users/Dell/ide-8.0-workspace/hw.raspberrypi-bcm2712-rpi5_2/src/hardware/startup/boards/../../../../install/aarch64le/usr/lib\libstartup.a(memfuncs.o)
                              C:/Users/Dell/ide-8.0-workspace/hw.raspberrypi-bcm2712-rpi5_2/src/hardware/startup/boards/../../../../install/aarch64le/usr/lib\libstartup.a(load_ifs.o) (copy_memory)
C:/Users/Dell/ide-8.0-workspace/hw.raspberrypi-bcm2712-rpi5_2/src/hardware/startup/boards/../../../../install/aarch64le/usr/lib\libstartup.a(memmove.o)
                              C:/Users/Dell/ide-8.0-workspace/hw.raspberrypi-bcm2712-rpi5_2/src/hardware/startup/boards/../../../../install/aarch64le/usr/lib\libstartup.a(bootstrap_cmdline.o) (memmove)
C:/Users/Dell/ide-8.0-workspace/hw.raspberrypi-bcm2712-rpi5_2/src/hardware/startup/boards/../../../../install/aarch64le/usr/lib\libstartup.a(print_sysp.o)
                              C:/Users/Dell/ide-8.0-workspace/hw.raspberrypi-bcm2712-rpi5_2/src/hardware/startup/boards/../../../../install/aarch64le/usr/lib\libstartup.a(debug.o) (print_syspage_enable)
C:/Users/Dell/ide-8.0-workspace/hw.raspberrypi-bcm2712-rpi5_2/src/hardware/startup/boards/../../../../install/aarch64le/usr/lib\libstartup.a(psci_call.o)
                              board_smp.o (psci_call)
C:/Users/Dell/ide-8.0-workspace/hw.raspberrypi-bcm2712-rpi5_2/src/hardware/startup/boards/../../../../install/aarch64le/usr/lib\libstartup.a(psci_smp.o)
                              board_smp.o (psci_smp_start)
C:/Users/Dell/ide-8.0-workspace/hw.raspberrypi-bcm2712-rpi5_2/src/hardware/startup/boards/../../../../install/aarch64le/usr/lib\libstartup.a(ram.o)
                              C:/Users/Dell/ide-8.0-workspace/hw.raspberrypi-bcm2712-rpi5_2/src/hardware/startup/boards/../../../../install/aarch64le/usr/lib\libstartup.a(load_ifs.o) (find_ram)
C:/Users/Dell/ide-8.0-workspace/hw.raspberrypi-bcm2712-rpi5_2/src/hardware/startup/boards/../../../../install/aarch64le/usr/lib\libstartup.a(restore_ifs.o)
                              C:/Users/Dell/ide-8.0-workspace/hw.raspberrypi-bcm2712-rpi5_2/src/hardware/startup/boards/../../../../install/aarch64le/usr/lib\libstartup.a(init_system_private.o) (load_ifs2_nonbootable)
C:/Users/Dell/ide-8.0-workspace/hw.raspberrypi-bcm2712-rpi5_2/src/hardware/startup/boards/../../../../install/aarch64le/usr/lib\libstartup.a(smp_start.o)
                              C:/Users/Dell/ide-8.0-workspace/hw.raspberrypi-bcm2712-rpi5_2/src/hardware/startup/boards/../../../../install/aarch64le/usr/lib\libstartup.a(init_smp.o) (smp_start)
C:/Users/Dell/ide-8.0-workspace/hw.raspberrypi-bcm2712-rpi5_2/src/hardware/startup/boards/../../../../install/aarch64le/usr/lib\libstartup.a(ssp.o)
                              (__ssp_fail)
C:/Users/Dell/ide-8.0-workspace/hw.raspberrypi-bcm2712-rpi5_2/src/hardware/startup/boards/../../../../install/aarch64le/usr/lib\libstartup.a(startnext.o)
                              C:/Users/Dell/ide-8.0-workspace/hw.raspberrypi-bcm2712-rpi5_2/src/hardware/startup/boards/../../../../install/aarch64le/usr/lib\libstartup.a(_main.o) (startnext)
C:/Users/Dell/ide-8.0-workspace/hw.raspberrypi-bcm2712-rpi5_2/src/hardware/startup/boards/../../../../install/aarch64le/usr/lib\libstartup.a(strings.o)
                              C:/Users/Dell/ide-8.0-workspace/hw.raspberrypi-bcm2712-rpi5_2/src/hardware/startup/boards/../../../../install/aarch64le/usr/lib\libstartup.a(init_system_private.o) (find_typed_string)
C:/Users/Dell/ide-8.0-workspace/hw.raspberrypi-bcm2712-rpi5_2/src/hardware/startup/boards/../../../../install/aarch64le/usr/lib\libstartup.a(strtoul.o)
                              C:/Users/Dell/ide-8.0-workspace/hw.raspberrypi-bcm2712-rpi5_2/src/hardware/startup/boards/../../../../install/aarch64le/usr/lib\libstartup.a(getsize.o) (strtopaddr)
C:/Users/Dell/ide-8.0-workspace/hw.raspberrypi-bcm2712-rpi5_2/src/hardware/startup/boards/../../../../install/aarch64le/usr/lib\libstartup.a(syspage_memory.o)
                              C:/Users/Dell/ide-8.0-workspace/hw.raspberrypi-bcm2712-rpi5_2/src/hardware/startup/boards/../../../../install/aarch64le/usr/lib\libstartup.a(cpu_cluster_add.o) (grow_syspage_section)
C:/Users/Dell/ide-8.0-workspace/hw.raspberrypi-bcm2712-rpi5_2/src/hardware/startup/boards/../../../../install/aarch64le/usr/lib\libstartup.a(tweak_cmdline.o)
                              C:/Users/Dell/ide-8.0-workspace/hw.raspberrypi-bcm2712-rpi5_2/src/hardware/startup/boards/../../../../install/aarch64le/usr/lib\libstartup.a(_main.o) (tweak_cmdline)
C:/Users/Dell/ide-8.0-workspace/hw.raspberrypi-bcm2712-rpi5_2/src/hardware/startup/boards/../../../../install/aarch64le/usr/lib\libstartup.a(uncompress.o)
                              C:/Users/Dell/ide-8.0-workspace/hw.raspberrypi-bcm2712-rpi5_2/src/hardware/startup/boards/../../../../install/aarch64le/usr/lib\libstartup.a(load_ifs.o) (uncompress)
C:/Users/Dell/ide-8.0-workspace/hw.raspberrypi-bcm2712-rpi5_2/src/hardware/startup/boards/../../../../install/aarch64le/usr/lib\libstartup.a(uncompress_ucl.o)
                              C:/Users/Dell/ide-8.0-workspace/hw.raspberrypi-bcm2712-rpi5_2/src/hardware/startup/boards/../../../../install/aarch64le/usr/lib\libstartup.a(uncompress.o) (uncompress_ucl)
C:/Users/Dell/ide-8.0-workspace/hw.raspberrypi-bcm2712-rpi5_2/src/hardware/startup/boards/../../../../install/aarch64le/usr/lib\libstartup.a(vbar_default.o)
                              C:/Users/Dell/ide-8.0-workspace/hw.raspberrypi-bcm2712-rpi5_2/src/hardware/startup/boards/../../../../install/aarch64le/usr/lib\libstartup.a(cstart.o) (vbar_default)
C:/Users/Dell/ide-8.0-workspace/hw.raspberrypi-bcm2712-rpi5_2/src/hardware/startup/boards/../../../../install/aarch64le/usr/lib\libstartup.a(_start_el1.o)
                              C:/Users/Dell/ide-8.0-workspace/hw.raspberrypi-bcm2712-rpi5_2/src/hardware/startup/boards/../../../../install/aarch64le/usr/lib\libstartup.a(cstart.o) (_start_el2_or_el1)
C:/Users/Dell/ide-8.0-workspace/hw.raspberrypi-bcm2712-rpi5_2/src/hardware/startup/boards/../../../../install/aarch64le/usr/lib\libstartup.a(aarch64_cache_flush.o)
                              C:/Users/Dell/ide-8.0-workspace/hw.raspberrypi-bcm2712-rpi5_2/src/hardware/startup/boards/../../../../install/aarch64le/usr/lib\libstartup.a(cstart.o) (aarch64_cache_flush)
C:/Users/Dell/ide-8.0-workspace/hw.raspberrypi-bcm2712-rpi5_2/src/hardware/startup/boards/../../../../install/aarch64le/usr/lib\libstartup.a(aarch64_cpuid.o)
                              C:/Users/Dell/ide-8.0-workspace/hw.raspberrypi-bcm2712-rpi5_2/src/hardware/startup/boards/../../../../install/aarch64le/usr/lib\libstartup.a(cpu_startup.o) (aarch64_cpuid)
C:/Users/Dell/ide-8.0-workspace/hw.raspberrypi-bcm2712-rpi5_2/src/hardware/startup/boards/../../../../install/aarch64le/usr/lib\libstartup.a(aarch64_cpuspeed.o)
                              C:/Users/Dell/ide-8.0-workspace/hw.raspberrypi-bcm2712-rpi5_2/src/hardware/startup/boards/../../../../install/aarch64le/usr/lib\libstartup.a(init_cpuinfo.o) (aarch64_cpuspeed)
C:/Users/Dell/ide-8.0-workspace/hw.raspberrypi-bcm2712-rpi5_2/src/hardware/startup/boards/../../../../install/aarch64le/usr/lib\libstartup.a(aarch64_map.o)
                              C:/Users/Dell/ide-8.0-workspace/hw.raspberrypi-bcm2712-rpi5_2/src/hardware/startup/boards/../../../../install/aarch64le/usr/lib\libstartup.a(init_mmu.o) (aarch64_map_init)
C:/Users/Dell/ide-8.0-workspace/hw.raspberrypi-bcm2712-rpi5_2/src/hardware/startup/boards/../../../../install/aarch64le/usr/lib\libstartup.a(add_cache.o)
                              C:/Users/Dell/ide-8.0-workspace/hw.raspberrypi-bcm2712-rpi5_2/src/hardware/startup/boards/../../../../install/aarch64le/usr/lib\libstartup.a(init_cpuinfo.o) (add_cache_ways)
C:/Users/Dell/ide-8.0-workspace/hw.raspberrypi-bcm2712-rpi5_2/src/hardware/startup/boards/../../../../install/aarch64le/usr/lib\libstartup.a(add_interrupt.o)
                              C:/Users/Dell/ide-8.0-workspace/hw.raspberrypi-bcm2712-rpi5_2/src/hardware/startup/boards/../../../../install/aarch64le/usr/lib\libstartup.a(gic_v2.o) (add_interrupt)
C:/Users/Dell/ide-8.0-workspace/hw.raspberrypi-bcm2712-rpi5_2/src/hardware/startup/boards/../../../../install/aarch64le/usr/lib\libstartup.a(alloc_qtime.o)
                              C:/Users/Dell/ide-8.0-workspace/hw.raspberrypi-bcm2712-rpi5_2/src/hardware/startup/boards/../../../../install/aarch64le/usr/lib\libstartup.a(init_qtime_v8gt.o) (alloc_qtime)
C:/Users/Dell/ide-8.0-workspace/hw.raspberrypi-bcm2712-rpi5_2/src/hardware/startup/boards/../../../../install/aarch64le/usr/lib\libstartup.a(ap_fail.o)
                              C:/Users/Dell/ide-8.0-workspace/hw.raspberrypi-bcm2712-rpi5_2/src/hardware/startup/boards/../../../../install/aarch64le/usr/lib\libstartup.a(init_smp.o) (ap_fail)
C:/Users/Dell/ide-8.0-workspace/hw.raspberrypi-bcm2712-rpi5_2/src/hardware/startup/boards/../../../../install/aarch64le/usr/lib\libstartup.a(as_add.o)
                              C:/Users/Dell/ide-8.0-workspace/hw.raspberrypi-bcm2712-rpi5_2/src/hardware/startup/boards/../../../../install/aarch64le/usr/lib\libstartup.a(as_add_containing.o) (as_add)
C:/Users/Dell/ide-8.0-workspace/hw.raspberrypi-bcm2712-rpi5_2/src/hardware/startup/boards/../../../../install/aarch64le/usr/lib\libstartup.a(as_add64.o)
                              C:/Users/Dell/ide-8.0-workspace/hw.raspberrypi-bcm2712-rpi5_2/src/hardware/startup/boards/../../../../install/aarch64le/usr/lib\libstartup.a(gic_v2.o) (as_add64)
C:/Users/Dell/ide-8.0-workspace/hw.raspberrypi-bcm2712-rpi5_2/src/hardware/startup/boards/../../../../install/aarch64le/usr/lib\libstartup.a(as_default.o)
                              C:/Users/Dell/ide-8.0-workspace/hw.raspberrypi-bcm2712-rpi5_2/src/hardware/startup/boards/../../../../install/aarch64le/usr/lib\libstartup.a(ram.o) (as_default)
C:/Users/Dell/ide-8.0-workspace/hw.raspberrypi-bcm2712-rpi5_2/src/hardware/startup/boards/../../../../install/aarch64le/usr/lib\libstartup.a(as_find.o)
                              C:/Users/Dell/ide-8.0-workspace/hw.raspberrypi-bcm2712-rpi5_2/src/hardware/startup/boards/../../../../install/aarch64le/usr/lib\libstartup.a(gic_v2.o) (as_find)
C:/Users/Dell/ide-8.0-workspace/hw.raspberrypi-bcm2712-rpi5_2/src/hardware/startup/boards/../../../../install/aarch64le/usr/lib\libstartup.a(board_sysctl.o)
                              C:/Users/Dell/ide-8.0-workspace/hw.raspberrypi-bcm2712-rpi5_2/src/hardware/startup/boards/../../../../install/aarch64le/usr/lib\libstartup.a(load_ifs.o) (board_enable_caches)
C:/Users/Dell/ide-8.0-workspace/hw.raspberrypi-bcm2712-rpi5_2/src/hardware/startup/boards/../../../../install/aarch64le/usr/lib\libstartup.a(boot_regs.o)
                              C:/Users/Dell/ide-8.0-workspace/hw.raspberrypi-bcm2712-rpi5_2/src/hardware/startup/boards/../../../../install/aarch64le/usr/lib\libstartup.a(cstart.o) (boot_regs)
C:/Users/Dell/ide-8.0-workspace/hw.raspberrypi-bcm2712-rpi5_2/src/hardware/startup/boards/../../../../install/aarch64le/usr/lib\libstartup.a(callout_cache_armv8.o)
                              C:/Users/Dell/ide-8.0-workspace/hw.raspberrypi-bcm2712-rpi5_2/src/hardware/startup/boards/../../../../install/aarch64le/usr/lib\libstartup.a(init_cpuinfo.o) (cache_armv8_icache)
C:/Users/Dell/ide-8.0-workspace/hw.raspberrypi-bcm2712-rpi5_2/src/hardware/startup/boards/../../../../install/aarch64le/usr/lib\libstartup.a(callout_interrupt_gic_v2.o)
                              C:/Users/Dell/ide-8.0-workspace/hw.raspberrypi-bcm2712-rpi5_2/src/hardware/startup/boards/../../../../install/aarch64le/usr/lib\libstartup.a(gic_v2.o) (interrupt_id_gic_v2_ppi)
C:/Users/Dell/ide-8.0-workspace/hw.raspberrypi-bcm2712-rpi5_2/src/hardware/startup/boards/../../../../install/aarch64le/usr/lib\libstartup.a(callout_smp_spin.o)
                              C:/Users/Dell/ide-8.0-workspace/hw.raspberrypi-bcm2712-rpi5_2/src/hardware/startup/boards/../../../../install/aarch64le/usr/lib\libstartup.a(init_smp.o) (smp_spin)
C:/Users/Dell/ide-8.0-workspace/hw.raspberrypi-bcm2712-rpi5_2/src/hardware/startup/boards/../../../../install/aarch64le/usr/lib\libstartup.a(cpu_startnext.o)
                              C:/Users/Dell/ide-8.0-workspace/hw.raspberrypi-bcm2712-rpi5_2/src/hardware/startup/boards/../../../../install/aarch64le/usr/lib\libstartup.a(smp_start.o) (cpu_startnext)
C:/Users/Dell/ide-8.0-workspace/hw.raspberrypi-bcm2712-rpi5_2/src/hardware/startup/boards/../../../../install/aarch64le/usr/lib\libstartup.a(cpu_syspage_memory.o)
                              C:/Users/Dell/ide-8.0-workspace/hw.raspberrypi-bcm2712-rpi5_2/src/hardware/startup/boards/../../../../install/aarch64le/usr/lib\libstartup.a(syspage_memory.o) (cpu_init_syspage_memory)
C:/Users/Dell/ide-8.0-workspace/hw.raspberrypi-bcm2712-rpi5_2/src/hardware/startup/boards/../../../../install/aarch64le/usr/lib\libstartup.a(cpuid_a35.o)
                              C:/Users/Dell/ide-8.0-workspace/hw.raspberrypi-bcm2712-rpi5_2/src/hardware/startup/boards/../../../../install/aarch64le/usr/lib\libstartup.a(aarch64_cpuid.o) (cpuid_a35)
C:/Users/Dell/ide-8.0-workspace/hw.raspberrypi-bcm2712-rpi5_2/src/hardware/startup/boards/../../../../install/aarch64le/usr/lib\libstartup.a(cpuid_a53.o)
                              C:/Users/Dell/ide-8.0-workspace/hw.raspberrypi-bcm2712-rpi5_2/src/hardware/startup/boards/../../../../install/aarch64le/usr/lib\libstartup.a(aarch64_cpuid.o) (cpuid_a53)
C:/Users/Dell/ide-8.0-workspace/hw.raspberrypi-bcm2712-rpi5_2/src/hardware/startup/boards/../../../../install/aarch64le/usr/lib\libstartup.a(cpuid_a55.o)
                              C:/Users/Dell/ide-8.0-workspace/hw.raspberrypi-bcm2712-rpi5_2/src/hardware/startup/boards/../../../../install/aarch64le/usr/lib\libstartup.a(aarch64_cpuid.o) (cpuid_a55)
C:/Users/Dell/ide-8.0-workspace/hw.raspberrypi-bcm2712-rpi5_2/src/hardware/startup/boards/../../../../install/aarch64le/usr/lib\libstartup.a(cpuid_a57.o)
                              C:/Users/Dell/ide-8.0-workspace/hw.raspberrypi-bcm2712-rpi5_2/src/hardware/startup/boards/../../../../install/aarch64le/usr/lib\libstartup.a(init_cpuinfo.o) (cpuid_a57)
C:/Users/Dell/ide-8.0-workspace/hw.raspberrypi-bcm2712-rpi5_2/src/hardware/startup/boards/../../../../install/aarch64le/usr/lib\libstartup.a(cpuid_a72.o)
                              C:/Users/Dell/ide-8.0-workspace/hw.raspberrypi-bcm2712-rpi5_2/src/hardware/startup/boards/../../../../install/aarch64le/usr/lib\libstartup.a(init_cpuinfo.o) (cpuid_a72)
C:/Users/Dell/ide-8.0-workspace/hw.raspberrypi-bcm2712-rpi5_2/src/hardware/startup/boards/../../../../install/aarch64le/usr/lib\libstartup.a(cpuid_a720.o)
                              C:/Users/Dell/ide-8.0-workspace/hw.raspberrypi-bcm2712-rpi5_2/src/hardware/startup/boards/../../../../install/aarch64le/usr/lib\libstartup.a(aarch64_cpuid.o) (cpuid_a720)
C:/Users/Dell/ide-8.0-workspace/hw.raspberrypi-bcm2712-rpi5_2/src/hardware/startup/boards/../../../../install/aarch64le/usr/lib\libstartup.a(cpuid_a720ae.o)
                              C:/Users/Dell/ide-8.0-workspace/hw.raspberrypi-bcm2712-rpi5_2/src/hardware/startup/boards/../../../../install/aarch64le/usr/lib\libstartup.a(aarch64_cpuid.o) (cpuid_a720ae)
C:/Users/Dell/ide-8.0-workspace/hw.raspberrypi-bcm2712-rpi5_2/src/hardware/startup/boards/../../../../install/aarch64le/usr/lib\libstartup.a(cpuid_a75.o)
                              C:/Users/Dell/ide-8.0-workspace/hw.raspberrypi-bcm2712-rpi5_2/src/hardware/startup/boards/../../../../install/aarch64le/usr/lib\libstartup.a(aarch64_cpuid.o) (cpuid_a75)
C:/Users/Dell/ide-8.0-workspace/hw.raspberrypi-bcm2712-rpi5_2/src/hardware/startup/boards/../../../../install/aarch64le/usr/lib\libstartup.a(cpuid_a76.o)
                              C:/Users/Dell/ide-8.0-workspace/hw.raspberrypi-bcm2712-rpi5_2/src/hardware/startup/boards/../../../../install/aarch64le/usr/lib\libstartup.a(aarch64_cpuid.o) (cpuid_a76)
C:/Users/Dell/ide-8.0-workspace/hw.raspberrypi-bcm2712-rpi5_2/src/hardware/startup/boards/../../../../install/aarch64le/usr/lib\libstartup.a(cpuid_a78ae.o)
                              C:/Users/Dell/ide-8.0-workspace/hw.raspberrypi-bcm2712-rpi5_2/src/hardware/startup/boards/../../../../install/aarch64le/usr/lib\libstartup.a(aarch64_cpuid.o) (cpuid_a78ae)
C:/Users/Dell/ide-8.0-workspace/hw.raspberrypi-bcm2712-rpi5_2/src/hardware/startup/boards/../../../../install/aarch64le/usr/lib\libstartup.a(cpuid_d15.o)
                              C:/Users/Dell/ide-8.0-workspace/hw.raspberrypi-bcm2712-rpi5_2/src/hardware/startup/boards/../../../../install/aarch64le/usr/lib\libstartup.a(aarch64_cpuid.o) (cpuid_d15)
C:/Users/Dell/ide-8.0-workspace/hw.raspberrypi-bcm2712-rpi5_2/src/hardware/startup/boards/../../../../install/aarch64le/usr/lib\libstartup.a(cpuid_d20.o)
                              C:/Users/Dell/ide-8.0-workspace/hw.raspberrypi-bcm2712-rpi5_2/src/hardware/startup/boards/../../../../install/aarch64le/usr/lib\libstartup.a(aarch64_cpuid.o) (cpuid_d20)
C:/Users/Dell/ide-8.0-workspace/hw.raspberrypi-bcm2712-rpi5_2/src/hardware/startup/boards/../../../../install/aarch64le/usr/lib\libstartup.a(cpuid_n1.o)
                              C:/Users/Dell/ide-8.0-workspace/hw.raspberrypi-bcm2712-rpi5_2/src/hardware/startup/boards/../../../../install/aarch64le/usr/lib\libstartup.a(aarch64_cpuid.o) (cpuid_n1)
C:/Users/Dell/ide-8.0-workspace/hw.raspberrypi-bcm2712-rpi5_2/src/hardware/startup/boards/../../../../install/aarch64le/usr/lib\libstartup.a(cpuid_neo_v1.o)
                              C:/Users/Dell/ide-8.0-workspace/hw.raspberrypi-bcm2712-rpi5_2/src/hardware/startup/boards/../../../../install/aarch64le/usr/lib\libstartup.a(aarch64_cpuid.o) (cpuid_neo_v1)
C:/Users/Dell/ide-8.0-workspace/hw.raspberrypi-bcm2712-rpi5_2/src/hardware/startup/boards/../../../../install/aarch64le/usr/lib\libstartup.a(cpuid_neo_v2.o)
                              C:/Users/Dell/ide-8.0-workspace/hw.raspberrypi-bcm2712-rpi5_2/src/hardware/startup/boards/../../../../install/aarch64le/usr/lib\libstartup.a(aarch64_cpuid.o) (cpuid_neo_v2)
C:/Users/Dell/ide-8.0-workspace/hw.raspberrypi-bcm2712-rpi5_2/src/hardware/startup/boards/../../../../install/aarch64le/usr/lib\libstartup.a(cpuid_v8_aem.o)
                              C:/Users/Dell/ide-8.0-workspace/hw.raspberrypi-bcm2712-rpi5_2/src/hardware/startup/boards/../../../../install/aarch64le/usr/lib\libstartup.a(aarch64_cpuid.o) (cpuid_v8_aem)
C:/Users/Dell/ide-8.0-workspace/hw.raspberrypi-bcm2712-rpi5_2/src/hardware/startup/boards/../../../../install/aarch64le/usr/lib\libstartup.a(cpuid_v8_fm.o)
                              C:/Users/Dell/ide-8.0-workspace/hw.raspberrypi-bcm2712-rpi5_2/src/hardware/startup/boards/../../../../install/aarch64le/usr/lib\libstartup.a(aarch64_cpuid.o) (cpuid_v8_fm)
C:/Users/Dell/ide-8.0-workspace/hw.raspberrypi-bcm2712-rpi5_2/src/hardware/startup/boards/../../../../install/aarch64le/usr/lib\libstartup.a(cpuid_x2.o)
                              C:/Users/Dell/ide-8.0-workspace/hw.raspberrypi-bcm2712-rpi5_2/src/hardware/startup/boards/../../../../install/aarch64le/usr/lib\libstartup.a(aarch64_cpuid.o) (cpuid_x2)
C:/Users/Dell/ide-8.0-workspace/hw.raspberrypi-bcm2712-rpi5_2/src/hardware/startup/boards/../../../../install/aarch64le/usr/lib\libstartup.a(cpuid_x4.o)
                              C:/Users/Dell/ide-8.0-workspace/hw.raspberrypi-bcm2712-rpi5_2/src/hardware/startup/boards/../../../../install/aarch64le/usr/lib\libstartup.a(aarch64_cpuid.o) (cpuid_x4)
C:/Users/Dell/ide-8.0-workspace/hw.raspberrypi-bcm2712-rpi5_2/src/hardware/startup/boards/../../../../install/aarch64le/usr/lib\libstartup.a(cpuid_x925.o)
                              C:/Users/Dell/ide-8.0-workspace/hw.raspberrypi-bcm2712-rpi5_2/src/hardware/startup/boards/../../../../install/aarch64le/usr/lib\libstartup.a(aarch64_cpuid.o) (cpuid_x925)
C:/Users/Dell/ide-8.0-workspace/hw.raspberrypi-bcm2712-rpi5_2/src/hardware/startup/boards/../../../../install/aarch64le/usr/lib\libstartup.a(crash_done.o)
                              C:/Users/Dell/ide-8.0-workspace/hw.raspberrypi-bcm2712-rpi5_2/src/hardware/startup/boards/../../../../install/aarch64le/usr/lib\libstartup.a(kprintf.o) (crash_done)
C:/Users/Dell/ide-8.0-workspace/hw.raspberrypi-bcm2712-rpi5_2/src/hardware/startup/boards/../../../../install/aarch64le/usr/lib\libstartup.a(dummy_print_char.o)
                              C:/Users/Dell/ide-8.0-workspace/hw.raspberrypi-bcm2712-rpi5_2/src/hardware/startup/boards/../../../../install/aarch64le/usr/lib\libstartup.a(kprintf.o) (dummy_print_char)
C:/Users/Dell/ide-8.0-workspace/hw.raspberrypi-bcm2712-rpi5_2/src/hardware/startup/boards/../../../../install/aarch64le/usr/lib\libstartup.a(elf.o)
                              C:/Users/Dell/ide-8.0-workspace/hw.raspberrypi-bcm2712-rpi5_2/src/hardware/startup/boards/../../../../install/aarch64le/usr/lib\libstartup.a(init_system_private.o) (load_elf)
C:/Users/Dell/ide-8.0-workspace/hw.raspberrypi-bcm2712-rpi5_2/src/hardware/startup/boards/../../../../install/aarch64le/usr/lib\libstartup.a(elf32.o)
                              C:/Users/Dell/ide-8.0-workspace/hw.raspberrypi-bcm2712-rpi5_2/src/hardware/startup/boards/../../../../install/aarch64le/usr/lib\libstartup.a(elf.o) (load_elf32)
C:/Users/Dell/ide-8.0-workspace/hw.raspberrypi-bcm2712-rpi5_2/src/hardware/startup/boards/../../../../install/aarch64le/usr/lib\libstartup.a(elf64.o)
                              C:/Users/Dell/ide-8.0-workspace/hw.raspberrypi-bcm2712-rpi5_2/src/hardware/startup/boards/../../../../install/aarch64le/usr/lib\libstartup.a(elf.o) (load_elf64)
C:/Users/Dell/ide-8.0-workspace/hw.raspberrypi-bcm2712-rpi5_2/src/hardware/startup/boards/../../../../install/aarch64le/usr/lib\libstartup.a(elf_map.o)
                              C:/Users/Dell/ide-8.0-workspace/hw.raspberrypi-bcm2712-rpi5_2/src/hardware/startup/boards/../../../../install/aarch64le/usr/lib\libstartup.a(cpu_syspage_memory.o) (elf_map)
C:/Users/Dell/ide-8.0-workspace/hw.raspberrypi-bcm2712-rpi5_2/src/hardware/startup/boards/../../../../install/aarch64le/usr/lib\libstartup.a(hwi_add_device.o)
                              C:/Users/Dell/ide-8.0-workspace/hw.raspberrypi-bcm2712-rpi5_2/src/hardware/startup/boards/../../../../install/aarch64le/usr/lib\libstartup.a(hwi_add_nanospin.o) (hwi_add_device)
C:/Users/Dell/ide-8.0-workspace/hw.raspberrypi-bcm2712-rpi5_2/src/hardware/startup/boards/../../../../install/aarch64le/usr/lib\libstartup.a(hwi_default.o)
                              C:/Users/Dell/ide-8.0-workspace/hw.raspberrypi-bcm2712-rpi5_2/src/hardware/startup/boards/../../../../install/aarch64le/usr/lib\libstartup.a(syspage_memory.o) (hwi_default)
C:/Users/Dell/ide-8.0-workspace/hw.raspberrypi-bcm2712-rpi5_2/src/hardware/startup/boards/../../../../install/aarch64le/usr/lib\libstartup.a(hypervisor.o)
                              C:/Users/Dell/ide-8.0-workspace/hw.raspberrypi-bcm2712-rpi5_2/src/hardware/startup/boards/../../../../install/aarch64le/usr/lib\libstartup.a(hypervisor_setup.o) (arch_hypervisor_validate_flags)
C:/Users/Dell/ide-8.0-workspace/hw.raspberrypi-bcm2712-rpi5_2/src/hardware/startup/boards/../../../../install/aarch64le/usr/lib\libstartup.a(hypervisor_enable.o)
                              C:/Users/Dell/ide-8.0-workspace/hw.raspberrypi-bcm2712-rpi5_2/src/hardware/startup/boards/../../../../install/aarch64le/usr/lib\libstartup.a(hypervisor.o) (hyp_enable_el2_host)
C:/Users/Dell/ide-8.0-workspace/hw.raspberrypi-bcm2712-rpi5_2/src/hardware/startup/boards/../../../../install/aarch64le/usr/lib\libstartup.a(init_mitigation_mem.o)
                              C:/Users/Dell/ide-8.0-workspace/hw.raspberrypi-bcm2712-rpi5_2/src/hardware/startup/boards/../../../../install/aarch64le/usr/lib\libstartup.a(init_system_private.o) (init_mitigation_mem)
C:/Users/Dell/ide-8.0-workspace/hw.raspberrypi-bcm2712-rpi5_2/src/hardware/startup/boards/../../../../install/aarch64le/usr/lib\libstartup.a(rtc_time.o)
                              C:/Users/Dell/ide-8.0-workspace/hw.raspberrypi-bcm2712-rpi5_2/src/hardware/startup/boards/../../../../install/aarch64le/usr/lib\libstartup.a(alloc_qtime.o) (rtc_time)
C:/Users/Dell/ide-8.0-workspace/hw.raspberrypi-bcm2712-rpi5_2/src/hardware/startup/boards/../../../../install/aarch64le/usr/lib\libstartup.a(startup_info.o)
                              C:/Users/Dell/ide-8.0-workspace/hw.raspberrypi-bcm2712-rpi5_2/src/hardware/startup/boards/../../../../install/aarch64le/usr/lib\libstartup.a(alloc_qtime.o) (find_startup_info)
C:/Users/Dell/ide-8.0-workspace/hw.raspberrypi-bcm2712-rpi5_2/src/hardware/startup/boards/../../../../install/aarch64le/usr/lib\libstartup.a(vstart.o)
                              C:/Users/Dell/ide-8.0-workspace/hw.raspberrypi-bcm2712-rpi5_2/src/hardware/startup/boards/../../../../install/aarch64le/usr/lib\libstartup.a(cpu_startnext.o) (vstart)
C:/Users/Dell/qnx800/target/qnx/aarch64le/usr/lib\libucl.a(n2b_d.o)
                              C:/Users/Dell/ide-8.0-workspace/hw.raspberrypi-bcm2712-rpi5_2/src/hardware/startup/boards/../../../../install/aarch64le/usr/lib\libstartup.a(uncompress_ucl.o) (ucl_nrv2b_decompress_8)
C:/Users/Dell/qnx800/target/qnx/aarch64le/usr/lib\libdrvr.a(hwi_find_unit.o)
                              init_hwinfo.o (hwi_find_unit)
C:/Users/Dell/qnx800/target/qnx/aarch64le/usr/lib\libdrvr.a(hwi_tag_find.o)
                              C:/Users/Dell/ide-8.0-workspace/hw.raspberrypi-bcm2712-rpi5_2/src/hardware/startup/boards/../../../../install/aarch64le/usr/lib\libstartup.a(hwitag_set_inputclk.o) (hwi_tag_find)
C:/Users/Dell/qnx800/target/qnx/aarch64le/usr/lib\libdrvr.a(hwi_find_bus.o)
                              C:/Users/Dell/qnx800/target/qnx/aarch64le/usr/lib\libdrvr.a(hwi_find_unit.o) (hwi_find_bus)
C:/Users/Dell/qnx800/target/qnx/aarch64le/usr/lib\libdrvr.a(hwi_find_device.o)
                              C:/Users/Dell/qnx800/target/qnx/aarch64le/usr/lib\libdrvr.a(hwi_find_unit.o) (hwi_find_device)
C:/Users/Dell/qnx800/target/qnx/aarch64le/usr/lib\libdrvr.a(hwi_find.o)
                              C:/Users/Dell/qnx800/target/qnx/aarch64le/usr/lib\libdrvr.a(hwi_find_bus.o) (hwi_find)
C:/Users/Dell/qnx800/target/qnx/aarch64le/usr/lib\libfdt.a(fdt.o)
                              C:/Users/Dell/ide-8.0-workspace/hw.raspberrypi-bcm2712-rpi5_2/src/hardware/startup/boards/../../../../install/aarch64le/usr/lib\libstartup.a(fdt_init_bootopt.o) (fdt_check_header)
C:/Users/Dell/qnx800/target/qnx/aarch64le/usr/lib\libfdt.a(fdt_ro.o)
                              init_aon_gpio.o (fdt_get_property)
C:/Users/Dell/qnx800/target/qnx/aarch64le/lib\libc.a(hwi_find_item.o)
                              C:/Users/Dell/ide-8.0-workspace/hw.raspberrypi-bcm2712-rpi5_2/src/hardware/startup/boards/../../../../install/aarch64le/usr/lib\libstartup.a(hwidev_add.o) (hwi_find_item)
C:/Users/Dell/qnx800/target/qnx/aarch64le/lib\libc.a(hwi_next_tag.o)
                              C:/Users/Dell/qnx800/target/qnx/aarch64le/usr/lib\libdrvr.a(hwi_tag_find.o) (hwi_next_tag)
C:/Users/Dell/qnx800/target/qnx/aarch64le/lib\libc.a(hwi_off2tag.o)
                              C:/Users/Dell/ide-8.0-workspace/hw.raspberrypi-bcm2712-rpi5_2/src/hardware/startup/boards/../../../../install/aarch64le/usr/lib\libstartup.a(hwi_alloc.o) (hwi_off2tag)
C:/Users/Dell/qnx800/target/qnx/aarch64le/lib\libc.a(hwi_tag2off.o)
                              C:/Users/Dell/ide-8.0-workspace/hw.raspberrypi-bcm2712-rpi5_2/src/hardware/startup/boards/../../../../install/aarch64le/usr/lib\libstartup.a(hwidev_add.o) (hwi_tag2off)
C:/Users/Dell/qnx800/target/qnx/aarch64le/lib\libc.a(memchr.o)
                              C:/Users/Dell/qnx800/target/qnx/aarch64le/usr/lib\libfdt.a(fdt_ro.o) (memchr)
C:/Users/Dell/qnx800/target/qnx/aarch64le/lib\libc.a(memcmp.o)
                              C:/Users/Dell/ide-8.0-workspace/hw.raspberrypi-bcm2712-rpi5_2/src/hardware/startup/boards/../../../../install/aarch64le/usr/lib\libstartup.a(common_options.o) (memcmp)
C:/Users/Dell/qnx800/target/qnx/aarch64le/lib\libc.a(memset.o)
                              C:/Users/Dell/ide-8.0-workspace/hw.raspberrypi-bcm2712-rpi5_2/src/hardware/startup/boards/../../../../install/aarch64le/usr/lib\libstartup.a(callouts.o) (memset)
C:/Users/Dell/qnx800/target/qnx/aarch64le/lib\libc.a(strchr.o)
                              C:/Users/Dell/ide-8.0-workspace/hw.raspberrypi-bcm2712-rpi5_2/src/hardware/startup/boards/../../../../install/aarch64le/usr/lib\libstartup.a(common_options.o) (strchr)
C:/Users/Dell/qnx800/target/qnx/aarch64le/lib\libc.a(strcmp.o)
                              C:/Users/Dell/ide-8.0-workspace/hw.raspberrypi-bcm2712-rpi5_2/src/hardware/startup/boards/../../../../install/aarch64le/usr/lib\libstartup.a(as_find_containing.o) (strcmp)
C:/Users/Dell/qnx800/target/qnx/aarch64le/lib\libc.a(strlcpy.o)
                              C:/Users/Dell/ide-8.0-workspace/hw.raspberrypi-bcm2712-rpi5_2/src/hardware/startup/boards/../../../../install/aarch64le/usr/lib\libstartup.a(strings.o) (strlcpy)
C:/Users/Dell/qnx800/target/qnx/aarch64le/lib\libc.a(strlen.o)
                              C:/Users/Dell/ide-8.0-workspace/hw.raspberrypi-bcm2712-rpi5_2/src/hardware/startup/boards/../../../../install/aarch64le/usr/lib\libstartup.a(bootstrap_cmdline.o) (strlen)
C:/Users/Dell/qnx800/target/qnx/aarch64le/lib\libc.a(strnlen.o)
                              C:/Users/Dell/qnx800/target/qnx/aarch64le/usr/lib\libfdt.a(fdt_ro.o) (strnlen)
C:/Users/Dell/qnx800/target/qnx/aarch64le/lib\libc.a(strrchr.o)
                              C:/Users/Dell/qnx800/target/qnx/aarch64le/usr/lib\libfdt.a(fdt_ro.o) (strrchr)
C:/Users/Dell/qnx800/target/qnx/aarch64le/lib\libc.a(strstr.o)
                              init_hwinfo.o (strstr)
C:/Users/Dell/qnx800/target/qnx/aarch64le/lib\libc.a(__progname.o)
                              C:/Users/Dell/ide-8.0-workspace/hw.raspberrypi-bcm2712-rpi5_2/src/hardware/startup/boards/../../../../install/aarch64le/usr/lib\libstartup.a(ssp.o) (__progname)
C:/Users/Dell/qnx800/target/qnx/aarch64le/lib\libc.a(_ssp.o)
                              init_aon_gpio.o (__stack_chk_fail)
C:/Users/Dell/qnx800/target/qnx/aarch64le/lib\libc.a(__stack_chk_guard.o)
                              init_aon_gpio.o (__stack_chk_guard)
C:/Users/Dell/qnx800/target/qnx/aarch64le/lib\libc.a(getsubopt.o)
                              C:/Users/Dell/ide-8.0-workspace/hw.raspberrypi-bcm2712-rpi5_2/src/hardware/startup/boards/../../../../install/aarch64le/usr/lib\libstartup.a(cpu_common_options.o) (getsubopt)
C:/Users/Dell/qnx800/target/qnx/aarch64le/lib\libc.a(xtolotab.o)
                              C:/Users/Dell/qnx800/target/qnx/aarch64le/lib\libc.a(strstr.o) (_Tolotab)
C:/Users/Dell/qnx800/target/qnx/aarch64le/lib\libc.a(strncasecmp.o)
                              C:/Users/Dell/qnx800/target/qnx/aarch64le/lib\libc.a(strstr.o) (strncasecmp)
C:/Users/Dell/qnx800/target/qnx/aarch64le/lib\libc.a(strncmp.o)
                              C:/Users/Dell/qnx800/target/qnx/aarch64le/lib\libc.a(strstr.o) (strncmp)

There are no discarded input sections

Memory Configuration

Name             Origin             Length             Attributes
*default*        0x0000000000000000 0xffffffffffffffff

Linker script and memory map

LOAD bcm2712_init_raminfo.o
LOAD board_smp.o
LOAD callout_reboot_bcm2712.o
LOAD init_aon_gpio.o
LOAD init_asinfo.o
LOAD init_board_type.o
LOAD init_hwinfo.o
LOAD init_intrinfo.o
LOAD init_wdt.o
LOAD main.o
LOAD mbox.o
LOAD C:/Users/Dell/ide-8.0-workspace/hw.raspberrypi-bcm2712-rpi5_2/src/hardware/startup/boards/../../../../install/aarch64le/usr/lib\libstartup.a
LOAD C:/Users/Dell/qnx800/target/qnx/aarch64le/usr/lib\liblzo2.a
LOAD C:/Users/Dell/qnx800/target/qnx/aarch64le/usr/lib\libucl.a
LOAD C:/Users/Dell/qnx800/target/qnx/aarch64le/usr/lib\libdrvr.a
LOAD C:/Users/Dell/qnx800/target/qnx/aarch64le/usr/lib\libfdt.a
LOAD C:/Users/Dell/qnx800/target/qnx/aarch64le/lib\libc.a
LOAD C:/Users/Dell/qnx800/target/qnx/aarch64le/lib\libcS.a
LOAD C:/Users/Dell/qnx800/host/win64/x86_64/usr/lib/gcc/aarch64-unknown-nto-qnx8.0.0/12.2.0\libgcc.a

.interp
 *(.interp)

.note.gnu.build-id
 *(.note.gnu.build-id)

.hash
 *(.hash)

.gnu.hash
 *(.gnu.hash)

.dynsym
 *(.dynsym)

.dynstr
 *(.dynstr)

.gnu.version
 *(.gnu.version)

.gnu.version_d
 *(.gnu.version_d)

.gnu.version_r
 *(.gnu.version_r)

.rela.init
 *(.rela.init)

.rela.text
 *(.rela.text)

.rela.fini
 *(.rela.fini)

.rela.rodata
 *(.rela.rodata)

.rela.data.rel.ro
 *(.rela.data.rel.ro)

.rela.data
 *(.rela.data)

.rela.tdata
 *(.rela.tdata)

.rela.tbss
 *(.rela.tbss)

.rela.ctors
 *(.rela.ctors)

.rela.dtors
 *(.rela.dtors)

.rela.got
 *(.rela.got)

.rela.bss
 *(.rela.bss)

.rela.ifunc
 *(.rela.ifunc)

.rela.plt
 *(.rela.plt)

.init
 *(SORT_NONE(.init))

.plt
 *(.plt)
 *(.iplt)

.text           0x0000000000000000    0x10da0
 *(.text .stub)
 .text          0x0000000000000000      0x1e4 bcm2712_init_raminfo.o
                0x0000000000000000                bcm2712_init_raminfo
 *fill*         0x00000000000001e4        0xc 00000000
 .text          0x00000000000001f0       0x88 board_smp.o
                0x00000000000001f0                board_smp_num_cpu
                0x0000000000000200                psci_cpu_id
                0x0000000000000210                board_smp_init
                0x0000000000000270                board_smp_start
                0x0000000000000274                board_smp_adjust_num
 .text          0x0000000000000278       0x98 callout_reboot_bcm2712.o
                0x00000000000002c8                reboot_bcm2712
 .text          0x0000000000000310      0xb60 init_aon_gpio.o
                0x0000000000000750                init_gpio_aon_bcm
 .text          0x0000000000000e70        0x4 init_asinfo.o
                0x0000000000000e70                init_asinfo
 *fill*         0x0000000000000e74        0xc 00000000
 .text          0x0000000000000e80      0x260 init_board_type.o
                0x0000000000000e80                get_soc_name
                0x0000000000000f14                get_memory_size
                0x0000000000000f94                get_mfr_name
                0x0000000000001030                get_board_name
                0x00000000000010b0                get_board_serial
 .text          0x00000000000010e0      0x540 init_hwinfo.o
                0x00000000000010e0                get_board_revision
                0x0000000000001204                init_hwinfo
                0x00000000000015d0                init_pcie_ext_msi_controller
 .text          0x0000000000001620       0x54 init_intrinfo.o
                0x0000000000001620                init_intrinfo
 *fill*         0x0000000000001674        0xc 00000000
 .text          0x0000000000001680      0x10c init_wdt.o
                0x0000000000001680                bcm2712_wdt_enable
 *fill*         0x000000000000178c        0x4 00000000
 .text          0x0000000000001790      0x17c main.o
                0x0000000000001790                find_next_arg
                0x00000000000017e4                cpu_tweak_cmdline
 *fill*         0x000000000000190c        0x4 00000000
 .text          0x0000000000001910      0x4d8 mbox.o
                0x0000000000001990                mbox_get_board_revision
                0x00000000000019d4                mbox_get_board_mac_address
                0x0000000000001a54                mbox_get_board_serial
                0x0000000000001aa0                mbox_get_arm_memory
                0x0000000000001ae0                mbox_get_vc_memory
                0x0000000000001b20                mbox_get_cmdline
                0x0000000000001b90                mbox_get_power_state
                0x0000000000001bd4                mbox_set_power_state
                0x0000000000001c20                mbox_get_clock_rate
                0x0000000000001c64                mbox_set_clock_rate
                0x0000000000001cb0                mbox_get_voltage
                0x0000000000001d04                mbox_get_temperature
                0x0000000000001d50                mbox_get_expgpio
                0x0000000000001da0                mbox_set_expgpio
 *fill*         0x0000000000001de8        0x8 00000000
 .text          0x0000000000001df0      0x218 C:/Users/Dell/ide-8.0-workspace/hw.raspberrypi-bcm2712-rpi5_2/src/hardware/startup/boards/../../../../install/aarch64le/usr/lib\libstartup.a(_main.o)
                0x0000000000001df4                _main
                0x0000000000001ff0                __get_errno_ptr
                0x0000000000001ff4                __stackavail
 .text          0x0000000000002008        0x4 C:/Users/Dell/ide-8.0-workspace/hw.raspberrypi-bcm2712-rpi5_2/src/hardware/startup/boards/../../../../install/aarch64le/usr/lib\libstartup.a(_start.o)
                0x0000000000002008                _start
 *fill*         0x000000000000200c        0x4 00000000
 .text          0x0000000000002010      0x2dc C:/Users/Dell/ide-8.0-workspace/hw.raspberrypi-bcm2712-rpi5_2/src/hardware/startup/boards/../../../../install/aarch64le/usr/lib\libstartup.a(as_add_containing.o)
                0x0000000000002010                as_add_containing
 *fill*         0x00000000000022ec        0x4 00000000
 .text          0x00000000000022f0      0x114 C:/Users/Dell/ide-8.0-workspace/hw.raspberrypi-bcm2712-rpi5_2/src/hardware/startup/boards/../../../../install/aarch64le/usr/lib\libstartup.a(as_find_containing.o)
                0x00000000000022f0                as_find_containing
 *fill*         0x0000000000002404        0xc 00000000
 .text          0x0000000000002410       0x10 C:/Users/Dell/ide-8.0-workspace/hw.raspberrypi-bcm2712-rpi5_2/src/hardware/startup/boards/../../../../install/aarch64le/usr/lib\libstartup.a(as_off2info.o)
                0x0000000000002410                as_off2info
 .text          0x0000000000002420        0x4 C:/Users/Dell/ide-8.0-workspace/hw.raspberrypi-bcm2712-rpi5_2/src/hardware/startup/boards/../../../../install/aarch64le/usr/lib\libstartup.a(board_init.o)
                0x0000000000002420                board_init
 *fill*         0x0000000000002424        0xc 00000000
 .text          0x0000000000002430      0x19c C:/Users/Dell/ide-8.0-workspace/hw.raspberrypi-bcm2712-rpi5_2/src/hardware/startup/boards/../../../../install/aarch64le/usr/lib\libstartup.a(bootstrap_cmdline.o)
                0x00000000000025b0                bootstrap_arg_adjust
                0x00000000000025c0                bootstrap_env_adjust
 *fill*         0x00000000000025cc        0x4 00000000
 .text          0x00000000000025d0       0xec C:/Users/Dell/ide-8.0-workspace/hw.raspberrypi-bcm2712-rpi5_2/src/hardware/startup/boards/../../../../install/aarch64le/usr/lib\libstartup.a(callout_debug_pl011.o)
                0x0000000000002610                display_char_pl011
                0x0000000000002650                poll_key_pl011
                0x0000000000002690                break_detect_pl011
 *fill*         0x00000000000026bc        0x4 00000000
 .text          0x00000000000026c0       0x80 C:/Users/Dell/ide-8.0-workspace/hw.raspberrypi-bcm2712-rpi5_2/src/hardware/startup/boards/../../../../install/aarch64le/usr/lib\libstartup.a(callout_sendipi_gic_v2.o)
                0x00000000000026e8                sendipi_gic_v2
 .text          0x0000000000002740      0x520 C:/Users/Dell/ide-8.0-workspace/hw.raspberrypi-bcm2712-rpi5_2/src/hardware/startup/boards/../../../../install/aarch64le/usr/lib\libstartup.a(callouts.o)
                0x00000000000027b0                output_callouts
                0x0000000000002820                callout_output_one
                0x0000000000002a60                callout_register_data
                0x0000000000002af0                callout_reloc_data
                0x0000000000002b30                add_callout
                0x0000000000002bb0                add_callout_array
 .text          0x0000000000002c60      0x798 C:/Users/Dell/ide-8.0-workspace/hw.raspberrypi-bcm2712-rpi5_2/src/hardware/startup/boards/../../../../install/aarch64le/usr/lib\libstartup.a(common_options.o)
                0x0000000000002d60                handle_common_option
                0x00000000000031e0                set_debug
                0x00000000000033b0                select_debug
 *fill*         0x00000000000033f8        0x8 00000000
 .text          0x0000000000003400       0xbc C:/Users/Dell/ide-8.0-workspace/hw.raspberrypi-bcm2712-rpi5_2/src/hardware/startup/boards/../../../../install/aarch64le/usr/lib\libstartup.a(cpu_cluster_add.o)
                0x0000000000003400                cpu_cluster_add
 *fill*         0x00000000000034bc        0x4 00000000
 .text          0x00000000000034c0      0x304 C:/Users/Dell/ide-8.0-workspace/hw.raspberrypi-bcm2712-rpi5_2/src/hardware/startup/boards/../../../../install/aarch64le/usr/lib\libstartup.a(cpu_common_options.o)
                0x00000000000034c0                cpu_handle_common_option
 *fill*         0x00000000000037c4        0xc 00000000
 .text          0x00000000000037d0       0x88 C:/Users/Dell/ide-8.0-workspace/hw.raspberrypi-bcm2712-rpi5_2/src/hardware/startup/boards/../../../../install/aarch64le/usr/lib\libstartup.a(cpu_startup.o)
                0x00000000000037d0                aarch64_cpuid_find
                0x0000000000003810                cpu_startup
 .text          0x0000000000003858       0x40 C:/Users/Dell/ide-8.0-workspace/hw.raspberrypi-bcm2712-rpi5_2/src/hardware/startup/boards/../../../../install/aarch64le/usr/lib\libstartup.a(cstart.o)
                0x0000000000003858                cstart
 *fill*         0x0000000000003898        0x8 00000000
 .text          0x00000000000038a0       0x7c C:/Users/Dell/ide-8.0-workspace/hw.raspberrypi-bcm2712-rpi5_2/src/hardware/startup/boards/../../../../install/aarch64le/usr/lib\libstartup.a(debug.o)
                0x00000000000038a0                print_syspage
 *fill*         0x000000000000391c        0x4 00000000
 .text          0x0000000000003920      0x1a4 C:/Users/Dell/ide-8.0-workspace/hw.raspberrypi-bcm2712-rpi5_2/src/hardware/startup/boards/../../../../install/aarch64le/usr/lib\libstartup.a(fdt_init_bootopt.o)
                0x0000000000003920                fdt_init_bootopt
 *fill*         0x0000000000003ac4        0xc 00000000
 .text          0x0000000000003ad0      0x124 C:/Users/Dell/ide-8.0-workspace/hw.raspberrypi-bcm2712-rpi5_2/src/hardware/startup/boards/../../../../install/aarch64le/usr/lib\libstartup.a(fdt_psci_configure.o)
                0x0000000000003ad0                fdt_psci_configure
 .text          0x0000000000003bf4        0x0 C:/Users/Dell/ide-8.0-workspace/hw.raspberrypi-bcm2712-rpi5_2/src/hardware/startup/boards/../../../../install/aarch64le/usr/lib\libstartup.a(fdt_vars.o)
 *fill*         0x0000000000003bf4        0xc 00000000
 .text          0x0000000000003c00      0x11c C:/Users/Dell/ide-8.0-workspace/hw.raspberrypi-bcm2712-rpi5_2/src/hardware/startup/boards/../../../../install/aarch64le/usr/lib\libstartup.a(getopt.o)
                0x0000000000003c00                getopt
 *fill*         0x0000000000003d1c        0x4 00000000
 .text          0x0000000000003d20       0x7c C:/Users/Dell/ide-8.0-workspace/hw.raspberrypi-bcm2712-rpi5_2/src/hardware/startup/boards/../../../../install/aarch64le/usr/lib\libstartup.a(getsize.o)
                0x0000000000003d20                getsize
 .text          0x0000000000003d9c        0x0 C:/Users/Dell/ide-8.0-workspace/hw.raspberrypi-bcm2712-rpi5_2/src/hardware/startup/boards/../../../../install/aarch64le/usr/lib\libstartup.a(gic.o)
 *fill*         0x0000000000003d9c        0x4 00000000
 .text          0x0000000000003da0      0x484 C:/Users/Dell/ide-8.0-workspace/hw.raspberrypi-bcm2712-rpi5_2/src/hardware/startup/boards/../../../../install/aarch64le/usr/lib\libstartup.a(gic_v2.o)
                0x0000000000003ef0                gic_v2_init
                0x0000000000004124                gic_v2_num_spis
                0x0000000000004140                gic_v2_set_intr_trig_mode
 *fill*         0x0000000000004224        0xc 00000000
 .text          0x0000000000004230      0x254 C:/Users/Dell/ide-8.0-workspace/hw.raspberrypi-bcm2712-rpi5_2/src/hardware/startup/boards/../../../../install/aarch64le/usr/lib\libstartup.a(hw_serpl011.o)
                0x0000000000004374                init_pl011
                0x0000000000004460                put_pl011
 *fill*         0x0000000000004484        0xc 00000000
 .text          0x0000000000004490       0x54 C:/Users/Dell/ide-8.0-workspace/hw.raspberrypi-bcm2712-rpi5_2/src/hardware/startup/boards/../../../../install/aarch64le/usr/lib\libstartup.a(hwi_add_nanospin.o)
                0x0000000000004490                hwi_add_nanospin
 *fill*         0x00000000000044e4        0xc 00000000
 .text          0x00000000000044f0      0x218 C:/Users/Dell/ide-8.0-workspace/hw.raspberrypi-bcm2712-rpi5_2/src/hardware/startup/boards/../../../../install/aarch64le/usr/lib\libstartup.a(hwi_alloc.o)
                0x00000000000044f0                __hwi_find_string
                0x0000000000004500                __hwi_base
                0x0000000000004510                hwi_alloc_tag
                0x00000000000045f0                hwi_alloc_item
                0x00000000000046b0                hwi_grow_tag
 *fill*         0x0000000000004708        0x8 00000000
 .text          0x0000000000004710       0x28 C:/Users/Dell/ide-8.0-workspace/hw.raspberrypi-bcm2712-rpi5_2/src/hardware/startup/boards/../../../../install/aarch64le/usr/lib\libstartup.a(hwi_find_as.o)
                0x0000000000004710                hwi_find_as
 *fill*         0x0000000000004738        0x8 00000000
 .text          0x0000000000004740       0x84 C:/Users/Dell/ide-8.0-workspace/hw.raspberrypi-bcm2712-rpi5_2/src/hardware/startup/boards/../../../../install/aarch64le/usr/lib\libstartup.a(hwidev_add.o)
                0x0000000000004740                hwidev_add
 *fill*         0x00000000000047c4        0xc 00000000
 .text          0x00000000000047d0       0xf8 C:/Users/Dell/ide-8.0-workspace/hw.raspberrypi-bcm2712-rpi5_2/src/hardware/startup/boards/../../../../install/aarch64le/usr/lib\libstartup.a(hwidev_add_enet.o)
                0x00000000000047d0                hwidev_add_enet
 *fill*         0x00000000000048c8        0x8 00000000
 .text          0x00000000000048d0       0x80 C:/Users/Dell/ide-8.0-workspace/hw.raspberrypi-bcm2712-rpi5_2/src/hardware/startup/boards/../../../../install/aarch64le/usr/lib\libstartup.a(hwidev_add_timer.o)
                0x00000000000048d0                hwidev_add_timer
 .text          0x0000000000004950      0x144 C:/Users/Dell/ide-8.0-workspace/hw.raspberrypi-bcm2712-rpi5_2/src/hardware/startup/boards/../../../../install/aarch64le/usr/lib\libstartup.a(hwitag_add_common.o)
                0x0000000000004950                hwitag_add_common
                0x0000000000004a64                hwitag_add_optstr
 *fill*         0x0000000000004a94        0xc 00000000
 .text          0x0000000000004aa0       0x34 C:/Users/Dell/ide-8.0-workspace/hw.raspberrypi-bcm2712-rpi5_2/src/hardware/startup/boards/../../../../install/aarch64le/usr/lib\libstartup.a(hwitag_add_inputclk.o)
                0x0000000000004aa0                hwitag_add_inputclk
 *fill*         0x0000000000004ad4        0xc 00000000
 .text          0x0000000000004ae0       0x28 C:/Users/Dell/ide-8.0-workspace/hw.raspberrypi-bcm2712-rpi5_2/src/hardware/startup/boards/../../../../install/aarch64le/usr/lib\libstartup.a(hwitag_add_irq.o)
                0x0000000000004ae0                hwitag_add_irq
 *fill*         0x0000000000004b08        0x8 00000000
 .text          0x0000000000004b10       0x50 C:/Users/Dell/ide-8.0-workspace/hw.raspberrypi-bcm2712-rpi5_2/src/hardware/startup/boards/../../../../install/aarch64le/usr/lib\libstartup.a(hwitag_add_location.o)
                0x0000000000004b10                hwitag_add_location
 .text          0x0000000000004b60       0x48 C:/Users/Dell/ide-8.0-workspace/hw.raspberrypi-bcm2712-rpi5_2/src/hardware/startup/boards/../../../../install/aarch64le/usr/lib\libstartup.a(hwitag_add_nicaddr.o)
                0x0000000000004b60                hwitag_add_nicaddr
 *fill*         0x0000000000004ba8        0x8 00000000
 .text          0x0000000000004bb0       0x28 C:/Users/Dell/ide-8.0-workspace/hw.raspberrypi-bcm2712-rpi5_2/src/hardware/startup/boards/../../../../install/aarch64le/usr/lib\libstartup.a(hwitag_add_nicphyaddr.o)
                0x0000000000004bb0                hwitag_add_nicphyaddr
 *fill*         0x0000000000004bd8        0x8 00000000
 .text          0x0000000000004be0       0x40 C:/Users/Dell/ide-8.0-workspace/hw.raspberrypi-bcm2712-rpi5_2/src/hardware/startup/boards/../../../../install/aarch64le/usr/lib\libstartup.a(hwitag_add_regname.o)
                0x0000000000004be0                hwitag_add_regname
 .text          0x0000000000004c20       0x4c C:/Users/Dell/ide-8.0-workspace/hw.raspberrypi-bcm2712-rpi5_2/src/hardware/startup/boards/../../../../install/aarch64le/usr/lib\libstartup.a(hwitag_set_inputclk.o)
                0x0000000000004c20                hwitag_set_inputclk
 *fill*         0x0000000000004c6c        0x4 00000000
 .text          0x0000000000004c70       0xa4 C:/Users/Dell/ide-8.0-workspace/hw.raspberrypi-bcm2712-rpi5_2/src/hardware/startup/boards/../../../../install/aarch64le/usr/lib\libstartup.a(hwitag_set_ivec.o)
                0x0000000000004c70                hwitag_set_ivec
 *fill*         0x0000000000004d14        0xc 00000000
 .text          0x0000000000004d20       0x9c C:/Users/Dell/ide-8.0-workspace/hw.raspberrypi-bcm2712-rpi5_2/src/hardware/startup/boards/../../../../install/aarch64le/usr/lib\libstartup.a(hypervisor_setup.o)
                0x0000000000004d20                hypervisor_set_options
                0x0000000000004d30                hypervisor_init
                0x0000000000004d80                hypervisor_get_required_flags
                0x0000000000004d90                hypervisor_syspage_init
 *fill*         0x0000000000004dbc        0x4 00000000
 .text          0x0000000000004dc0        0x4 C:/Users/Dell/ide-8.0-workspace/hw.raspberrypi-bcm2712-rpi5_2/src/hardware/startup/boards/../../../../install/aarch64le/usr/lib\libstartup.a(init_cacheattr.o)
                0x0000000000004dc0                init_cacheattr
 *fill*         0x0000000000004dc4        0xc 00000000
 .text          0x0000000000004dd0      0x858 C:/Users/Dell/ide-8.0-workspace/hw.raspberrypi-bcm2712-rpi5_2/src/hardware/startup/boards/../../../../install/aarch64le/usr/lib\libstartup.a(init_cpuinfo.o)
                0x0000000000004dd0                init_one_cpuinfo
                0x00000000000055a4                init_cpuinfo
 *fill*         0x0000000000005628        0x8 00000000
 .text          0x0000000000005630       0xe8 C:/Users/Dell/ide-8.0-workspace/hw.raspberrypi-bcm2712-rpi5_2/src/hardware/startup/boards/../../../../install/aarch64le/usr/lib\libstartup.a(init_mmu.o)
                0x0000000000005630                init_mmu
 *fill*         0x0000000000005718        0x8 00000000
 .text          0x0000000000005720        0xc C:/Users/Dell/ide-8.0-workspace/hw.raspberrypi-bcm2712-rpi5_2/src/hardware/startup/boards/../../../../install/aarch64le/usr/lib\libstartup.a(init_qtime.o)
                0x0000000000005720                init_qtime
 *fill*         0x000000000000572c        0x4 00000000
 .text          0x0000000000005730       0xb8 C:/Users/Dell/ide-8.0-workspace/hw.raspberrypi-bcm2712-rpi5_2/src/hardware/startup/boards/../../../../install/aarch64le/usr/lib\libstartup.a(init_qtime_v8gt.o)
                0x0000000000005750                init_qtime_v8gt
 *fill*         0x00000000000057e8        0x8 00000000
 .text          0x00000000000057f0      0x248 C:/Users/Dell/ide-8.0-workspace/hw.raspberrypi-bcm2712-rpi5_2/src/hardware/startup/boards/../../../../install/aarch64le/usr/lib\libstartup.a(init_smp.o)
                0x0000000000005990                init_smp
 *fill*         0x0000000000005a38        0x8 00000000
 .text          0x0000000000005a40      0x6ec C:/Users/Dell/ide-8.0-workspace/hw.raspberrypi-bcm2712-rpi5_2/src/hardware/startup/boards/../../../../install/aarch64le/usr/lib\libstartup.a(init_system_private.o)
                0x0000000000005a40                init_system_private
 *fill*         0x000000000000612c        0x4 00000000
 .text          0x0000000000006130       0x98 C:/Users/Dell/ide-8.0-workspace/hw.raspberrypi-bcm2712-rpi5_2/src/hardware/startup/boards/../../../../install/aarch64le/usr/lib\libstartup.a(invert_timer_freq.o)
                0x0000000000006130                invert_timer_freq
 *fill*         0x00000000000061c8        0x8 00000000
 .text          0x00000000000061d0       0x9c C:/Users/Dell/ide-8.0-workspace/hw.raspberrypi-bcm2712-rpi5_2/src/hardware/startup/boards/../../../../install/aarch64le/usr/lib\libstartup.a(jtag.o)
                0x00000000000061d0                jtag_reserve_memory
                0x0000000000006220                jtag_reserve_syspage_addr
                0x0000000000006234                jtag_store_syspage_addr
 *fill*         0x000000000000626c        0x4 00000000
 .text          0x0000000000006270      0x70c C:/Users/Dell/ide-8.0-workspace/hw.raspberrypi-bcm2712-rpi5_2/src/hardware/startup/boards/../../../../install/aarch64le/usr/lib\libstartup.a(kprintf.o)
                0x0000000000006700                kprintf
                0x0000000000006780                ksprintf
                0x0000000000006830                ksnprintf
                0x0000000000006900                crash
                0x0000000000006960                set_print_char
                0x0000000000006970                get_print_char
 *fill*         0x000000000000697c        0x4 00000000
 .text          0x0000000000006980      0x174 C:/Users/Dell/ide-8.0-workspace/hw.raspberrypi-bcm2712-rpi5_2/src/hardware/startup/boards/../../../../install/aarch64le/usr/lib\libstartup.a(load_ifs.o)
                0x0000000000006980                load_ifs
 *fill*         0x0000000000006af4        0xc 00000000
 .text          0x0000000000006b00       0x14 C:/Users/Dell/ide-8.0-workspace/hw.raspberrypi-bcm2712-rpi5_2/src/hardware/startup/boards/../../../../install/aarch64le/usr/lib\libstartup.a(map_callout_io.o)
                0x0000000000006b00                callout_io_map
 *fill*         0x0000000000006b14        0xc 00000000
 .text          0x0000000000006b20       0x14 C:/Users/Dell/ide-8.0-workspace/hw.raspberrypi-bcm2712-rpi5_2/src/hardware/startup/boards/../../../../install/aarch64le/usr/lib\libstartup.a(map_startup_mem.o)
                0x0000000000006b20                startup_memory_map
                0x0000000000006b30                startup_memory_unmap
 *fill*         0x0000000000006b34        0xc 00000000
 .text          0x0000000000006b40      0x190 C:/Users/Dell/ide-8.0-workspace/hw.raspberrypi-bcm2712-rpi5_2/src/hardware/startup/boards/../../../../install/aarch64le/usr/lib\libstartup.a(memcpy.o)
                0x0000000000006b40                memcpy
 .text          0x0000000000006cd0       0x98 C:/Users/Dell/ide-8.0-workspace/hw.raspberrypi-bcm2712-rpi5_2/src/hardware/startup/boards/../../../../install/aarch64le/usr/lib\libstartup.a(memfuncs.o)
                0x0000000000006cd0                copy_memory
 *fill*         0x0000000000006d68        0x8 00000000
 .text          0x0000000000006d70       0x50 C:/Users/Dell/ide-8.0-workspace/hw.raspberrypi-bcm2712-rpi5_2/src/hardware/startup/boards/../../../../install/aarch64le/usr/lib\libstartup.a(memmove.o)
                0x0000000000006d70                memmove
 .text          0x0000000000006dc0      0xcfc C:/Users/Dell/ide-8.0-workspace/hw.raspberrypi-bcm2712-rpi5_2/src/hardware/startup/boards/../../../../install/aarch64le/usr/lib\libstartup.a(print_sysp.o)
                0x00000000000078b0                print_syspage_enable
                0x0000000000007954                print_syspage_sections
 .text          0x0000000000007abc       0x10 C:/Users/Dell/ide-8.0-workspace/hw.raspberrypi-bcm2712-rpi5_2/src/hardware/startup/boards/../../../../install/aarch64le/usr/lib\libstartup.a(psci_call.o)
                0x0000000000007abc                psci_hvc
                0x0000000000007ac4                psci_smc
 *fill*         0x0000000000007acc        0x4 00000000
 .text          0x0000000000007ad0       0x64 C:/Users/Dell/ide-8.0-workspace/hw.raspberrypi-bcm2712-rpi5_2/src/hardware/startup/boards/../../../../install/aarch64le/usr/lib\libstartup.a(psci_smp.o)
                0x0000000000007ad0                psci_smp_start
 *fill*         0x0000000000007b34        0xc 00000000
 .text          0x0000000000007b40      0xb90 C:/Users/Dell/ide-8.0-workspace/hw.raspberrypi-bcm2712-rpi5_2/src/hardware/startup/boards/../../../../install/aarch64le/usr/lib\libstartup.a(ram.o)
                0x0000000000007c80                find_top_ram_aligned_limit
                0x0000000000007dc0                find_top_ram_aligned
                0x0000000000007dd0                find_top_ram
                0x0000000000007df0                find_ram_in_range
                0x0000000000007f20                find_ram
                0x0000000000007f40                alloc_ram
                0x00000000000081a0                calloc_ram
                0x0000000000008200                add_sysram
                0x0000000000008294                ws_alloc
                0x00000000000083c0                avoid_ram
                0x0000000000008454                add_ram
                0x00000000000085a0                watch_add_ram
                0x00000000000085e0                reserve_ram
 .text          0x00000000000086d0      0xcc8 C:/Users/Dell/ide-8.0-workspace/hw.raspberrypi-bcm2712-rpi5_2/src/hardware/startup/boards/../../../../install/aarch64le/usr/lib\libstartup.a(restore_ifs.o)
                0x00000000000087b0                rifs_restore_ifs2
                0x0000000000008970                rifs_load_ifs2
                0x0000000000008ad4                load_ifs2_nonbootable
                0x0000000000008b44                rifs_restore_ifs
                0x00000000000090c4                rifs_save_elf32data
                0x0000000000009334                rifs_set_cksum
 .text          0x0000000000009398       0x70 C:/Users/Dell/ide-8.0-workspace/hw.raspberrypi-bcm2712-rpi5_2/src/hardware/startup/boards/../../../../install/aarch64le/usr/lib\libstartup.a(smp_start.o)
                0x0000000000009398                smp_start
 *fill*         0x0000000000009408        0x8 00000000
 .text          0x0000000000009410       0x1c C:/Users/Dell/ide-8.0-workspace/hw.raspberrypi-bcm2712-rpi5_2/src/hardware/startup/boards/../../../../install/aarch64le/usr/lib\libstartup.a(ssp.o)
                0x0000000000009410                __ssp_fail
 *fill*         0x000000000000942c        0x4 00000000
 .text          0x0000000000009430       0x84 C:/Users/Dell/ide-8.0-workspace/hw.raspberrypi-bcm2712-rpi5_2/src/hardware/startup/boards/../../../../install/aarch64le/usr/lib\libstartup.a(startnext.o)
                0x0000000000009430                startnext
 *fill*         0x00000000000094b4        0xc 00000000
 .text          0x00000000000094c0      0x394 C:/Users/Dell/ide-8.0-workspace/hw.raspberrypi-bcm2712-rpi5_2/src/hardware/startup/boards/../../../../install/aarch64le/usr/lib\libstartup.a(strings.o)
                0x00000000000094c0                find_typed_string
                0x0000000000009544                del_typed_string
                0x0000000000009690                add_typed_string
                0x0000000000009770                add_string
 *fill*         0x0000000000009854        0xc 00000000
 .text          0x0000000000009860       0xf4 C:/Users/Dell/ide-8.0-workspace/hw.raspberrypi-bcm2712-rpi5_2/src/hardware/startup/boards/../../../../install/aarch64le/usr/lib\libstartup.a(strtoul.o)
                0x0000000000009860                strtopaddr
                0x0000000000009950                strtoul
 *fill*         0x0000000000009954        0xc 00000000
 .text          0x0000000000009960      0x580 C:/Users/Dell/ide-8.0-workspace/hw.raspberrypi-bcm2712-rpi5_2/src/hardware/startup/boards/../../../../install/aarch64le/usr/lib\libstartup.a(syspage_memory.o)
                0x0000000000009960                grow_syspage_section
                0x0000000000009a60                set_syspage_section
                0x0000000000009a90                init_syspage_memory
                0x0000000000009b80                reloc_syspage_memory
                0x0000000000009bf4                alloc_syspage_memory
                0x0000000000009ea0                write_syspage_memory
 .text          0x0000000000009ee0        0x4 C:/Users/Dell/ide-8.0-workspace/hw.raspberrypi-bcm2712-rpi5_2/src/hardware/startup/boards/../../../../install/aarch64le/usr/lib\libstartup.a(tweak_cmdline.o)
                0x0000000000009ee0                tweak_cmdline
 *fill*         0x0000000000009ee4        0xc 00000000
 .text          0x0000000000009ef0       0x88 C:/Users/Dell/ide-8.0-workspace/hw.raspberrypi-bcm2712-rpi5_2/src/hardware/startup/boards/../../../../install/aarch64le/usr/lib\libstartup.a(uncompress.o)
                0x0000000000009ef0                uncompress
 *fill*         0x0000000000009f78        0x8 00000000
 .text          0x0000000000009f80       0xb4 C:/Users/Dell/ide-8.0-workspace/hw.raspberrypi-bcm2712-rpi5_2/src/hardware/startup/boards/../../../../install/aarch64le/usr/lib\libstartup.a(uncompress_ucl.o)
                0x0000000000009f80                uncompress_ucl
 *fill*         0x000000000000a034      0x7cc 00000000
 .text          0x000000000000a800      0x784 C:/Users/Dell/ide-8.0-workspace/hw.raspberrypi-bcm2712-rpi5_2/src/hardware/startup/boards/../../../../install/aarch64le/usr/lib\libstartup.a(vbar_default.o)
                0x000000000000a800                vbar_default
 .text          0x000000000000af84      0x164 C:/Users/Dell/ide-8.0-workspace/hw.raspberrypi-bcm2712-rpi5_2/src/hardware/startup/boards/../../../../install/aarch64le/usr/lib\libstartup.a(_start_el1.o)
                0x000000000000af84                _start_el2_or_el1
                0x000000000000b080                drop_to_el1
                0x000000000000b098                _start_el1
 .text          0x000000000000b0e8       0x90 C:/Users/Dell/ide-8.0-workspace/hw.raspberrypi-bcm2712-rpi5_2/src/hardware/startup/boards/../../../../install/aarch64le/usr/lib\libstartup.a(aarch64_cache_flush.o)
                0x000000000000b0e8                aarch64_cache_flush
 .text          0x000000000000b178        0x0 C:/Users/Dell/ide-8.0-workspace/hw.raspberrypi-bcm2712-rpi5_2/src/hardware/startup/boards/../../../../install/aarch64le/usr/lib\libstartup.a(aarch64_cpuid.o)
 *fill*         0x000000000000b178        0x8 00000000
 .text          0x000000000000b180        0x8 C:/Users/Dell/ide-8.0-workspace/hw.raspberrypi-bcm2712-rpi5_2/src/hardware/startup/boards/../../../../install/aarch64le/usr/lib\libstartup.a(aarch64_cpuspeed.o)
                0x000000000000b180                aarch64_cpuspeed
 *fill*         0x000000000000b188        0x8 00000000
 .text          0x000000000000b190      0x6d4 C:/Users/Dell/ide-8.0-workspace/hw.raspberrypi-bcm2712-rpi5_2/src/hardware/startup/boards/../../../../install/aarch64le/usr/lib\libstartup.a(aarch64_map.o)
                0x000000000000b5d0                aarch64_map_init
                0x000000000000b6f0                aarch64_map
                0x000000000000b710                elf_vaddr_to_paddr
 *fill*         0x000000000000b864        0xc 00000000
 .text          0x000000000000b870      0x19c C:/Users/Dell/ide-8.0-workspace/hw.raspberrypi-bcm2712-rpi5_2/src/hardware/startup/boards/../../../../install/aarch64le/usr/lib\libstartup.a(add_cache.o)
                0x000000000000b8e0                add_cache_ways
                0x000000000000ba00                add_cache
 *fill*         0x000000000000ba0c        0x4 00000000
 .text          0x000000000000ba10      0x21c C:/Users/Dell/ide-8.0-workspace/hw.raspberrypi-bcm2712-rpi5_2/src/hardware/startup/boards/../../../../install/aarch64le/usr/lib\libstartup.a(add_interrupt.o)
                0x000000000000bac0                add_interrupt
                0x000000000000bbc0                add_interrupt_array
 *fill*         0x000000000000bc2c        0x4 00000000
 .text          0x000000000000bc30       0x88 C:/Users/Dell/ide-8.0-workspace/hw.raspberrypi-bcm2712-rpi5_2/src/hardware/startup/boards/../../../../install/aarch64le/usr/lib\libstartup.a(alloc_qtime.o)
                0x000000000000bc30                alloc_qtime
 *fill*         0x000000000000bcb8        0x8 00000000
 .text          0x000000000000bcc0       0x14 C:/Users/Dell/ide-8.0-workspace/hw.raspberrypi-bcm2712-rpi5_2/src/hardware/startup/boards/../../../../install/aarch64le/usr/lib\libstartup.a(ap_fail.o)
                0x000000000000bcc0                ap_fail
 *fill*         0x000000000000bcd4        0xc 00000000
 .text          0x000000000000bce0        0x4 C:/Users/Dell/ide-8.0-workspace/hw.raspberrypi-bcm2712-rpi5_2/src/hardware/startup/boards/../../../../install/aarch64le/usr/lib\libstartup.a(as_add.o)
                0x000000000000bce0                as_add
 *fill*         0x000000000000bce4        0xc 00000000
 .text          0x000000000000bcf0       0xd4 C:/Users/Dell/ide-8.0-workspace/hw.raspberrypi-bcm2712-rpi5_2/src/hardware/startup/boards/../../../../install/aarch64le/usr/lib\libstartup.a(as_add64.o)
                0x000000000000bcf0                as_add64
 *fill*         0x000000000000bdc4        0xc 00000000
 .text          0x000000000000bdd0       0x38 C:/Users/Dell/ide-8.0-workspace/hw.raspberrypi-bcm2712-rpi5_2/src/hardware/startup/boards/../../../../install/aarch64le/usr/lib\libstartup.a(as_default.o)
                0x000000000000bdd0                as_default
 *fill*         0x000000000000be08        0x8 00000000
 .text          0x000000000000be10      0x1c4 C:/Users/Dell/ide-8.0-workspace/hw.raspberrypi-bcm2712-rpi5_2/src/hardware/startup/boards/../../../../install/aarch64le/usr/lib\libstartup.a(as_find.o)
                0x000000000000be10                as_find
 *fill*         0x000000000000bfd4        0xc 00000000
 .text          0x000000000000bfe0       0x48 C:/Users/Dell/ide-8.0-workspace/hw.raspberrypi-bcm2712-rpi5_2/src/hardware/startup/boards/../../../../install/aarch64le/usr/lib\libstartup.a(board_sysctl.o)
                0x000000000000bfe0                board_mmu_enable
                0x000000000000bfe4                board_mmu_disable
                0x000000000000bff0                board_alignment_check_enable
                0x000000000000bff4                board_alignment_check_disable
                0x000000000000c000                board_dcache_enable
                0x000000000000c004                board_dcache_disable
                0x000000000000c010                board_icache_enable
                0x000000000000c014                board_icache_disable
                0x000000000000c020                board_enable_caches
                0x000000000000c024                board_disable_caches
 .text          0x000000000000c028        0x0 C:/Users/Dell/ide-8.0-workspace/hw.raspberrypi-bcm2712-rpi5_2/src/hardware/startup/boards/../../../../install/aarch64le/usr/lib\libstartup.a(boot_regs.o)
 .text          0x000000000000c028       0xd4 C:/Users/Dell/ide-8.0-workspace/hw.raspberrypi-bcm2712-rpi5_2/src/hardware/startup/boards/../../../../install/aarch64le/usr/lib\libstartup.a(callout_cache_armv8.o)
                0x000000000000c028                cache_armv8_icache
                0x000000000000c090                cache_armv8_dcache
 *fill*         0x000000000000c0fc        0x4 00000000
 .text          0x000000000000c100      0x234 C:/Users/Dell/ide-8.0-workspace/hw.raspberrypi-bcm2712-rpi5_2/src/hardware/startup/boards/../../../../install/aarch64le/usr/lib\libstartup.a(callout_interrupt_gic_v2.o)
                0x000000000000c150                interrupt_id_gic_v2_ppi
                0x000000000000c198                interrupt_id_gic_v2_spi
                0x000000000000c1c0                interrupt_eoi_gic_v2
                0x000000000000c1f0                interrupt_mask_gic_v2_ppi
                0x000000000000c238                interrupt_unmask_gic_v2_ppi
                0x000000000000c280                interrupt_mask_gic_v2_spi
                0x000000000000c2c8                interrupt_unmask_gic_v2_spi
                0x000000000000c310                interrupt_config_gic_v2_ppi
 *fill*         0x000000000000c334        0x4 00000000
 .text          0x000000000000c338       0x68 C:/Users/Dell/ide-8.0-workspace/hw.raspberrypi-bcm2712-rpi5_2/src/hardware/startup/boards/../../../../install/aarch64le/usr/lib\libstartup.a(callout_smp_spin.o)
                0x000000000000c338                smp_spin
 .text          0x000000000000c3a0       0x74 C:/Users/Dell/ide-8.0-workspace/hw.raspberrypi-bcm2712-rpi5_2/src/hardware/startup/boards/../../../../install/aarch64le/usr/lib\libstartup.a(cpu_startnext.o)
                0x000000000000c3a0                cpu_startnext
 *fill*         0x000000000000c414        0xc 00000000
 .text          0x000000000000c420      0x154 C:/Users/Dell/ide-8.0-workspace/hw.raspberrypi-bcm2712-rpi5_2/src/hardware/startup/boards/../../../../install/aarch64le/usr/lib\libstartup.a(cpu_syspage_memory.o)
                0x000000000000c420                cpu_init_syspage_memory
                0x000000000000c430                cpu_alloc_syspage_memory
                0x000000000000c564                cpu_write_syspage_memory
                0x000000000000c570                cpu_syspage_remap
 .text          0x000000000000c574        0x0 C:/Users/Dell/ide-8.0-workspace/hw.raspberrypi-bcm2712-rpi5_2/src/hardware/startup/boards/../../../../install/aarch64le/usr/lib\libstartup.a(cpuid_a35.o)
 .text          0x000000000000c574        0x0 C:/Users/Dell/ide-8.0-workspace/hw.raspberrypi-bcm2712-rpi5_2/src/hardware/startup/boards/../../../../install/aarch64le/usr/lib\libstartup.a(cpuid_a53.o)
 .text          0x000000000000c574        0x0 C:/Users/Dell/ide-8.0-workspace/hw.raspberrypi-bcm2712-rpi5_2/src/hardware/startup/boards/../../../../install/aarch64le/usr/lib\libstartup.a(cpuid_a55.o)
 .text          0x000000000000c574        0x0 C:/Users/Dell/ide-8.0-workspace/hw.raspberrypi-bcm2712-rpi5_2/src/hardware/startup/boards/../../../../install/aarch64le/usr/lib\libstartup.a(cpuid_a57.o)
 .text          0x000000000000c574        0x0 C:/Users/Dell/ide-8.0-workspace/hw.raspberrypi-bcm2712-rpi5_2/src/hardware/startup/boards/../../../../install/aarch64le/usr/lib\libstartup.a(cpuid_a72.o)
 .text          0x000000000000c574        0x0 C:/Users/Dell/ide-8.0-workspace/hw.raspberrypi-bcm2712-rpi5_2/src/hardware/startup/boards/../../../../install/aarch64le/usr/lib\libstartup.a(cpuid_a720.o)
 .text          0x000000000000c574        0x0 C:/Users/Dell/ide-8.0-workspace/hw.raspberrypi-bcm2712-rpi5_2/src/hardware/startup/boards/../../../../install/aarch64le/usr/lib\libstartup.a(cpuid_a720ae.o)
 *fill*         0x000000000000c574        0xc 00000000
 .text          0x000000000000c580        0x4 C:/Users/Dell/ide-8.0-workspace/hw.raspberrypi-bcm2712-rpi5_2/src/hardware/startup/boards/../../../../install/aarch64le/usr/lib\libstartup.a(cpuid_a75.o)
 *fill*         0x000000000000c584        0xc 00000000
 .text          0x000000000000c590        0x4 C:/Users/Dell/ide-8.0-workspace/hw.raspberrypi-bcm2712-rpi5_2/src/hardware/startup/boards/../../../../install/aarch64le/usr/lib\libstartup.a(cpuid_a76.o)
 .text          0x000000000000c594        0x0 C:/Users/Dell/ide-8.0-workspace/hw.raspberrypi-bcm2712-rpi5_2/src/hardware/startup/boards/../../../../install/aarch64le/usr/lib\libstartup.a(cpuid_a78ae.o)
 .text          0x000000000000c594        0x0 C:/Users/Dell/ide-8.0-workspace/hw.raspberrypi-bcm2712-rpi5_2/src/hardware/startup/boards/../../../../install/aarch64le/usr/lib\libstartup.a(cpuid_d15.o)
 *fill*         0x000000000000c594        0xc 00000000
 .text          0x000000000000c5a0       0x10 C:/Users/Dell/ide-8.0-workspace/hw.raspberrypi-bcm2712-rpi5_2/src/hardware/startup/boards/../../../../install/aarch64le/usr/lib\libstartup.a(cpuid_d20.o)
 .text          0x000000000000c5b0        0x0 C:/Users/Dell/ide-8.0-workspace/hw.raspberrypi-bcm2712-rpi5_2/src/hardware/startup/boards/../../../../install/aarch64le/usr/lib\libstartup.a(cpuid_n1.o)
 .text          0x000000000000c5b0        0x0 C:/Users/Dell/ide-8.0-workspace/hw.raspberrypi-bcm2712-rpi5_2/src/hardware/startup/boards/../../../../install/aarch64le/usr/lib\libstartup.a(cpuid_neo_v1.o)
 .text          0x000000000000c5b0        0x0 C:/Users/Dell/ide-8.0-workspace/hw.raspberrypi-bcm2712-rpi5_2/src/hardware/startup/boards/../../../../install/aarch64le/usr/lib\libstartup.a(cpuid_neo_v2.o)
 .text          0x000000000000c5b0        0x0 C:/Users/Dell/ide-8.0-workspace/hw.raspberrypi-bcm2712-rpi5_2/src/hardware/startup/boards/../../../../install/aarch64le/usr/lib\libstartup.a(cpuid_v8_aem.o)
 .text          0x000000000000c5b0        0x0 C:/Users/Dell/ide-8.0-workspace/hw.raspberrypi-bcm2712-rpi5_2/src/hardware/startup/boards/../../../../install/aarch64le/usr/lib\libstartup.a(cpuid_v8_fm.o)
 .text          0x000000000000c5b0        0x0 C:/Users/Dell/ide-8.0-workspace/hw.raspberrypi-bcm2712-rpi5_2/src/hardware/startup/boards/../../../../install/aarch64le/usr/lib\libstartup.a(cpuid_x2.o)
 .text          0x000000000000c5b0        0x0 C:/Users/Dell/ide-8.0-workspace/hw.raspberrypi-bcm2712-rpi5_2/src/hardware/startup/boards/../../../../install/aarch64le/usr/lib\libstartup.a(cpuid_x4.o)
 .text          0x000000000000c5b0        0x0 C:/Users/Dell/ide-8.0-workspace/hw.raspberrypi-bcm2712-rpi5_2/src/hardware/startup/boards/../../../../install/aarch64le/usr/lib\libstartup.a(cpuid_x925.o)
 .text          0x000000000000c5b0        0x8 C:/Users/Dell/ide-8.0-workspace/hw.raspberrypi-bcm2712-rpi5_2/src/hardware/startup/boards/../../../../install/aarch64le/usr/lib\libstartup.a(crash_done.o)
                0x000000000000c5b0                crash_done
 *fill*         0x000000000000c5b8        0x8 00000000
 .text          0x000000000000c5c0        0x4 C:/Users/Dell/ide-8.0-workspace/hw.raspberrypi-bcm2712-rpi5_2/src/hardware/startup/boards/../../../../install/aarch64le/usr/lib\libstartup.a(dummy_print_char.o)
                0x000000000000c5c0                dummy_print_char
 *fill*         0x000000000000c5c4        0xc 00000000
 .text          0x000000000000c5d0      0x1d0 C:/Users/Dell/ide-8.0-workspace/hw.raspberrypi-bcm2712-rpi5_2/src/hardware/startup/boards/../../../../install/aarch64le/usr/lib\libstartup.a(elf.o)
                0x000000000000c5d0                is_elf64
                0x000000000000c680                is_elf32
                0x000000000000c724                is_elf
                0x000000000000c760                load_elf
 .text          0x000000000000c7a0      0x36c C:/Users/Dell/ide-8.0-workspace/hw.raspberrypi-bcm2712-rpi5_2/src/hardware/startup/boards/../../../../install/aarch64le/usr/lib\libstartup.a(elf32.o)
                0x000000000000c7a0                load_elf32
 *fill*         0x000000000000cb0c        0x4 00000000
 .text          0x000000000000cb10      0x358 C:/Users/Dell/ide-8.0-workspace/hw.raspberrypi-bcm2712-rpi5_2/src/hardware/startup/boards/../../../../install/aarch64le/usr/lib\libstartup.a(elf64.o)
                0x000000000000cb10                load_elf64
 *fill*         0x000000000000ce68        0x8 00000000
 .text          0x000000000000ce70       0x24 C:/Users/Dell/ide-8.0-workspace/hw.raspberrypi-bcm2712-rpi5_2/src/hardware/startup/boards/../../../../install/aarch64le/usr/lib\libstartup.a(elf_map.o)
                0x000000000000ce70                elf_map
 *fill*         0x000000000000ce94        0xc 00000000
 .text          0x000000000000cea0       0xec C:/Users/Dell/ide-8.0-workspace/hw.raspberrypi-bcm2712-rpi5_2/src/hardware/startup/boards/../../../../install/aarch64le/usr/lib\libstartup.a(hwi_add_device.o)
                0x000000000000cea0                hwi_add_device
 *fill*         0x000000000000cf8c        0x4 00000000
 .text          0x000000000000cf90       0x4c C:/Users/Dell/ide-8.0-workspace/hw.raspberrypi-bcm2712-rpi5_2/src/hardware/startup/boards/../../../../install/aarch64le/usr/lib\libstartup.a(hwi_default.o)
                0x000000000000cf90                hwi_default
 *fill*         0x000000000000cfdc        0x4 00000000
 .text          0x000000000000cfe0      0x1d0 C:/Users/Dell/ide-8.0-workspace/hw.raspberrypi-bcm2712-rpi5_2/src/hardware/startup/boards/../../../../install/aarch64le/usr/lib\libstartup.a(hypervisor.o)
                0x000000000000cfe0                arch_hypervisor_validate_flags
                0x000000000000d070                arch_hypervisor_init
                0x000000000000d1a0                arch_hypervisor_syspage_init
 .text          0x000000000000d1b0       0x30 C:/Users/Dell/ide-8.0-workspace/hw.raspberrypi-bcm2712-rpi5_2/src/hardware/startup/boards/../../../../install/aarch64le/usr/lib\libstartup.a(hypervisor_enable.o)
                0x000000000000d1b0                hyp_enable_el2_host
                0x000000000000d1cc                hyp_enable_el1_host
 .text          0x000000000000d1e0       0xa0 C:/Users/Dell/ide-8.0-workspace/hw.raspberrypi-bcm2712-rpi5_2/src/hardware/startup/boards/../../../../install/aarch64le/usr/lib\libstartup.a(init_mitigation_mem.o)
                0x000000000000d1e0                init_mitigation_mem
 .text          0x000000000000d280        0x8 C:/Users/Dell/ide-8.0-workspace/hw.raspberrypi-bcm2712-rpi5_2/src/hardware/startup/boards/../../../../install/aarch64le/usr/lib\libstartup.a(rtc_time.o)
                0x000000000000d280                rtc_time
 *fill*         0x000000000000d288        0x8 00000000
 .text          0x000000000000d290       0x40 C:/Users/Dell/ide-8.0-workspace/hw.raspberrypi-bcm2712-rpi5_2/src/hardware/startup/boards/../../../../install/aarch64le/usr/lib\libstartup.a(startup_info.o)
                0x000000000000d290                find_startup_info
 .text          0x000000000000d2d0       0x5c C:/Users/Dell/ide-8.0-workspace/hw.raspberrypi-bcm2712-rpi5_2/src/hardware/startup/boards/../../../../install/aarch64le/usr/lib\libstartup.a(vstart.o)
                0x000000000000d2d0                vstart
 *fill*         0x000000000000d32c        0x4 00000000
 .text          0x000000000000d330      0x798 C:/Users/Dell/qnx800/target/qnx/aarch64le/usr/lib\libucl.a(n2b_d.o)
                0x000000000000d330                ucl_nrv2b_decompress_8
                0x000000000000d540                ucl_nrv2b_decompress_le16
                0x000000000000d7b0                ucl_nrv2b_decompress_le32
 *fill*         0x000000000000dac8        0x8 00000000
 .text          0x000000000000dad0       0xf4 C:/Users/Dell/qnx800/target/qnx/aarch64le/usr/lib\libdrvr.a(hwi_find_unit.o)
                0x000000000000dad0                hwi_find_unit
 *fill*         0x000000000000dbc4        0xc 00000000
 .text          0x000000000000dbd0       0xfc C:/Users/Dell/qnx800/target/qnx/aarch64le/usr/lib\libdrvr.a(hwi_tag_find.o)
                0x000000000000dbd0                hwi_tag_find
 *fill*         0x000000000000dccc        0x4 00000000
 .text          0x000000000000dcd0       0x64 C:/Users/Dell/qnx800/target/qnx/aarch64le/usr/lib\libdrvr.a(hwi_find_bus.o)
                0x000000000000dcd0                hwi_find_bus
 *fill*         0x000000000000dd34        0xc 00000000
 .text          0x000000000000dd40       0x64 C:/Users/Dell/qnx800/target/qnx/aarch64le/usr/lib\libdrvr.a(hwi_find_device.o)
                0x000000000000dd40                hwi_find_device
 *fill*         0x000000000000dda4        0xc 00000000
 .text          0x000000000000ddb0       0xfc C:/Users/Dell/qnx800/target/qnx/aarch64le/usr/lib\libdrvr.a(hwi_find.o)
                0x000000000000ddb0                hwi_find
 *fill*         0x000000000000deac        0x4 00000000
 .text          0x000000000000deb0      0x78c C:/Users/Dell/qnx800/target/qnx/aarch64le/usr/lib\libfdt.a(fdt.o)
                0x000000000000deb0                fdt_ro_probe_
                0x000000000000df40                fdt_header_size_
                0x000000000000df70                fdt_header_size
                0x000000000000dfb0                fdt_check_header
                0x000000000000e0e4                fdt_offset_ptr
                0x000000000000e160                fdt_next_tag
                0x000000000000e2b4                fdt_check_node_offset_
                0x000000000000e2f4                fdt_check_prop_offset_
                0x000000000000e334                fdt_next_node
                0x000000000000e460                fdt_first_subnode
                0x000000000000e4d0                fdt_next_subnode
                0x000000000000e560                fdt_find_string_
                0x000000000000e5e4                fdt_move
 *fill*         0x000000000000e63c        0x4 00000000
 .text          0x000000000000e640     0x1a1c C:/Users/Dell/qnx800/target/qnx/aarch64le/usr/lib\libfdt.a(fdt_ro.o)
                0x000000000000e6e4                fdt_get_string
                0x000000000000e9d4                fdt_string
                0x000000000000e9e0                fdt_get_mem_rsv
                0x000000000000ea50                fdt_num_mem_rsv
                0x000000000000ea90                fdt_get_name
                0x000000000000eb50                fdt_subnode_offset_namelen
                0x000000000000eca0                fdt_subnode_offset
                0x000000000000ece4                fdt_first_property_offset
                0x000000000000eda0                fdt_next_property_offset
                0x000000000000ee60                fdt_get_property_by_offset
                0x000000000000ee90                fdt_get_property_namelen
                0x000000000000eec0                fdt_get_property
                0x000000000000ef40                fdt_getprop_namelen
                0x000000000000efe0                fdt_path_offset_namelen
                0x000000000000f140                fdt_path_offset
                0x000000000000f174                fdt_getprop_by_offset
                0x000000000000f260                fdt_getprop
                0x000000000000f2b0                fdt_get_phandle
                0x000000000000f380                fdt_find_max_phandle
                0x000000000000f400                fdt_generate_phandle
                0x000000000000f490                fdt_get_alias_namelen
                0x000000000000f500                fdt_get_alias
                0x000000000000f574                fdt_get_path
                0x000000000000f730                fdt_supernode_atdepth_offset
                0x000000000000f840                fdt_node_depth
                0x000000000000f8a4                fdt_parent_offset
                0x000000000000f954                fdt_node_offset_by_prop_value
                0x000000000000fa60                fdt_node_offset_by_phandle
                0x000000000000faf0                fdt_stringlist_contains
                0x000000000000fbb0                fdt_stringlist_count
                0x000000000000fc90                fdt_stringlist_search
                0x000000000000fdc0                fdt_stringlist_get
                0x000000000000fee0                fdt_node_check_compatible
                0x000000000000ff64                fdt_node_offset_by_compatible
 *fill*         0x000000000001005c        0x4 00000000
 .text          0x0000000000010060      0x1a8 C:/Users/Dell/qnx800/target/qnx/aarch64le/lib\libc.a(hwi_find_item.o)
                0x0000000000010060                hwi_find_item
 *fill*         0x0000000000010208        0x8 00000000
 .text          0x0000000000010210       0x80 C:/Users/Dell/qnx800/target/qnx/aarch64le/lib\libc.a(hwi_next_tag.o)
                0x0000000000010210                hwi_next_tag
 .text          0x0000000000010290       0x24 C:/Users/Dell/qnx800/target/qnx/aarch64le/lib\libc.a(hwi_off2tag.o)
                0x0000000000010290                hwi_off2tag
 *fill*         0x00000000000102b4        0xc 00000000
 .text          0x00000000000102c0       0x24 C:/Users/Dell/qnx800/target/qnx/aarch64le/lib\libc.a(hwi_tag2off.o)
                0x00000000000102c0                hwi_tag2off
 *fill*         0x00000000000102e4        0xc 00000000
 .text          0x00000000000102f0       0x34 C:/Users/Dell/qnx800/target/qnx/aarch64le/lib\libc.a(memchr.o)
                0x00000000000102f0                memchr
                0x00000000000102f0                __memchr_isr
 *fill*         0x0000000000010324       0x1c 00000000
 .text          0x0000000000010340      0x180 C:/Users/Dell/qnx800/target/qnx/aarch64le/lib\libc.a(memcmp.o)
                0x0000000000010340                memcmp
                0x0000000000010340                __memcmp_isr
 .text          0x00000000000104c0       0xa0 C:/Users/Dell/qnx800/target/qnx/aarch64le/lib\libc.a(memset.o)
                0x00000000000104c0                memset
                0x00000000000104c0                __memset_isr
 .text          0x0000000000010560       0x2c C:/Users/Dell/qnx800/target/qnx/aarch64le/lib\libc.a(strchr.o)
                0x0000000000010560                strchr
                0x0000000000010560                __strchr_isr
 *fill*         0x000000000001058c       0x34 00000000
 .text          0x00000000000105c0       0xa4 C:/Users/Dell/qnx800/target/qnx/aarch64le/lib\libc.a(strcmp.o)
                0x00000000000105c0                strcmp
                0x00000000000105c0                __strcmp_isr
 *fill*         0x0000000000010664        0xc 00000000
 .text          0x0000000000010670       0x54 C:/Users/Dell/qnx800/target/qnx/aarch64le/lib\libc.a(strlcpy.o)
                0x0000000000010670                strlcpy
 *fill*         0x00000000000106c4       0x3c 00000000
 .text          0x0000000000010700      0x1a0 C:/Users/Dell/qnx800/target/qnx/aarch64le/lib\libc.a(strlen.o)
                0x0000000000010700                strlen
                0x0000000000010700                __strlen_isr
 .text          0x00000000000108a0       0x30 C:/Users/Dell/qnx800/target/qnx/aarch64le/lib\libc.a(strnlen.o)
                0x00000000000108a0                strnlen
 .text          0x00000000000108d0       0x28 C:/Users/Dell/qnx800/target/qnx/aarch64le/lib\libc.a(strrchr.o)
                0x00000000000108d0                strrchr
 *fill*         0x00000000000108f8        0x8 00000000
 .text          0x0000000000010900      0x174 C:/Users/Dell/qnx800/target/qnx/aarch64le/lib\libc.a(strstr.o)
                0x0000000000010900                strstr
                0x0000000000010990                strcasestr
 *fill*         0x0000000000010a74        0xc 00000000
 .text          0x0000000000010a80       0x44 C:/Users/Dell/qnx800/target/qnx/aarch64le/lib\libc.a(__progname.o)
                0x0000000000010a80                getprogname
                0x0000000000010a90                setprogname
 *fill*         0x0000000000010ac4        0xc 00000000
 .text          0x0000000000010ad0       0xa4 C:/Users/Dell/qnx800/target/qnx/aarch64le/lib\libc.a(_ssp.o)
                0x0000000000010ad0                __fortify_fail_extra_arg
                0x0000000000010ae4                __fortify_fail_fmt_n
                0x0000000000010b00                __fortify_fail_missing_arg
                0x0000000000010b14                __fortify_fail_overflow_dst
                0x0000000000010b30                __chk_fail
                0x0000000000010b44                __longjmp_chk_fail
                0x0000000000010b60                __stack_chk_fail
 .text          0x0000000000010b74        0x0 C:/Users/Dell/qnx800/target/qnx/aarch64le/lib\libc.a(__stack_chk_guard.o)
 *fill*         0x0000000000010b74        0xc 00000000
 .text          0x0000000000010b80      0x104 C:/Users/Dell/qnx800/target/qnx/aarch64le/lib\libc.a(getsubopt.o)
                0x0000000000010b80                getsubopt
 *fill*         0x0000000000010c84        0xc 00000000
 .text          0x0000000000010c90       0x34 C:/Users/Dell/qnx800/target/qnx/aarch64le/lib\libc.a(xtolotab.o)
                0x0000000000010c90                _Getptolower
 *fill*         0x0000000000010cc4        0xc 00000000
 .text          0x0000000000010cd0       0x84 C:/Users/Dell/qnx800/target/qnx/aarch64le/lib\libc.a(strncasecmp.o)
                0x0000000000010cd0                strncasecmp
 *fill*         0x0000000000010d54        0xc 00000000
 .text          0x0000000000010d60       0x40 C:/Users/Dell/qnx800/target/qnx/aarch64le/lib\libc.a(strncmp.o)
                0x0000000000010d60                strncmp
 *(.gnu.warning)

.text.startup   0x0000000000000000      0x400
 .text.startup  0x0000000000000000      0x400 main.o
                0x0000000000000000                main

.text.unlikely  0x0000000000000000       0x10
 .text.unlikely
                0x0000000000000000       0x10 C:/Users/Dell/ide-8.0-workspace/hw.raspberrypi-bcm2712-rpi5_2/src/hardware/startup/boards/../../../../install/aarch64le/usr/lib\libstartup.a(_main.o)
                0x0000000000000000                abort

.fini
 *(SORT_NONE(.fini))

.rodata         0x0000000000000000      0x660
 *(.rodata)
 .rodata        0x0000000000000000       0x20 board_smp.o
 .rodata        0x0000000000000020      0x1c0 init_aon_gpio.o
 .rodata        0x00000000000001e0       0x48 init_hwinfo.o
 .rodata        0x0000000000000228       0x12 C:/Users/Dell/ide-8.0-workspace/hw.raspberrypi-bcm2712-rpi5_2/src/hardware/startup/boards/../../../../install/aarch64le/usr/lib\libstartup.a(as_add_containing.o)
 *fill*         0x000000000000023a        0x2 
 .rodata        0x000000000000023c       0x6c C:/Users/Dell/ide-8.0-workspace/hw.raspberrypi-bcm2712-rpi5_2/src/hardware/startup/boards/../../../../install/aarch64le/usr/lib\libstartup.a(common_options.o)
 .rodata        0x00000000000002a8       0x1a C:/Users/Dell/ide-8.0-workspace/hw.raspberrypi-bcm2712-rpi5_2/src/hardware/startup/boards/../../../../install/aarch64le/usr/lib\libstartup.a(gic_v2.o)
 *fill*         0x00000000000002c2        0x6 
 .rodata        0x00000000000002c8       0x20 C:/Users/Dell/ide-8.0-workspace/hw.raspberrypi-bcm2712-rpi5_2/src/hardware/startup/boards/../../../../install/aarch64le/usr/lib\libstartup.a(init_cpuinfo.o)
 .rodata        0x00000000000002e8       0x1c C:/Users/Dell/ide-8.0-workspace/hw.raspberrypi-bcm2712-rpi5_2/src/hardware/startup/boards/../../../../install/aarch64le/usr/lib\libstartup.a(init_mmu.o)
 *fill*         0x0000000000000304        0x4 
 .rodata        0x0000000000000308       0x11 C:/Users/Dell/ide-8.0-workspace/hw.raspberrypi-bcm2712-rpi5_2/src/hardware/startup/boards/../../../../install/aarch64le/usr/lib\libstartup.a(kprintf.o)
 *fill*         0x0000000000000319        0x3 
 .rodata        0x000000000000031c        0xf C:/Users/Dell/ide-8.0-workspace/hw.raspberrypi-bcm2712-rpi5_2/src/hardware/startup/boards/../../../../install/aarch64le/usr/lib\libstartup.a(memcpy.o)
 *fill*         0x000000000000032b        0x5 
 .rodata        0x0000000000000330        0x5 C:/Users/Dell/ide-8.0-workspace/hw.raspberrypi-bcm2712-rpi5_2/src/hardware/startup/boards/../../../../install/aarch64le/usr/lib\libstartup.a(add_interrupt.o)
 *fill*         0x0000000000000335        0x3 
 .rodata        0x0000000000000338       0x20 C:/Users/Dell/ide-8.0-workspace/hw.raspberrypi-bcm2712-rpi5_2/src/hardware/startup/boards/../../../../install/aarch64le/usr/lib\libstartup.a(as_default.o)
 .rodata        0x0000000000000358        0x8 C:/Users/Dell/ide-8.0-workspace/hw.raspberrypi-bcm2712-rpi5_2/src/hardware/startup/boards/../../../../install/aarch64le/usr/lib\libstartup.a(as_find.o)
 .rodata        0x0000000000000360      0x300 C:/Users/Dell/qnx800/target/qnx/aarch64le/lib\libc.a(xtolotab.o)

.rodata.str1.8  0x0000000000000000     0x2b68
 .rodata.str1.8
                0x0000000000000000       0x82 bcm2712_init_raminfo.o
 *fill*         0x0000000000000082        0x6 
 .rodata.str1.8
                0x0000000000000088        0xe board_smp.o
 *fill*         0x0000000000000096        0x2 
 .rodata.str1.8
                0x0000000000000098      0x6a3 init_aon_gpio.o
 *fill*         0x000000000000073b        0x5 
 .rodata.str1.8
                0x0000000000000740      0x1f3 init_board_type.o
 *fill*         0x0000000000000933        0x5 
 .rodata.str1.8
                0x0000000000000938      0x27d init_hwinfo.o
 *fill*         0x0000000000000bb5        0x3 
 .rodata.str1.8
                0x0000000000000bb8       0x64 init_wdt.o
 *fill*         0x0000000000000c1c        0x4 
 .rodata.str1.8
                0x0000000000000c20       0xee main.o
 *fill*         0x0000000000000d0e        0x2 
 .rodata.str1.8
                0x0000000000000d10       0x26 C:/Users/Dell/ide-8.0-workspace/hw.raspberrypi-bcm2712-rpi5_2/src/hardware/startup/boards/../../../../install/aarch64le/usr/lib\libstartup.a(_main.o)
 *fill*         0x0000000000000d36        0x2 
 .rodata.str1.8
                0x0000000000000d38       0x16 C:/Users/Dell/ide-8.0-workspace/hw.raspberrypi-bcm2712-rpi5_2/src/hardware/startup/boards/../../../../install/aarch64le/usr/lib\libstartup.a(as_add_containing.o)
 *fill*         0x0000000000000d4e        0x2 
 .rodata.str1.8
                0x0000000000000d50       0x2e C:/Users/Dell/ide-8.0-workspace/hw.raspberrypi-bcm2712-rpi5_2/src/hardware/startup/boards/../../../../install/aarch64le/usr/lib\libstartup.a(callouts.o)
 *fill*         0x0000000000000d7e        0x2 
 .rodata.str1.8
                0x0000000000000d80       0x29 C:/Users/Dell/ide-8.0-workspace/hw.raspberrypi-bcm2712-rpi5_2/src/hardware/startup/boards/../../../../install/aarch64le/usr/lib\libstartup.a(common_options.o)
 *fill*         0x0000000000000da9        0x7 
 .rodata.str1.8
                0x0000000000000db0       0xce C:/Users/Dell/ide-8.0-workspace/hw.raspberrypi-bcm2712-rpi5_2/src/hardware/startup/boards/../../../../install/aarch64le/usr/lib\libstartup.a(cpu_common_options.o)
 *fill*         0x0000000000000e7e        0x2 
 .rodata.str1.8
                0x0000000000000e80        0x3 C:/Users/Dell/ide-8.0-workspace/hw.raspberrypi-bcm2712-rpi5_2/src/hardware/startup/boards/../../../../install/aarch64le/usr/lib\libstartup.a(debug.o)
 *fill*         0x0000000000000e83        0x5 
 .rodata.str1.8
                0x0000000000000e88       0xe1 C:/Users/Dell/ide-8.0-workspace/hw.raspberrypi-bcm2712-rpi5_2/src/hardware/startup/boards/../../../../install/aarch64le/usr/lib\libstartup.a(fdt_init_bootopt.o)
 *fill*         0x0000000000000f69        0x7 
 .rodata.str1.8
                0x0000000000000f70       0x2c C:/Users/Dell/ide-8.0-workspace/hw.raspberrypi-bcm2712-rpi5_2/src/hardware/startup/boards/../../../../install/aarch64le/usr/lib\libstartup.a(fdt_psci_configure.o)
 *fill*         0x0000000000000f9c        0x4 
 .rodata.str1.8
                0x0000000000000fa0      0x121 C:/Users/Dell/ide-8.0-workspace/hw.raspberrypi-bcm2712-rpi5_2/src/hardware/startup/boards/../../../../install/aarch64le/usr/lib\libstartup.a(gic_v2.o)
 *fill*         0x00000000000010c1        0x7 
 .rodata.str1.8
                0x00000000000010c8       0x31 C:/Users/Dell/ide-8.0-workspace/hw.raspberrypi-bcm2712-rpi5_2/src/hardware/startup/boards/../../../../install/aarch64le/usr/lib\libstartup.a(hwi_add_nanospin.o)
 *fill*         0x00000000000010f9        0x7 
 .rodata.str1.8
                0x0000000000001100        0x4 C:/Users/Dell/ide-8.0-workspace/hw.raspberrypi-bcm2712-rpi5_2/src/hardware/startup/boards/../../../../install/aarch64le/usr/lib\libstartup.a(hwi_alloc.o)
 *fill*         0x0000000000001104        0x4 
 .rodata.str1.8
                0x0000000000001108        0xb C:/Users/Dell/ide-8.0-workspace/hw.raspberrypi-bcm2712-rpi5_2/src/hardware/startup/boards/../../../../install/aarch64le/usr/lib\libstartup.a(hwi_find_as.o)
 *fill*         0x0000000000001113        0x5 
 .rodata.str1.8
                0x0000000000001118       0x17 C:/Users/Dell/ide-8.0-workspace/hw.raspberrypi-bcm2712-rpi5_2/src/hardware/startup/boards/../../../../install/aarch64le/usr/lib\libstartup.a(hwidev_add.o)
 *fill*         0x000000000000112f        0x1 
 .rodata.str1.8
                0x0000000000001130       0x24 C:/Users/Dell/ide-8.0-workspace/hw.raspberrypi-bcm2712-rpi5_2/src/hardware/startup/boards/../../../../install/aarch64le/usr/lib\libstartup.a(hwitag_add_common.o)
 *fill*         0x0000000000001154        0x4 
 .rodata.str1.8
                0x0000000000001158        0x9 C:/Users/Dell/ide-8.0-workspace/hw.raspberrypi-bcm2712-rpi5_2/src/hardware/startup/boards/../../../../install/aarch64le/usr/lib\libstartup.a(hwitag_add_inputclk.o)
 *fill*         0x0000000000001161        0x7 
 .rodata.str1.8
                0x0000000000001168        0x4 C:/Users/Dell/ide-8.0-workspace/hw.raspberrypi-bcm2712-rpi5_2/src/hardware/startup/boards/../../../../install/aarch64le/usr/lib\libstartup.a(hwitag_add_irq.o)
 *fill*         0x000000000000116c        0x4 
 .rodata.str1.8
                0x0000000000001170        0x9 C:/Users/Dell/ide-8.0-workspace/hw.raspberrypi-bcm2712-rpi5_2/src/hardware/startup/boards/../../../../install/aarch64le/usr/lib\libstartup.a(hwitag_add_location.o)
 *fill*         0x0000000000001179        0x7 
 .rodata.str1.8
                0x0000000000001180        0x8 C:/Users/Dell/ide-8.0-workspace/hw.raspberrypi-bcm2712-rpi5_2/src/hardware/startup/boards/../../../../install/aarch64le/usr/lib\libstartup.a(hwitag_add_nicaddr.o)
 .rodata.str1.8
                0x0000000000001188        0xb C:/Users/Dell/ide-8.0-workspace/hw.raspberrypi-bcm2712-rpi5_2/src/hardware/startup/boards/../../../../install/aarch64le/usr/lib\libstartup.a(hwitag_add_nicphyaddr.o)
 *fill*         0x0000000000001193        0x5 
 .rodata.str1.8
                0x0000000000001198        0x8 C:/Users/Dell/ide-8.0-workspace/hw.raspberrypi-bcm2712-rpi5_2/src/hardware/startup/boards/../../../../install/aarch64le/usr/lib\libstartup.a(hwitag_add_regname.o)
 .rodata.str1.8
                0x00000000000011a0        0x9 C:/Users/Dell/ide-8.0-workspace/hw.raspberrypi-bcm2712-rpi5_2/src/hardware/startup/boards/../../../../install/aarch64le/usr/lib\libstartup.a(hwitag_set_inputclk.o)
 *fill*         0x00000000000011a9        0x7 
 .rodata.str1.8
                0x00000000000011b0       0x21 C:/Users/Dell/ide-8.0-workspace/hw.raspberrypi-bcm2712-rpi5_2/src/hardware/startup/boards/../../../../install/aarch64le/usr/lib\libstartup.a(hwitag_set_ivec.o)
 *fill*         0x00000000000011d1        0x7 
 .rodata.str1.8
                0x00000000000011d8       0x3a C:/Users/Dell/ide-8.0-workspace/hw.raspberrypi-bcm2712-rpi5_2/src/hardware/startup/boards/../../../../install/aarch64le/usr/lib\libstartup.a(hypervisor_setup.o)
 *fill*         0x0000000000001212        0x6 
 .rodata.str1.8
                0x0000000000001218      0x1c5 C:/Users/Dell/ide-8.0-workspace/hw.raspberrypi-bcm2712-rpi5_2/src/hardware/startup/boards/../../../../install/aarch64le/usr/lib\libstartup.a(init_cpuinfo.o)
 *fill*         0x00000000000013dd        0x3 
 .rodata.str1.8
                0x00000000000013e0       0x27 C:/Users/Dell/ide-8.0-workspace/hw.raspberrypi-bcm2712-rpi5_2/src/hardware/startup/boards/../../../../install/aarch64le/usr/lib\libstartup.a(init_mmu.o)
 *fill*         0x0000000000001407        0x1 
 .rodata.str1.8
                0x0000000000001408      0x146 C:/Users/Dell/ide-8.0-workspace/hw.raspberrypi-bcm2712-rpi5_2/src/hardware/startup/boards/../../../../install/aarch64le/usr/lib\libstartup.a(init_system_private.o)
 *fill*         0x000000000000154e        0x2 
 .rodata.str1.8
                0x0000000000001550       0x19 C:/Users/Dell/ide-8.0-workspace/hw.raspberrypi-bcm2712-rpi5_2/src/hardware/startup/boards/../../../../install/aarch64le/usr/lib\libstartup.a(invert_timer_freq.o)
 *fill*         0x0000000000001569        0x7 
 .rodata.str1.8
                0x0000000000001570       0xde C:/Users/Dell/ide-8.0-workspace/hw.raspberrypi-bcm2712-rpi5_2/src/hardware/startup/boards/../../../../install/aarch64le/usr/lib\libstartup.a(load_ifs.o)
 *fill*         0x000000000000164e        0x2 
 .rodata.str1.8
                0x0000000000001650      0x7e3 C:/Users/Dell/ide-8.0-workspace/hw.raspberrypi-bcm2712-rpi5_2/src/hardware/startup/boards/../../../../install/aarch64le/usr/lib\libstartup.a(print_sysp.o)
 *fill*         0x0000000000001e33        0x5 
 .rodata.str1.8
                0x0000000000001e38      0x111 C:/Users/Dell/ide-8.0-workspace/hw.raspberrypi-bcm2712-rpi5_2/src/hardware/startup/boards/../../../../install/aarch64le/usr/lib\libstartup.a(ram.o)
 *fill*         0x0000000000001f49        0x7 
 .rodata.str1.8
                0x0000000000001f50      0x4e9 C:/Users/Dell/ide-8.0-workspace/hw.raspberrypi-bcm2712-rpi5_2/src/hardware/startup/boards/../../../../install/aarch64le/usr/lib\libstartup.a(restore_ifs.o)
 *fill*         0x0000000000002439        0x7 
 .rodata.str1.8
                0x0000000000002440       0x1c C:/Users/Dell/ide-8.0-workspace/hw.raspberrypi-bcm2712-rpi5_2/src/hardware/startup/boards/../../../../install/aarch64le/usr/lib\libstartup.a(ssp.o)
 *fill*         0x000000000000245c        0x4 
 .rodata.str1.8
                0x0000000000002460       0x6a C:/Users/Dell/ide-8.0-workspace/hw.raspberrypi-bcm2712-rpi5_2/src/hardware/startup/boards/../../../../install/aarch64le/usr/lib\libstartup.a(startnext.o)
 *fill*         0x00000000000024ca        0x6 
 .rodata.str1.8
                0x00000000000024d0       0x3b C:/Users/Dell/ide-8.0-workspace/hw.raspberrypi-bcm2712-rpi5_2/src/hardware/startup/boards/../../../../install/aarch64le/usr/lib\libstartup.a(syspage_memory.o)
 *fill*         0x000000000000250b        0x5 
 .rodata.str1.8
                0x0000000000002510       0x35 C:/Users/Dell/ide-8.0-workspace/hw.raspberrypi-bcm2712-rpi5_2/src/hardware/startup/boards/../../../../install/aarch64le/usr/lib\libstartup.a(uncompress.o)
 *fill*         0x0000000000002545        0x3 
 .rodata.str1.8
                0x0000000000002548        0x5 C:/Users/Dell/ide-8.0-workspace/hw.raspberrypi-bcm2712-rpi5_2/src/hardware/startup/boards/../../../../install/aarch64le/usr/lib\libstartup.a(uncompress_ucl.o)
 *fill*         0x000000000000254d        0x3 
 .rodata.str1.8
                0x0000000000002550       0xcc C:/Users/Dell/ide-8.0-workspace/hw.raspberrypi-bcm2712-rpi5_2/src/hardware/startup/boards/../../../../install/aarch64le/usr/lib\libstartup.a(aarch64_map.o)
 *fill*         0x000000000000261c        0x4 
 .rodata.str1.8
                0x0000000000002620       0x16 C:/Users/Dell/ide-8.0-workspace/hw.raspberrypi-bcm2712-rpi5_2/src/hardware/startup/boards/../../../../install/aarch64le/usr/lib\libstartup.a(ap_fail.o)
 *fill*         0x0000000000002636        0x2 
 .rodata.str1.8
                0x0000000000002638        0x3 C:/Users/Dell/ide-8.0-workspace/hw.raspberrypi-bcm2712-rpi5_2/src/hardware/startup/boards/../../../../install/aarch64le/usr/lib\libstartup.a(as_add64.o)
 *fill*         0x000000000000263b        0x5 
 .rodata.str1.8
                0x0000000000002640        0x7 C:/Users/Dell/ide-8.0-workspace/hw.raspberrypi-bcm2712-rpi5_2/src/hardware/startup/boards/../../../../install/aarch64le/usr/lib\libstartup.a(as_default.o)
 *fill*         0x0000000000002647        0x1 
 .rodata.str1.8
                0x0000000000002648       0x30 C:/Users/Dell/ide-8.0-workspace/hw.raspberrypi-bcm2712-rpi5_2/src/hardware/startup/boards/../../../../install/aarch64le/usr/lib\libstartup.a(as_find.o)
 .rodata.str1.8
                0x0000000000002678       0x33 C:/Users/Dell/ide-8.0-workspace/hw.raspberrypi-bcm2712-rpi5_2/src/hardware/startup/boards/../../../../install/aarch64le/usr/lib\libstartup.a(cpu_syspage_memory.o)
 *fill*         0x00000000000026ab        0x5 
 .rodata.str1.8
                0x00000000000026b0        0xb C:/Users/Dell/ide-8.0-workspace/hw.raspberrypi-bcm2712-rpi5_2/src/hardware/startup/boards/../../../../install/aarch64le/usr/lib\libstartup.a(cpuid_a35.o)
 *fill*         0x00000000000026bb        0x5 
 .rodata.str1.8
                0x00000000000026c0        0xb C:/Users/Dell/ide-8.0-workspace/hw.raspberrypi-bcm2712-rpi5_2/src/hardware/startup/boards/../../../../install/aarch64le/usr/lib\libstartup.a(cpuid_a53.o)
 *fill*         0x00000000000026cb        0x5 
 .rodata.str1.8
                0x00000000000026d0        0xb C:/Users/Dell/ide-8.0-workspace/hw.raspberrypi-bcm2712-rpi5_2/src/hardware/startup/boards/../../../../install/aarch64le/usr/lib\libstartup.a(cpuid_a55.o)
 *fill*         0x00000000000026db        0x5 
 .rodata.str1.8
                0x00000000000026e0        0xb C:/Users/Dell/ide-8.0-workspace/hw.raspberrypi-bcm2712-rpi5_2/src/hardware/startup/boards/../../../../install/aarch64le/usr/lib\libstartup.a(cpuid_a57.o)
 *fill*         0x00000000000026eb        0x5 
 .rodata.str1.8
                0x00000000000026f0        0xb C:/Users/Dell/ide-8.0-workspace/hw.raspberrypi-bcm2712-rpi5_2/src/hardware/startup/boards/../../../../install/aarch64le/usr/lib\libstartup.a(cpuid_a72.o)
 *fill*         0x00000000000026fb        0x5 
 .rodata.str1.8
                0x0000000000002700        0xc C:/Users/Dell/ide-8.0-workspace/hw.raspberrypi-bcm2712-rpi5_2/src/hardware/startup/boards/../../../../install/aarch64le/usr/lib\libstartup.a(cpuid_a720.o)
 *fill*         0x000000000000270c        0x4 
 .rodata.str1.8
                0x0000000000002710        0xe C:/Users/Dell/ide-8.0-workspace/hw.raspberrypi-bcm2712-rpi5_2/src/hardware/startup/boards/../../../../install/aarch64le/usr/lib\libstartup.a(cpuid_a720ae.o)
 *fill*         0x000000000000271e        0x2 
 .rodata.str1.8
                0x0000000000002720        0xb C:/Users/Dell/ide-8.0-workspace/hw.raspberrypi-bcm2712-rpi5_2/src/hardware/startup/boards/../../../../install/aarch64le/usr/lib\libstartup.a(cpuid_a75.o)
 *fill*         0x000000000000272b        0x5 
 .rodata.str1.8
                0x0000000000002730        0xb C:/Users/Dell/ide-8.0-workspace/hw.raspberrypi-bcm2712-rpi5_2/src/hardware/startup/boards/../../../../install/aarch64le/usr/lib\libstartup.a(cpuid_a76.o)
 *fill*         0x000000000000273b        0x5 
 .rodata.str1.8
                0x0000000000002740        0xd C:/Users/Dell/ide-8.0-workspace/hw.raspberrypi-bcm2712-rpi5_2/src/hardware/startup/boards/../../../../install/aarch64le/usr/lib\libstartup.a(cpuid_a78ae.o)
 *fill*         0x000000000000274d        0x3 
 .rodata.str1.8
                0x0000000000002750        0xb C:/Users/Dell/ide-8.0-workspace/hw.raspberrypi-bcm2712-rpi5_2/src/hardware/startup/boards/../../../../install/aarch64le/usr/lib\libstartup.a(cpuid_d15.o)
 *fill*         0x000000000000275b        0x5 
 .rodata.str1.8
                0x0000000000002760        0xb C:/Users/Dell/ide-8.0-workspace/hw.raspberrypi-bcm2712-rpi5_2/src/hardware/startup/boards/../../../../install/aarch64le/usr/lib\libstartup.a(cpuid_d20.o)
 *fill*         0x000000000000276b        0x5 
 .rodata.str1.8
                0x0000000000002770        0x9 C:/Users/Dell/ide-8.0-workspace/hw.raspberrypi-bcm2712-rpi5_2/src/hardware/startup/boards/../../../../install/aarch64le/usr/lib\libstartup.a(cpuid_n1.o)
 *fill*         0x0000000000002779        0x7 
 .rodata.str1.8
                0x0000000000002780        0xa C:/Users/Dell/ide-8.0-workspace/hw.raspberrypi-bcm2712-rpi5_2/src/hardware/startup/boards/../../../../install/aarch64le/usr/lib\libstartup.a(cpuid_neo_v1.o)
 *fill*         0x000000000000278a        0x6 
 .rodata.str1.8
                0x0000000000002790        0x8 C:/Users/Dell/ide-8.0-workspace/hw.raspberrypi-bcm2712-rpi5_2/src/hardware/startup/boards/../../../../install/aarch64le/usr/lib\libstartup.a(cpuid_neo_v2.o)
 .rodata.str1.8
                0x0000000000002798        0xa C:/Users/Dell/ide-8.0-workspace/hw.raspberrypi-bcm2712-rpi5_2/src/hardware/startup/boards/../../../../install/aarch64le/usr/lib\libstartup.a(cpuid_v8_aem.o)
 *fill*         0x00000000000027a2        0x6 
 .rodata.str1.8
                0x00000000000027a8        0x9 C:/Users/Dell/ide-8.0-workspace/hw.raspberrypi-bcm2712-rpi5_2/src/hardware/startup/boards/../../../../install/aarch64le/usr/lib\libstartup.a(cpuid_v8_fm.o)
 *fill*         0x00000000000027b1        0x7 
 .rodata.str1.8
                0x00000000000027b8        0x9 C:/Users/Dell/ide-8.0-workspace/hw.raspberrypi-bcm2712-rpi5_2/src/hardware/startup/boards/../../../../install/aarch64le/usr/lib\libstartup.a(cpuid_x2.o)
 *fill*         0x00000000000027c1        0x7 
 .rodata.str1.8
                0x00000000000027c8        0xa C:/Users/Dell/ide-8.0-workspace/hw.raspberrypi-bcm2712-rpi5_2/src/hardware/startup/boards/../../../../install/aarch64le/usr/lib\libstartup.a(cpuid_x4.o)
 *fill*         0x00000000000027d2        0x6 
 .rodata.str1.8
                0x00000000000027d8        0xc C:/Users/Dell/ide-8.0-workspace/hw.raspberrypi-bcm2712-rpi5_2/src/hardware/startup/boards/../../../../install/aarch64le/usr/lib\libstartup.a(cpuid_x925.o)
 *fill*         0x00000000000027e4        0x4 
 .rodata.str1.8
                0x00000000000027e8       0x1f C:/Users/Dell/ide-8.0-workspace/hw.raspberrypi-bcm2712-rpi5_2/src/hardware/startup/boards/../../../../install/aarch64le/usr/lib\libstartup.a(hwi_add_device.o)
 *fill*         0x0000000000002807        0x1 
 .rodata.str1.8
                0x0000000000002808       0x1c C:/Users/Dell/ide-8.0-workspace/hw.raspberrypi-bcm2712-rpi5_2/src/hardware/startup/boards/../../../../install/aarch64le/usr/lib\libstartup.a(hwi_default.o)
 *fill*         0x0000000000002824        0x4 
 .rodata.str1.8
                0x0000000000002828      0x18a C:/Users/Dell/ide-8.0-workspace/hw.raspberrypi-bcm2712-rpi5_2/src/hardware/startup/boards/../../../../install/aarch64le/usr/lib\libstartup.a(hypervisor.o)
 *fill*         0x00000000000029b2        0x6 
 .rodata.str1.8
                0x00000000000029b8       0x57 C:/Users/Dell/ide-8.0-workspace/hw.raspberrypi-bcm2712-rpi5_2/src/hardware/startup/boards/../../../../install/aarch64le/usr/lib\libstartup.a(init_mitigation_mem.o)
 *fill*         0x0000000000002a0f        0x1 
 .rodata.str1.8
                0x0000000000002a10        0xf C:/Users/Dell/qnx800/target/qnx/aarch64le/usr/lib\libdrvr.a(hwi_find_unit.o)
 *fill*         0x0000000000002a1f        0x1 
 .rodata.str1.8
                0x0000000000002a20        0x4 C:/Users/Dell/qnx800/target/qnx/aarch64le/usr/lib\libdrvr.a(hwi_find_bus.o)
 *fill*         0x0000000000002a24        0x4 
 .rodata.str1.8
                0x0000000000002a28        0x7 C:/Users/Dell/qnx800/target/qnx/aarch64le/usr/lib\libdrvr.a(hwi_find_device.o)
 *fill*         0x0000000000002a2f        0x1 
 .rodata.str1.8
                0x0000000000002a30        0x8 C:/Users/Dell/qnx800/target/qnx/aarch64le/usr/lib\libdrvr.a(hwi_find.o)
 .rodata.str1.8
                0x0000000000002a38       0x33 C:/Users/Dell/qnx800/target/qnx/aarch64le/usr/lib\libfdt.a(fdt_ro.o)
 *fill*         0x0000000000002a6b        0x5 
 .rodata.str1.8
                0x0000000000002a70       0xf8 C:/Users/Dell/qnx800/target/qnx/aarch64le/lib\libc.a(_ssp.o)

.rodata1
 *(.rodata1)

.eh_frame_hdr
 *(.eh_frame_hdr)

.eh_frame       0x0000000000000000     0x3e00
 *(.eh_frame)
 .eh_frame      0x0000000000000000       0x50 bcm2712_init_raminfo.o
 .eh_frame      0x0000000000000050       0x88 board_smp.o
 .eh_frame      0x00000000000000d8      0x110 init_aon_gpio.o
 .eh_frame      0x00000000000001e8       0x28 init_asinfo.o
 .eh_frame      0x0000000000000210       0xb8 init_board_type.o
 .eh_frame      0x00000000000002c8       0xb0 init_hwinfo.o
 .eh_frame      0x0000000000000378       0x38 init_intrinfo.o
 .eh_frame      0x00000000000003b0       0x48 init_wdt.o
 .eh_frame      0x00000000000003f8       0x98 main.o
 .eh_frame      0x0000000000000490      0x1c0 mbox.o
 .eh_frame      0x0000000000000650       0x98 C:/Users/Dell/ide-8.0-workspace/hw.raspberrypi-bcm2712-rpi5_2/src/hardware/startup/boards/../../../../install/aarch64le/usr/lib\libstartup.a(_main.o)
 .eh_frame      0x00000000000006e8       0x60 C:/Users/Dell/ide-8.0-workspace/hw.raspberrypi-bcm2712-rpi5_2/src/hardware/startup/boards/../../../../install/aarch64le/usr/lib\libstartup.a(as_add_containing.o)
 .eh_frame      0x0000000000000748       0x70 C:/Users/Dell/ide-8.0-workspace/hw.raspberrypi-bcm2712-rpi5_2/src/hardware/startup/boards/../../../../install/aarch64le/usr/lib\libstartup.a(as_find_containing.o)
 .eh_frame      0x00000000000007b8       0x28 C:/Users/Dell/ide-8.0-workspace/hw.raspberrypi-bcm2712-rpi5_2/src/hardware/startup/boards/../../../../install/aarch64le/usr/lib\libstartup.a(as_off2info.o)
 .eh_frame      0x00000000000007e0       0x28 C:/Users/Dell/ide-8.0-workspace/hw.raspberrypi-bcm2712-rpi5_2/src/hardware/startup/boards/../../../../install/aarch64le/usr/lib\libstartup.a(board_init.o)
 .eh_frame      0x0000000000000808       0xa8 C:/Users/Dell/ide-8.0-workspace/hw.raspberrypi-bcm2712-rpi5_2/src/hardware/startup/boards/../../../../install/aarch64le/usr/lib\libstartup.a(bootstrap_cmdline.o)
 .eh_frame      0x00000000000008b0      0x190 C:/Users/Dell/ide-8.0-workspace/hw.raspberrypi-bcm2712-rpi5_2/src/hardware/startup/boards/../../../../install/aarch64le/usr/lib\libstartup.a(callouts.o)
 .eh_frame      0x0000000000000a40      0x120 C:/Users/Dell/ide-8.0-workspace/hw.raspberrypi-bcm2712-rpi5_2/src/hardware/startup/boards/../../../../install/aarch64le/usr/lib\libstartup.a(common_options.o)
 .eh_frame      0x0000000000000b60       0x48 C:/Users/Dell/ide-8.0-workspace/hw.raspberrypi-bcm2712-rpi5_2/src/hardware/startup/boards/../../../../install/aarch64le/usr/lib\libstartup.a(cpu_cluster_add.o)
 .eh_frame      0x0000000000000ba8       0x38 C:/Users/Dell/ide-8.0-workspace/hw.raspberrypi-bcm2712-rpi5_2/src/hardware/startup/boards/../../../../install/aarch64le/usr/lib\libstartup.a(cpu_common_options.o)
 .eh_frame      0x0000000000000be0       0x40 C:/Users/Dell/ide-8.0-workspace/hw.raspberrypi-bcm2712-rpi5_2/src/hardware/startup/boards/../../../../install/aarch64le/usr/lib\libstartup.a(cpu_startup.o)
 .eh_frame      0x0000000000000c20       0x48 C:/Users/Dell/ide-8.0-workspace/hw.raspberrypi-bcm2712-rpi5_2/src/hardware/startup/boards/../../../../install/aarch64le/usr/lib\libstartup.a(debug.o)
 .eh_frame      0x0000000000000c68       0x70 C:/Users/Dell/ide-8.0-workspace/hw.raspberrypi-bcm2712-rpi5_2/src/hardware/startup/boards/../../../../install/aarch64le/usr/lib\libstartup.a(fdt_init_bootopt.o)
 .eh_frame      0x0000000000000cd8       0x50 C:/Users/Dell/ide-8.0-workspace/hw.raspberrypi-bcm2712-rpi5_2/src/hardware/startup/boards/../../../../install/aarch64le/usr/lib\libstartup.a(fdt_psci_configure.o)
 .eh_frame      0x0000000000000d28       0x28 C:/Users/Dell/ide-8.0-workspace/hw.raspberrypi-bcm2712-rpi5_2/src/hardware/startup/boards/../../../../install/aarch64le/usr/lib\libstartup.a(getopt.o)
 .eh_frame      0x0000000000000d50       0x38 C:/Users/Dell/ide-8.0-workspace/hw.raspberrypi-bcm2712-rpi5_2/src/hardware/startup/boards/../../../../install/aarch64le/usr/lib\libstartup.a(getsize.o)
 .eh_frame      0x0000000000000d88       0xb8 C:/Users/Dell/ide-8.0-workspace/hw.raspberrypi-bcm2712-rpi5_2/src/hardware/startup/boards/../../../../install/aarch64le/usr/lib\libstartup.a(gic_v2.o)
 .eh_frame      0x0000000000000e40       0x90 C:/Users/Dell/ide-8.0-workspace/hw.raspberrypi-bcm2712-rpi5_2/src/hardware/startup/boards/../../../../install/aarch64le/usr/lib\libstartup.a(hw_serpl011.o)
 .eh_frame      0x0000000000000ed0       0x38 C:/Users/Dell/ide-8.0-workspace/hw.raspberrypi-bcm2712-rpi5_2/src/hardware/startup/boards/../../../../install/aarch64le/usr/lib\libstartup.a(hwi_add_nanospin.o)
 .eh_frame      0x0000000000000f08       0xc0 C:/Users/Dell/ide-8.0-workspace/hw.raspberrypi-bcm2712-rpi5_2/src/hardware/startup/boards/../../../../install/aarch64le/usr/lib\libstartup.a(hwi_alloc.o)
 .eh_frame      0x0000000000000fc8       0x28 C:/Users/Dell/ide-8.0-workspace/hw.raspberrypi-bcm2712-rpi5_2/src/hardware/startup/boards/../../../../install/aarch64le/usr/lib\libstartup.a(hwi_find_as.o)
 .eh_frame      0x0000000000000ff0       0x48 C:/Users/Dell/ide-8.0-workspace/hw.raspberrypi-bcm2712-rpi5_2/src/hardware/startup/boards/../../../../install/aarch64le/usr/lib\libstartup.a(hwidev_add.o)
 .eh_frame      0x0000000000001038       0x40 C:/Users/Dell/ide-8.0-workspace/hw.raspberrypi-bcm2712-rpi5_2/src/hardware/startup/boards/../../../../install/aarch64le/usr/lib\libstartup.a(hwidev_add_enet.o)
 .eh_frame      0x0000000000001078       0x48 C:/Users/Dell/ide-8.0-workspace/hw.raspberrypi-bcm2712-rpi5_2/src/hardware/startup/boards/../../../../install/aarch64le/usr/lib\libstartup.a(hwidev_add_timer.o)
 .eh_frame      0x00000000000010c0       0x58 C:/Users/Dell/ide-8.0-workspace/hw.raspberrypi-bcm2712-rpi5_2/src/hardware/startup/boards/../../../../install/aarch64le/usr/lib\libstartup.a(hwitag_add_common.o)
 .eh_frame      0x0000000000001118       0x38 C:/Users/Dell/ide-8.0-workspace/hw.raspberrypi-bcm2712-rpi5_2/src/hardware/startup/boards/../../../../install/aarch64le/usr/lib\libstartup.a(hwitag_add_inputclk.o)
 .eh_frame      0x0000000000001150       0x38 C:/Users/Dell/ide-8.0-workspace/hw.raspberrypi-bcm2712-rpi5_2/src/hardware/startup/boards/../../../../install/aarch64le/usr/lib\libstartup.a(hwitag_add_irq.o)
 .eh_frame      0x0000000000001188       0x40 C:/Users/Dell/ide-8.0-workspace/hw.raspberrypi-bcm2712-rpi5_2/src/hardware/startup/boards/../../../../install/aarch64le/usr/lib\libstartup.a(hwitag_add_location.o)
 .eh_frame      0x00000000000011c8       0x38 C:/Users/Dell/ide-8.0-workspace/hw.raspberrypi-bcm2712-rpi5_2/src/hardware/startup/boards/../../../../install/aarch64le/usr/lib\libstartup.a(hwitag_add_nicaddr.o)
 .eh_frame      0x0000000000001200       0x38 C:/Users/Dell/ide-8.0-workspace/hw.raspberrypi-bcm2712-rpi5_2/src/hardware/startup/boards/../../../../install/aarch64le/usr/lib\libstartup.a(hwitag_add_nicphyaddr.o)
 .eh_frame      0x0000000000001238       0x38 C:/Users/Dell/ide-8.0-workspace/hw.raspberrypi-bcm2712-rpi5_2/src/hardware/startup/boards/../../../../install/aarch64le/usr/lib\libstartup.a(hwitag_add_regname.o)
 .eh_frame      0x0000000000001270       0x38 C:/Users/Dell/ide-8.0-workspace/hw.raspberrypi-bcm2712-rpi5_2/src/hardware/startup/boards/../../../../install/aarch64le/usr/lib\libstartup.a(hwitag_set_inputclk.o)
 .eh_frame      0x00000000000012a8       0x48 C:/Users/Dell/ide-8.0-workspace/hw.raspberrypi-bcm2712-rpi5_2/src/hardware/startup/boards/../../../../install/aarch64le/usr/lib\libstartup.a(hwitag_set_ivec.o)
 .eh_frame      0x00000000000012f0       0x80 C:/Users/Dell/ide-8.0-workspace/hw.raspberrypi-bcm2712-rpi5_2/src/hardware/startup/boards/../../../../install/aarch64le/usr/lib\libstartup.a(hypervisor_setup.o)
 .eh_frame      0x0000000000001370       0x28 C:/Users/Dell/ide-8.0-workspace/hw.raspberrypi-bcm2712-rpi5_2/src/hardware/startup/boards/../../../../install/aarch64le/usr/lib\libstartup.a(init_cacheattr.o)
 .eh_frame      0x0000000000001398       0x78 C:/Users/Dell/ide-8.0-workspace/hw.raspberrypi-bcm2712-rpi5_2/src/hardware/startup/boards/../../../../install/aarch64le/usr/lib\libstartup.a(init_cpuinfo.o)
 .eh_frame      0x0000000000001410       0x38 C:/Users/Dell/ide-8.0-workspace/hw.raspberrypi-bcm2712-rpi5_2/src/hardware/startup/boards/../../../../install/aarch64le/usr/lib\libstartup.a(init_mmu.o)
 .eh_frame      0x0000000000001448       0x28 C:/Users/Dell/ide-8.0-workspace/hw.raspberrypi-bcm2712-rpi5_2/src/hardware/startup/boards/../../../../install/aarch64le/usr/lib\libstartup.a(init_qtime.o)
 .eh_frame      0x0000000000001470       0x68 C:/Users/Dell/ide-8.0-workspace/hw.raspberrypi-bcm2712-rpi5_2/src/hardware/startup/boards/../../../../install/aarch64le/usr/lib\libstartup.a(init_qtime_v8gt.o)
 .eh_frame      0x00000000000014d8       0xa8 C:/Users/Dell/ide-8.0-workspace/hw.raspberrypi-bcm2712-rpi5_2/src/hardware/startup/boards/../../../../install/aarch64le/usr/lib\libstartup.a(init_smp.o)
 .eh_frame      0x0000000000001580       0x58 C:/Users/Dell/ide-8.0-workspace/hw.raspberrypi-bcm2712-rpi5_2/src/hardware/startup/boards/../../../../install/aarch64le/usr/lib\libstartup.a(init_system_private.o)
 .eh_frame      0x00000000000015d8       0x30 C:/Users/Dell/ide-8.0-workspace/hw.raspberrypi-bcm2712-rpi5_2/src/hardware/startup/boards/../../../../install/aarch64le/usr/lib\libstartup.a(invert_timer_freq.o)
 .eh_frame      0x0000000000001608       0x68 C:/Users/Dell/ide-8.0-workspace/hw.raspberrypi-bcm2712-rpi5_2/src/hardware/startup/boards/../../../../install/aarch64le/usr/lib\libstartup.a(jtag.o)
 .eh_frame      0x0000000000001670      0x160 C:/Users/Dell/ide-8.0-workspace/hw.raspberrypi-bcm2712-rpi5_2/src/hardware/startup/boards/../../../../install/aarch64le/usr/lib\libstartup.a(kprintf.o)
 .eh_frame      0x00000000000017d0       0x78 C:/Users/Dell/ide-8.0-workspace/hw.raspberrypi-bcm2712-rpi5_2/src/hardware/startup/boards/../../../../install/aarch64le/usr/lib\libstartup.a(load_ifs.o)
 .eh_frame      0x0000000000001848       0x28 C:/Users/Dell/ide-8.0-workspace/hw.raspberrypi-bcm2712-rpi5_2/src/hardware/startup/boards/../../../../install/aarch64le/usr/lib\libstartup.a(map_callout_io.o)
 .eh_frame      0x0000000000001870       0x40 C:/Users/Dell/ide-8.0-workspace/hw.raspberrypi-bcm2712-rpi5_2/src/hardware/startup/boards/../../../../install/aarch64le/usr/lib\libstartup.a(map_startup_mem.o)
 .eh_frame      0x00000000000018b0       0x28 C:/Users/Dell/ide-8.0-workspace/hw.raspberrypi-bcm2712-rpi5_2/src/hardware/startup/boards/../../../../install/aarch64le/usr/lib\libstartup.a(memcpy.o)
 .eh_frame      0x00000000000018d8       0x50 C:/Users/Dell/ide-8.0-workspace/hw.raspberrypi-bcm2712-rpi5_2/src/hardware/startup/boards/../../../../install/aarch64le/usr/lib\libstartup.a(memfuncs.o)
 .eh_frame      0x0000000000001928       0x30 C:/Users/Dell/ide-8.0-workspace/hw.raspberrypi-bcm2712-rpi5_2/src/hardware/startup/boards/../../../../install/aarch64le/usr/lib\libstartup.a(memmove.o)
 .eh_frame      0x0000000000001958      0x348 C:/Users/Dell/ide-8.0-workspace/hw.raspberrypi-bcm2712-rpi5_2/src/hardware/startup/boards/../../../../install/aarch64le/usr/lib\libstartup.a(print_sysp.o)
 .eh_frame      0x0000000000001ca0       0x38 C:/Users/Dell/ide-8.0-workspace/hw.raspberrypi-bcm2712-rpi5_2/src/hardware/startup/boards/../../../../install/aarch64le/usr/lib\libstartup.a(psci_smp.o)
 .eh_frame      0x0000000000001cd8      0x280 C:/Users/Dell/ide-8.0-workspace/hw.raspberrypi-bcm2712-rpi5_2/src/hardware/startup/boards/../../../../install/aarch64le/usr/lib\libstartup.a(ram.o)
 .eh_frame      0x0000000000001f58      0x1c8 C:/Users/Dell/ide-8.0-workspace/hw.raspberrypi-bcm2712-rpi5_2/src/hardware/startup/boards/../../../../install/aarch64le/usr/lib\libstartup.a(restore_ifs.o)
 .eh_frame      0x0000000000002120       0x30 C:/Users/Dell/ide-8.0-workspace/hw.raspberrypi-bcm2712-rpi5_2/src/hardware/startup/boards/../../../../install/aarch64le/usr/lib\libstartup.a(ssp.o)
 .eh_frame      0x0000000000002150       0x38 C:/Users/Dell/ide-8.0-workspace/hw.raspberrypi-bcm2712-rpi5_2/src/hardware/startup/boards/../../../../install/aarch64le/usr/lib\libstartup.a(startnext.o)
 .eh_frame      0x0000000000002188      0x110 C:/Users/Dell/ide-8.0-workspace/hw.raspberrypi-bcm2712-rpi5_2/src/hardware/startup/boards/../../../../install/aarch64le/usr/lib\libstartup.a(strings.o)
 .eh_frame      0x0000000000002298       0x40 C:/Users/Dell/ide-8.0-workspace/hw.raspberrypi-bcm2712-rpi5_2/src/hardware/startup/boards/../../../../install/aarch64le/usr/lib\libstartup.a(strtoul.o)
 .eh_frame      0x00000000000022d8      0x118 C:/Users/Dell/ide-8.0-workspace/hw.raspberrypi-bcm2712-rpi5_2/src/hardware/startup/boards/../../../../install/aarch64le/usr/lib\libstartup.a(syspage_memory.o)
 .eh_frame      0x00000000000023f0       0x28 C:/Users/Dell/ide-8.0-workspace/hw.raspberrypi-bcm2712-rpi5_2/src/hardware/startup/boards/../../../../install/aarch64le/usr/lib\libstartup.a(tweak_cmdline.o)
 .eh_frame      0x0000000000002418       0x40 C:/Users/Dell/ide-8.0-workspace/hw.raspberrypi-bcm2712-rpi5_2/src/hardware/startup/boards/../../../../install/aarch64le/usr/lib\libstartup.a(uncompress.o)
 .eh_frame      0x0000000000002458       0x40 C:/Users/Dell/ide-8.0-workspace/hw.raspberrypi-bcm2712-rpi5_2/src/hardware/startup/boards/../../../../install/aarch64le/usr/lib\libstartup.a(uncompress_ucl.o)
 .eh_frame      0x0000000000002498       0x28 C:/Users/Dell/ide-8.0-workspace/hw.raspberrypi-bcm2712-rpi5_2/src/hardware/startup/boards/../../../../install/aarch64le/usr/lib\libstartup.a(aarch64_cpuspeed.o)
 .eh_frame      0x00000000000024c0      0x118 C:/Users/Dell/ide-8.0-workspace/hw.raspberrypi-bcm2712-rpi5_2/src/hardware/startup/boards/../../../../install/aarch64le/usr/lib\libstartup.a(aarch64_map.o)
 .eh_frame      0x00000000000025d8       0x88 C:/Users/Dell/ide-8.0-workspace/hw.raspberrypi-bcm2712-rpi5_2/src/hardware/startup/boards/../../../../install/aarch64le/usr/lib\libstartup.a(add_cache.o)
 .eh_frame      0x0000000000002660       0xa8 C:/Users/Dell/ide-8.0-workspace/hw.raspberrypi-bcm2712-rpi5_2/src/hardware/startup/boards/../../../../install/aarch64le/usr/lib\libstartup.a(add_interrupt.o)
 .eh_frame      0x0000000000002708       0x40 C:/Users/Dell/ide-8.0-workspace/hw.raspberrypi-bcm2712-rpi5_2/src/hardware/startup/boards/../../../../install/aarch64le/usr/lib\libstartup.a(alloc_qtime.o)
 .eh_frame      0x0000000000002748       0x30 C:/Users/Dell/ide-8.0-workspace/hw.raspberrypi-bcm2712-rpi5_2/src/hardware/startup/boards/../../../../install/aarch64le/usr/lib\libstartup.a(ap_fail.o)
 .eh_frame      0x0000000000002778       0x28 C:/Users/Dell/ide-8.0-workspace/hw.raspberrypi-bcm2712-rpi5_2/src/hardware/startup/boards/../../../../install/aarch64le/usr/lib\libstartup.a(as_add.o)
 .eh_frame      0x00000000000027a0       0x50 C:/Users/Dell/ide-8.0-workspace/hw.raspberrypi-bcm2712-rpi5_2/src/hardware/startup/boards/../../../../install/aarch64le/usr/lib\libstartup.a(as_add64.o)
 .eh_frame      0x00000000000027f0       0x28 C:/Users/Dell/ide-8.0-workspace/hw.raspberrypi-bcm2712-rpi5_2/src/hardware/startup/boards/../../../../install/aarch64le/usr/lib\libstartup.a(as_default.o)
 .eh_frame      0x0000000000002818       0x58 C:/Users/Dell/ide-8.0-workspace/hw.raspberrypi-bcm2712-rpi5_2/src/hardware/startup/boards/../../../../install/aarch64le/usr/lib\libstartup.a(as_find.o)
 .eh_frame      0x0000000000002870       0xe0 C:/Users/Dell/ide-8.0-workspace/hw.raspberrypi-bcm2712-rpi5_2/src/hardware/startup/boards/../../../../install/aarch64le/usr/lib\libstartup.a(board_sysctl.o)
 .eh_frame      0x0000000000002950       0x48 C:/Users/Dell/ide-8.0-workspace/hw.raspberrypi-bcm2712-rpi5_2/src/hardware/startup/boards/../../../../install/aarch64le/usr/lib\libstartup.a(cpu_startnext.o)
 .eh_frame      0x0000000000002998       0x90 C:/Users/Dell/ide-8.0-workspace/hw.raspberrypi-bcm2712-rpi5_2/src/hardware/startup/boards/../../../../install/aarch64le/usr/lib\libstartup.a(cpu_syspage_memory.o)
 .eh_frame      0x0000000000002a28       0x28 C:/Users/Dell/ide-8.0-workspace/hw.raspberrypi-bcm2712-rpi5_2/src/hardware/startup/boards/../../../../install/aarch64le/usr/lib\libstartup.a(cpuid_a75.o)
 .eh_frame      0x0000000000002a50       0x28 C:/Users/Dell/ide-8.0-workspace/hw.raspberrypi-bcm2712-rpi5_2/src/hardware/startup/boards/../../../../install/aarch64le/usr/lib\libstartup.a(cpuid_a76.o)
 .eh_frame      0x0000000000002a78       0x28 C:/Users/Dell/ide-8.0-workspace/hw.raspberrypi-bcm2712-rpi5_2/src/hardware/startup/boards/../../../../install/aarch64le/usr/lib\libstartup.a(cpuid_d20.o)
 .eh_frame      0x0000000000002aa0       0x28 C:/Users/Dell/ide-8.0-workspace/hw.raspberrypi-bcm2712-rpi5_2/src/hardware/startup/boards/../../../../install/aarch64le/usr/lib\libstartup.a(crash_done.o)
 .eh_frame      0x0000000000002ac8       0x28 C:/Users/Dell/ide-8.0-workspace/hw.raspberrypi-bcm2712-rpi5_2/src/hardware/startup/boards/../../../../install/aarch64le/usr/lib\libstartup.a(dummy_print_char.o)
 .eh_frame      0x0000000000002af0       0xb0 C:/Users/Dell/ide-8.0-workspace/hw.raspberrypi-bcm2712-rpi5_2/src/hardware/startup/boards/../../../../install/aarch64le/usr/lib\libstartup.a(elf.o)
 .eh_frame      0x0000000000002ba0       0x98 C:/Users/Dell/ide-8.0-workspace/hw.raspberrypi-bcm2712-rpi5_2/src/hardware/startup/boards/../../../../install/aarch64le/usr/lib\libstartup.a(elf32.o)
 .eh_frame      0x0000000000002c38       0x98 C:/Users/Dell/ide-8.0-workspace/hw.raspberrypi-bcm2712-rpi5_2/src/hardware/startup/boards/../../../../install/aarch64le/usr/lib\libstartup.a(elf64.o)
 .eh_frame      0x0000000000002cd0       0x28 C:/Users/Dell/ide-8.0-workspace/hw.raspberrypi-bcm2712-rpi5_2/src/hardware/startup/boards/../../../../install/aarch64le/usr/lib\libstartup.a(elf_map.o)
 .eh_frame      0x0000000000002cf8       0x48 C:/Users/Dell/ide-8.0-workspace/hw.raspberrypi-bcm2712-rpi5_2/src/hardware/startup/boards/../../../../install/aarch64le/usr/lib\libstartup.a(hwi_add_device.o)
 .eh_frame      0x0000000000002d40       0x30 C:/Users/Dell/ide-8.0-workspace/hw.raspberrypi-bcm2712-rpi5_2/src/hardware/startup/boards/../../../../install/aarch64le/usr/lib\libstartup.a(hwi_default.o)
 .eh_frame      0x0000000000002d70       0x80 C:/Users/Dell/ide-8.0-workspace/hw.raspberrypi-bcm2712-rpi5_2/src/hardware/startup/boards/../../../../install/aarch64le/usr/lib\libstartup.a(hypervisor.o)
 .eh_frame      0x0000000000002df0       0x48 C:/Users/Dell/ide-8.0-workspace/hw.raspberrypi-bcm2712-rpi5_2/src/hardware/startup/boards/../../../../install/aarch64le/usr/lib\libstartup.a(init_mitigation_mem.o)
 .eh_frame      0x0000000000002e38       0x28 C:/Users/Dell/ide-8.0-workspace/hw.raspberrypi-bcm2712-rpi5_2/src/hardware/startup/boards/../../../../install/aarch64le/usr/lib\libstartup.a(rtc_time.o)
 .eh_frame      0x0000000000002e60       0x28 C:/Users/Dell/ide-8.0-workspace/hw.raspberrypi-bcm2712-rpi5_2/src/hardware/startup/boards/../../../../install/aarch64le/usr/lib\libstartup.a(startup_info.o)
 .eh_frame      0x0000000000002e88       0x50 C:/Users/Dell/qnx800/target/qnx/aarch64le/usr/lib\libucl.a(n2b_d.o)
 .eh_frame      0x0000000000002ed8       0x60 C:/Users/Dell/qnx800/target/qnx/aarch64le/usr/lib\libdrvr.a(hwi_find_unit.o)
 .eh_frame      0x0000000000002f38       0x58 C:/Users/Dell/qnx800/target/qnx/aarch64le/usr/lib\libdrvr.a(hwi_tag_find.o)
 .eh_frame      0x0000000000002f90       0x40 C:/Users/Dell/qnx800/target/qnx/aarch64le/usr/lib\libdrvr.a(hwi_find_bus.o)
 .eh_frame      0x0000000000002fd0       0x40 C:/Users/Dell/qnx800/target/qnx/aarch64le/usr/lib\libdrvr.a(hwi_find_device.o)
 .eh_frame      0x0000000000003010       0x58 C:/Users/Dell/qnx800/target/qnx/aarch64le/usr/lib\libdrvr.a(hwi_find.o)
 .eh_frame      0x0000000000003068      0x1a8 C:/Users/Dell/qnx800/target/qnx/aarch64le/usr/lib\libfdt.a(fdt.o)
 .eh_frame      0x0000000000003210      0x770 C:/Users/Dell/qnx800/target/qnx/aarch64le/usr/lib\libfdt.a(fdt_ro.o)
 .eh_frame      0x0000000000003980       0x58 C:/Users/Dell/qnx800/target/qnx/aarch64le/lib\libc.a(hwi_find_item.o)
 .eh_frame      0x00000000000039d8       0x48 C:/Users/Dell/qnx800/target/qnx/aarch64le/lib\libc.a(hwi_next_tag.o)
 .eh_frame      0x0000000000003a20       0x38 C:/Users/Dell/qnx800/target/qnx/aarch64le/lib\libc.a(hwi_off2tag.o)
 .eh_frame      0x0000000000003a58       0x38 C:/Users/Dell/qnx800/target/qnx/aarch64le/lib\libc.a(hwi_tag2off.o)
 .eh_frame      0x0000000000003a90       0x28 C:/Users/Dell/qnx800/target/qnx/aarch64le/lib\libc.a(memchr.o)
 .eh_frame      0x0000000000003ab8       0x28 C:/Users/Dell/qnx800/target/qnx/aarch64le/lib\libc.a(memset.o)
 .eh_frame      0x0000000000003ae0       0x28 C:/Users/Dell/qnx800/target/qnx/aarch64le/lib\libc.a(strchr.o)
 .eh_frame      0x0000000000003b08       0x28 C:/Users/Dell/qnx800/target/qnx/aarch64le/lib\libc.a(strlcpy.o)
 .eh_frame      0x0000000000003b30       0x28 C:/Users/Dell/qnx800/target/qnx/aarch64le/lib\libc.a(strnlen.o)
 .eh_frame      0x0000000000003b58       0x28 C:/Users/Dell/qnx800/target/qnx/aarch64le/lib\libc.a(strrchr.o)
 .eh_frame      0x0000000000003b80       0xa0 C:/Users/Dell/qnx800/target/qnx/aarch64le/lib\libc.a(strstr.o)
 .eh_frame      0x0000000000003c20       0x50 C:/Users/Dell/qnx800/target/qnx/aarch64le/lib\libc.a(__progname.o)
 .eh_frame      0x0000000000003c70       0xc0 C:/Users/Dell/qnx800/target/qnx/aarch64le/lib\libc.a(_ssp.o)
 .eh_frame      0x0000000000003d30       0x48 C:/Users/Dell/qnx800/target/qnx/aarch64le/lib\libc.a(getsubopt.o)
 .eh_frame      0x0000000000003d78       0x38 C:/Users/Dell/qnx800/target/qnx/aarch64le/lib\libc.a(xtolotab.o)
 .eh_frame      0x0000000000003db0       0x28 C:/Users/Dell/qnx800/target/qnx/aarch64le/lib\libc.a(strncasecmp.o)
 .eh_frame      0x0000000000003dd8       0x28 C:/Users/Dell/qnx800/target/qnx/aarch64le/lib\libc.a(strncmp.o)

.sframe
 *(.sframe)

.gcc_except_table
 *(.gcc_except_table)

.gnu_extab
 *(.gnu_extab*)

.exception_ranges
 *(.exception_ranges)

.eh_frame
 *(.eh_frame)

.sframe
 *(.sframe)

.gnu_extab
 *(.gnu_extab)

.gcc_except_table
 *(.gcc_except_table)

.exception_ranges
 *(.exception_ranges)

.tdata
 *(.tdata)

.tbss
 *(.tbss)

.jcr
 *(.jcr)

.dynamic
 *(.dynamic)

.got
 *(.got)

.got.plt
 *(.got.plt)

.data           0x0000000000000000     0x3340
 *(.data)
 .data          0x0000000000000000        0x0 bcm2712_init_raminfo.o
 .data          0x0000000000000000        0x0 board_smp.o
 .data          0x0000000000000000        0x0 callout_reboot_bcm2712.o
 .data          0x0000000000000000        0x8 init_aon_gpio.o
 .data          0x0000000000000008        0x0 init_asinfo.o
 .data          0x0000000000000008       0xd8 init_board_type.o
 .data          0x00000000000000e0        0x0 init_hwinfo.o
 .data          0x00000000000000e0        0x0 init_intrinfo.o
 .data          0x00000000000000e0        0x0 init_wdt.o
 .data          0x00000000000000e0        0x0 main.o
 .data          0x00000000000000e0        0x0 mbox.o
 .data          0x00000000000000e0       0x20 C:/Users/Dell/ide-8.0-workspace/hw.raspberrypi-bcm2712-rpi5_2/src/hardware/startup/boards/../../../../install/aarch64le/usr/lib\libstartup.a(_main.o)
                0x00000000000000e0                smp_hook_rtn
                0x00000000000000e8                first_bootstrap_start_vaddr
                0x00000000000000f0                system_dcache_idx
                0x00000000000000f4                system_icache_idx
                0x00000000000000f8                max_cpus
                0x00000000000000fc                paddr_bits
 .data          0x0000000000000100        0x0 C:/Users/Dell/ide-8.0-workspace/hw.raspberrypi-bcm2712-rpi5_2/src/hardware/startup/boards/../../../../install/aarch64le/usr/lib\libstartup.a(_start.o)
 .data          0x0000000000000100        0x0 C:/Users/Dell/ide-8.0-workspace/hw.raspberrypi-bcm2712-rpi5_2/src/hardware/startup/boards/../../../../install/aarch64le/usr/lib\libstartup.a(as_add_containing.o)
 .data          0x0000000000000100        0x0 C:/Users/Dell/ide-8.0-workspace/hw.raspberrypi-bcm2712-rpi5_2/src/hardware/startup/boards/../../../../install/aarch64le/usr/lib\libstartup.a(as_find_containing.o)
 .data          0x0000000000000100        0x0 C:/Users/Dell/ide-8.0-workspace/hw.raspberrypi-bcm2712-rpi5_2/src/hardware/startup/boards/../../../../install/aarch64le/usr/lib\libstartup.a(as_off2info.o)
 .data          0x0000000000000100        0x0 C:/Users/Dell/ide-8.0-workspace/hw.raspberrypi-bcm2712-rpi5_2/src/hardware/startup/boards/../../../../install/aarch64le/usr/lib\libstartup.a(board_init.o)
 .data          0x0000000000000100        0x0 C:/Users/Dell/ide-8.0-workspace/hw.raspberrypi-bcm2712-rpi5_2/src/hardware/startup/boards/../../../../install/aarch64le/usr/lib\libstartup.a(bootstrap_cmdline.o)
 .data          0x0000000000000100        0x0 C:/Users/Dell/ide-8.0-workspace/hw.raspberrypi-bcm2712-rpi5_2/src/hardware/startup/boards/../../../../install/aarch64le/usr/lib\libstartup.a(callout_debug_pl011.o)
 .data          0x0000000000000100        0x0 C:/Users/Dell/ide-8.0-workspace/hw.raspberrypi-bcm2712-rpi5_2/src/hardware/startup/boards/../../../../install/aarch64le/usr/lib\libstartup.a(callout_sendipi_gic_v2.o)
 .data          0x0000000000000100        0x8 C:/Users/Dell/ide-8.0-workspace/hw.raspberrypi-bcm2712-rpi5_2/src/hardware/startup/boards/../../../../install/aarch64le/usr/lib\libstartup.a(callouts.o)
                0x0000000000000100                callout_output_rtn
 .data          0x0000000000000108        0x0 C:/Users/Dell/ide-8.0-workspace/hw.raspberrypi-bcm2712-rpi5_2/src/hardware/startup/boards/../../../../install/aarch64le/usr/lib\libstartup.a(common_options.o)
 .data          0x0000000000000108        0x0 C:/Users/Dell/ide-8.0-workspace/hw.raspberrypi-bcm2712-rpi5_2/src/hardware/startup/boards/../../../../install/aarch64le/usr/lib\libstartup.a(cpu_cluster_add.o)
 .data          0x0000000000000108       0x50 C:/Users/Dell/ide-8.0-workspace/hw.raspberrypi-bcm2712-rpi5_2/src/hardware/startup/boards/../../../../install/aarch64le/usr/lib\libstartup.a(cpu_common_options.o)
 .data          0x0000000000000158       0x14 C:/Users/Dell/ide-8.0-workspace/hw.raspberrypi-bcm2712-rpi5_2/src/hardware/startup/boards/../../../../install/aarch64le/usr/lib\libstartup.a(cpu_startup.o)
                0x0000000000000158                __page_size
                0x0000000000000160                ssbs_active
                0x0000000000000164                spectre_v2_active
                0x0000000000000168                meltdown_active
 *fill*         0x000000000000016c        0x4 
 .data          0x0000000000000170      0xc10 C:/Users/Dell/ide-8.0-workspace/hw.raspberrypi-bcm2712-rpi5_2/src/hardware/startup/boards/../../../../install/aarch64le/usr/lib\libstartup.a(cstart.o)
                0x0000000000000170                boot_args
                0x0000000000000180                stack_addr_lo
                0x0000000000000d80                stack_addr_hi
                0x0000000000000d80                stack
 .data          0x0000000000000d80        0x0 C:/Users/Dell/ide-8.0-workspace/hw.raspberrypi-bcm2712-rpi5_2/src/hardware/startup/boards/../../../../install/aarch64le/usr/lib\libstartup.a(debug.o)
 .data          0x0000000000000d80        0x0 C:/Users/Dell/ide-8.0-workspace/hw.raspberrypi-bcm2712-rpi5_2/src/hardware/startup/boards/../../../../install/aarch64le/usr/lib\libstartup.a(fdt_init_bootopt.o)
 .data          0x0000000000000d80        0x0 C:/Users/Dell/ide-8.0-workspace/hw.raspberrypi-bcm2712-rpi5_2/src/hardware/startup/boards/../../../../install/aarch64le/usr/lib\libstartup.a(fdt_psci_configure.o)
 .data          0x0000000000000d80        0x0 C:/Users/Dell/ide-8.0-workspace/hw.raspberrypi-bcm2712-rpi5_2/src/hardware/startup/boards/../../../../install/aarch64le/usr/lib\libstartup.a(fdt_vars.o)
 .data          0x0000000000000d80        0x0 C:/Users/Dell/ide-8.0-workspace/hw.raspberrypi-bcm2712-rpi5_2/src/hardware/startup/boards/../../../../install/aarch64le/usr/lib\libstartup.a(getopt.o)
 .data          0x0000000000000d80        0x0 C:/Users/Dell/ide-8.0-workspace/hw.raspberrypi-bcm2712-rpi5_2/src/hardware/startup/boards/../../../../install/aarch64le/usr/lib\libstartup.a(getsize.o)
 .data          0x0000000000000d80        0x0 C:/Users/Dell/ide-8.0-workspace/hw.raspberrypi-bcm2712-rpi5_2/src/hardware/startup/boards/../../../../install/aarch64le/usr/lib\libstartup.a(gic.o)
 .data          0x0000000000000d80       0xc0 C:/Users/Dell/ide-8.0-workspace/hw.raspberrypi-bcm2712-rpi5_2/src/hardware/startup/boards/../../../../install/aarch64le/usr/lib\libstartup.a(gic_v2.o)
 .data          0x0000000000000e40        0x0 C:/Users/Dell/ide-8.0-workspace/hw.raspberrypi-bcm2712-rpi5_2/src/hardware/startup/boards/../../../../install/aarch64le/usr/lib\libstartup.a(hw_serpl011.o)
 .data          0x0000000000000e40        0x0 C:/Users/Dell/ide-8.0-workspace/hw.raspberrypi-bcm2712-rpi5_2/src/hardware/startup/boards/../../../../install/aarch64le/usr/lib\libstartup.a(hwi_add_nanospin.o)
 .data          0x0000000000000e40        0x0 C:/Users/Dell/ide-8.0-workspace/hw.raspberrypi-bcm2712-rpi5_2/src/hardware/startup/boards/../../../../install/aarch64le/usr/lib\libstartup.a(hwi_alloc.o)
 .data          0x0000000000000e40        0x0 C:/Users/Dell/ide-8.0-workspace/hw.raspberrypi-bcm2712-rpi5_2/src/hardware/startup/boards/../../../../install/aarch64le/usr/lib\libstartup.a(hwi_find_as.o)
 .data          0x0000000000000e40        0x0 C:/Users/Dell/ide-8.0-workspace/hw.raspberrypi-bcm2712-rpi5_2/src/hardware/startup/boards/../../../../install/aarch64le/usr/lib\libstartup.a(hwidev_add.o)
 .data          0x0000000000000e40        0x0 C:/Users/Dell/ide-8.0-workspace/hw.raspberrypi-bcm2712-rpi5_2/src/hardware/startup/boards/../../../../install/aarch64le/usr/lib\libstartup.a(hwidev_add_enet.o)
 .data          0x0000000000000e40        0x0 C:/Users/Dell/ide-8.0-workspace/hw.raspberrypi-bcm2712-rpi5_2/src/hardware/startup/boards/../../../../install/aarch64le/usr/lib\libstartup.a(hwidev_add_timer.o)
 .data          0x0000000000000e40        0x0 C:/Users/Dell/ide-8.0-workspace/hw.raspberrypi-bcm2712-rpi5_2/src/hardware/startup/boards/../../../../install/aarch64le/usr/lib\libstartup.a(hwitag_add_common.o)
 .data          0x0000000000000e40        0x0 C:/Users/Dell/ide-8.0-workspace/hw.raspberrypi-bcm2712-rpi5_2/src/hardware/startup/boards/../../../../install/aarch64le/usr/lib\libstartup.a(hwitag_add_inputclk.o)
 .data          0x0000000000000e40        0x0 C:/Users/Dell/ide-8.0-workspace/hw.raspberrypi-bcm2712-rpi5_2/src/hardware/startup/boards/../../../../install/aarch64le/usr/lib\libstartup.a(hwitag_add_irq.o)
 .data          0x0000000000000e40        0x0 C:/Users/Dell/ide-8.0-workspace/hw.raspberrypi-bcm2712-rpi5_2/src/hardware/startup/boards/../../../../install/aarch64le/usr/lib\libstartup.a(hwitag_add_location.o)
 .data          0x0000000000000e40        0x0 C:/Users/Dell/ide-8.0-workspace/hw.raspberrypi-bcm2712-rpi5_2/src/hardware/startup/boards/../../../../install/aarch64le/usr/lib\libstartup.a(hwitag_add_nicaddr.o)
 .data          0x0000000000000e40        0x0 C:/Users/Dell/ide-8.0-workspace/hw.raspberrypi-bcm2712-rpi5_2/src/hardware/startup/boards/../../../../install/aarch64le/usr/lib\libstartup.a(hwitag_add_nicphyaddr.o)
 .data          0x0000000000000e40        0x0 C:/Users/Dell/ide-8.0-workspace/hw.raspberrypi-bcm2712-rpi5_2/src/hardware/startup/boards/../../../../install/aarch64le/usr/lib\libstartup.a(hwitag_add_regname.o)
 .data          0x0000000000000e40        0x0 C:/Users/Dell/ide-8.0-workspace/hw.raspberrypi-bcm2712-rpi5_2/src/hardware/startup/boards/../../../../install/aarch64le/usr/lib\libstartup.a(hwitag_set_inputclk.o)
 .data          0x0000000000000e40        0x0 C:/Users/Dell/ide-8.0-workspace/hw.raspberrypi-bcm2712-rpi5_2/src/hardware/startup/boards/../../../../install/aarch64le/usr/lib\libstartup.a(hwitag_set_ivec.o)
 .data          0x0000000000000e40        0x0 C:/Users/Dell/ide-8.0-workspace/hw.raspberrypi-bcm2712-rpi5_2/src/hardware/startup/boards/../../../../install/aarch64le/usr/lib\libstartup.a(hypervisor_setup.o)
 .data          0x0000000000000e40        0x0 C:/Users/Dell/ide-8.0-workspace/hw.raspberrypi-bcm2712-rpi5_2/src/hardware/startup/boards/../../../../install/aarch64le/usr/lib\libstartup.a(init_cacheattr.o)
 .data          0x0000000000000e40        0x0 C:/Users/Dell/ide-8.0-workspace/hw.raspberrypi-bcm2712-rpi5_2/src/hardware/startup/boards/../../../../install/aarch64le/usr/lib\libstartup.a(init_cpuinfo.o)
 .data          0x0000000000000e40       0x18 C:/Users/Dell/ide-8.0-workspace/hw.raspberrypi-bcm2712-rpi5_2/src/hardware/startup/boards/../../../../install/aarch64le/usr/lib\libstartup.a(init_mmu.o)
                0x0000000000000e40                tcr_el1
                0x0000000000000e48                sctlr_el1
                0x0000000000000e50                mair_el1
 .data          0x0000000000000e58        0x0 C:/Users/Dell/ide-8.0-workspace/hw.raspberrypi-bcm2712-rpi5_2/src/hardware/startup/boards/../../../../install/aarch64le/usr/lib\libstartup.a(init_qtime.o)
 .data          0x0000000000000e58        0x0 C:/Users/Dell/ide-8.0-workspace/hw.raspberrypi-bcm2712-rpi5_2/src/hardware/startup/boards/../../../../install/aarch64le/usr/lib\libstartup.a(init_qtime_v8gt.o)
 .data          0x0000000000000e58        0x0 C:/Users/Dell/ide-8.0-workspace/hw.raspberrypi-bcm2712-rpi5_2/src/hardware/startup/boards/../../../../install/aarch64le/usr/lib\libstartup.a(init_smp.o)
 .data          0x0000000000000e58        0x0 C:/Users/Dell/ide-8.0-workspace/hw.raspberrypi-bcm2712-rpi5_2/src/hardware/startup/boards/../../../../install/aarch64le/usr/lib\libstartup.a(init_system_private.o)
 .data          0x0000000000000e58        0x0 C:/Users/Dell/ide-8.0-workspace/hw.raspberrypi-bcm2712-rpi5_2/src/hardware/startup/boards/../../../../install/aarch64le/usr/lib\libstartup.a(invert_timer_freq.o)
 .data          0x0000000000000e58        0x8 C:/Users/Dell/ide-8.0-workspace/hw.raspberrypi-bcm2712-rpi5_2/src/hardware/startup/boards/../../../../install/aarch64le/usr/lib\libstartup.a(jtag.o)
 .data          0x0000000000000e60        0x8 C:/Users/Dell/ide-8.0-workspace/hw.raspberrypi-bcm2712-rpi5_2/src/hardware/startup/boards/../../../../install/aarch64le/usr/lib\libstartup.a(kprintf.o)
 .data          0x0000000000000e68        0x0 C:/Users/Dell/ide-8.0-workspace/hw.raspberrypi-bcm2712-rpi5_2/src/hardware/startup/boards/../../../../install/aarch64le/usr/lib\libstartup.a(load_ifs.o)
 .data          0x0000000000000e68        0x0 C:/Users/Dell/ide-8.0-workspace/hw.raspberrypi-bcm2712-rpi5_2/src/hardware/startup/boards/../../../../install/aarch64le/usr/lib\libstartup.a(map_callout_io.o)
 .data          0x0000000000000e68        0x0 C:/Users/Dell/ide-8.0-workspace/hw.raspberrypi-bcm2712-rpi5_2/src/hardware/startup/boards/../../../../install/aarch64le/usr/lib\libstartup.a(map_startup_mem.o)
 .data          0x0000000000000e68        0x0 C:/Users/Dell/ide-8.0-workspace/hw.raspberrypi-bcm2712-rpi5_2/src/hardware/startup/boards/../../../../install/aarch64le/usr/lib\libstartup.a(memcpy.o)
 .data          0x0000000000000e68        0x0 C:/Users/Dell/ide-8.0-workspace/hw.raspberrypi-bcm2712-rpi5_2/src/hardware/startup/boards/../../../../install/aarch64le/usr/lib\libstartup.a(memfuncs.o)
 .data          0x0000000000000e68        0x0 C:/Users/Dell/ide-8.0-workspace/hw.raspberrypi-bcm2712-rpi5_2/src/hardware/startup/boards/../../../../install/aarch64le/usr/lib\libstartup.a(memmove.o)
 .data          0x0000000000000e68      0x180 C:/Users/Dell/ide-8.0-workspace/hw.raspberrypi-bcm2712-rpi5_2/src/hardware/startup/boards/../../../../install/aarch64le/usr/lib\libstartup.a(print_sysp.o)
 *fill*         0x0000000000000fe8        0x8 
 .data          0x0000000000000ff0        0x8 C:/Users/Dell/ide-8.0-workspace/hw.raspberrypi-bcm2712-rpi5_2/src/hardware/startup/boards/../../../../install/aarch64le/usr/lib\libstartup.a(psci_call.o)
                0x0000000000000ff0                psci_call
 .data          0x0000000000000ff8        0x4 C:/Users/Dell/ide-8.0-workspace/hw.raspberrypi-bcm2712-rpi5_2/src/hardware/startup/boards/../../../../install/aarch64le/usr/lib\libstartup.a(psci_smp.o)
                0x0000000000000ff8                psci_cpu_on_cmd
 *fill*         0x0000000000000ffc        0x4 
 .data          0x0000000000001000        0x8 C:/Users/Dell/ide-8.0-workspace/hw.raspberrypi-bcm2712-rpi5_2/src/hardware/startup/boards/../../../../install/aarch64le/usr/lib\libstartup.a(ram.o)
 .data          0x0000000000001008        0x0 C:/Users/Dell/ide-8.0-workspace/hw.raspberrypi-bcm2712-rpi5_2/src/hardware/startup/boards/../../../../install/aarch64le/usr/lib\libstartup.a(restore_ifs.o)
 *fill*         0x0000000000001008        0x8 
 .data          0x0000000000001010     0x2000 C:/Users/Dell/ide-8.0-workspace/hw.raspberrypi-bcm2712-rpi5_2/src/hardware/startup/boards/../../../../install/aarch64le/usr/lib\libstartup.a(smp_start.o)
 .data          0x0000000000003010        0x0 C:/Users/Dell/ide-8.0-workspace/hw.raspberrypi-bcm2712-rpi5_2/src/hardware/startup/boards/../../../../install/aarch64le/usr/lib\libstartup.a(ssp.o)
 .data          0x0000000000003010        0x0 C:/Users/Dell/ide-8.0-workspace/hw.raspberrypi-bcm2712-rpi5_2/src/hardware/startup/boards/../../../../install/aarch64le/usr/lib\libstartup.a(startnext.o)
 .data          0x0000000000003010        0x0 C:/Users/Dell/ide-8.0-workspace/hw.raspberrypi-bcm2712-rpi5_2/src/hardware/startup/boards/../../../../install/aarch64le/usr/lib\libstartup.a(strings.o)
 .data          0x0000000000003010        0x0 C:/Users/Dell/ide-8.0-workspace/hw.raspberrypi-bcm2712-rpi5_2/src/hardware/startup/boards/../../../../install/aarch64le/usr/lib\libstartup.a(strtoul.o)
 .data          0x0000000000003010        0x0 C:/Users/Dell/ide-8.0-workspace/hw.raspberrypi-bcm2712-rpi5_2/src/hardware/startup/boards/../../../../install/aarch64le/usr/lib\libstartup.a(syspage_memory.o)
 .data          0x0000000000003010        0x0 C:/Users/Dell/ide-8.0-workspace/hw.raspberrypi-bcm2712-rpi5_2/src/hardware/startup/boards/../../../../install/aarch64le/usr/lib\libstartup.a(tweak_cmdline.o)
 .data          0x0000000000003010        0x0 C:/Users/Dell/ide-8.0-workspace/hw.raspberrypi-bcm2712-rpi5_2/src/hardware/startup/boards/../../../../install/aarch64le/usr/lib\libstartup.a(uncompress.o)
 .data          0x0000000000003010        0x0 C:/Users/Dell/ide-8.0-workspace/hw.raspberrypi-bcm2712-rpi5_2/src/hardware/startup/boards/../../../../install/aarch64le/usr/lib\libstartup.a(uncompress_ucl.o)
 .data          0x0000000000003010        0x0 C:/Users/Dell/ide-8.0-workspace/hw.raspberrypi-bcm2712-rpi5_2/src/hardware/startup/boards/../../../../install/aarch64le/usr/lib\libstartup.a(vbar_default.o)
 .data          0x0000000000003010        0x0 C:/Users/Dell/ide-8.0-workspace/hw.raspberrypi-bcm2712-rpi5_2/src/hardware/startup/boards/../../../../install/aarch64le/usr/lib\libstartup.a(_start_el1.o)
 .data          0x0000000000003010        0x0 C:/Users/Dell/ide-8.0-workspace/hw.raspberrypi-bcm2712-rpi5_2/src/hardware/startup/boards/../../../../install/aarch64le/usr/lib\libstartup.a(aarch64_cache_flush.o)
 .data          0x0000000000003010       0xa8 C:/Users/Dell/ide-8.0-workspace/hw.raspberrypi-bcm2712-rpi5_2/src/hardware/startup/boards/../../../../install/aarch64le/usr/lib\libstartup.a(aarch64_cpuid.o)
                0x0000000000003010                aarch64_cpuid
 .data          0x00000000000030b8        0x0 C:/Users/Dell/ide-8.0-workspace/hw.raspberrypi-bcm2712-rpi5_2/src/hardware/startup/boards/../../../../install/aarch64le/usr/lib\libstartup.a(aarch64_cpuspeed.o)
 .data          0x00000000000030b8        0x0 C:/Users/Dell/ide-8.0-workspace/hw.raspberrypi-bcm2712-rpi5_2/src/hardware/startup/boards/../../../../install/aarch64le/usr/lib\libstartup.a(aarch64_map.o)
 .data          0x00000000000030b8        0x0 C:/Users/Dell/ide-8.0-workspace/hw.raspberrypi-bcm2712-rpi5_2/src/hardware/startup/boards/../../../../install/aarch64le/usr/lib\libstartup.a(add_cache.o)
 .data          0x00000000000030b8        0x0 C:/Users/Dell/ide-8.0-workspace/hw.raspberrypi-bcm2712-rpi5_2/src/hardware/startup/boards/../../../../install/aarch64le/usr/lib\libstartup.a(add_interrupt.o)
 .data          0x00000000000030b8        0x0 C:/Users/Dell/ide-8.0-workspace/hw.raspberrypi-bcm2712-rpi5_2/src/hardware/startup/boards/../../../../install/aarch64le/usr/lib\libstartup.a(alloc_qtime.o)
 .data          0x00000000000030b8        0x0 C:/Users/Dell/ide-8.0-workspace/hw.raspberrypi-bcm2712-rpi5_2/src/hardware/startup/boards/../../../../install/aarch64le/usr/lib\libstartup.a(ap_fail.o)
 .data          0x00000000000030b8        0x0 C:/Users/Dell/ide-8.0-workspace/hw.raspberrypi-bcm2712-rpi5_2/src/hardware/startup/boards/../../../../install/aarch64le/usr/lib\libstartup.a(as_add.o)
 .data          0x00000000000030b8        0x0 C:/Users/Dell/ide-8.0-workspace/hw.raspberrypi-bcm2712-rpi5_2/src/hardware/startup/boards/../../../../install/aarch64le/usr/lib\libstartup.a(as_add64.o)
 .data          0x00000000000030b8        0x0 C:/Users/Dell/ide-8.0-workspace/hw.raspberrypi-bcm2712-rpi5_2/src/hardware/startup/boards/../../../../install/aarch64le/usr/lib\libstartup.a(as_default.o)
 .data          0x00000000000030b8        0x0 C:/Users/Dell/ide-8.0-workspace/hw.raspberrypi-bcm2712-rpi5_2/src/hardware/startup/boards/../../../../install/aarch64le/usr/lib\libstartup.a(as_find.o)
 .data          0x00000000000030b8        0x0 C:/Users/Dell/ide-8.0-workspace/hw.raspberrypi-bcm2712-rpi5_2/src/hardware/startup/boards/../../../../install/aarch64le/usr/lib\libstartup.a(board_sysctl.o)
 .data          0x00000000000030b8        0x0 C:/Users/Dell/ide-8.0-workspace/hw.raspberrypi-bcm2712-rpi5_2/src/hardware/startup/boards/../../../../install/aarch64le/usr/lib\libstartup.a(boot_regs.o)
 .data          0x00000000000030b8        0x0 C:/Users/Dell/ide-8.0-workspace/hw.raspberrypi-bcm2712-rpi5_2/src/hardware/startup/boards/../../../../install/aarch64le/usr/lib\libstartup.a(callout_cache_armv8.o)
 .data          0x00000000000030b8        0x0 C:/Users/Dell/ide-8.0-workspace/hw.raspberrypi-bcm2712-rpi5_2/src/hardware/startup/boards/../../../../install/aarch64le/usr/lib\libstartup.a(callout_interrupt_gic_v2.o)
 .data          0x00000000000030b8        0x0 C:/Users/Dell/ide-8.0-workspace/hw.raspberrypi-bcm2712-rpi5_2/src/hardware/startup/boards/../../../../install/aarch64le/usr/lib\libstartup.a(callout_smp_spin.o)
 .data          0x00000000000030b8        0x0 C:/Users/Dell/ide-8.0-workspace/hw.raspberrypi-bcm2712-rpi5_2/src/hardware/startup/boards/../../../../install/aarch64le/usr/lib\libstartup.a(cpu_startnext.o)
 .data          0x00000000000030b8        0x4 C:/Users/Dell/ide-8.0-workspace/hw.raspberrypi-bcm2712-rpi5_2/src/hardware/startup/boards/../../../../install/aarch64le/usr/lib\libstartup.a(cpu_syspage_memory.o)
                0x00000000000030b8                syspage_roundup
 *fill*         0x00000000000030bc        0x4 
 .data          0x00000000000030c0       0x20 C:/Users/Dell/ide-8.0-workspace/hw.raspberrypi-bcm2712-rpi5_2/src/hardware/startup/boards/../../../../install/aarch64le/usr/lib\libstartup.a(cpuid_a35.o)
                0x00000000000030c0                cpuid_a35
 .data          0x00000000000030e0       0x20 C:/Users/Dell/ide-8.0-workspace/hw.raspberrypi-bcm2712-rpi5_2/src/hardware/startup/boards/../../../../install/aarch64le/usr/lib\libstartup.a(cpuid_a53.o)
                0x00000000000030e0                cpuid_a53
 .data          0x0000000000003100       0x20 C:/Users/Dell/ide-8.0-workspace/hw.raspberrypi-bcm2712-rpi5_2/src/hardware/startup/boards/../../../../install/aarch64le/usr/lib\libstartup.a(cpuid_a55.o)
                0x0000000000003100                cpuid_a55
 .data          0x0000000000003120       0x20 C:/Users/Dell/ide-8.0-workspace/hw.raspberrypi-bcm2712-rpi5_2/src/hardware/startup/boards/../../../../install/aarch64le/usr/lib\libstartup.a(cpuid_a57.o)
                0x0000000000003120                cpuid_a57
 .data          0x0000000000003140       0x20 C:/Users/Dell/ide-8.0-workspace/hw.raspberrypi-bcm2712-rpi5_2/src/hardware/startup/boards/../../../../install/aarch64le/usr/lib\libstartup.a(cpuid_a72.o)
                0x0000000000003140                cpuid_a72
 .data          0x0000000000003160       0x20 C:/Users/Dell/ide-8.0-workspace/hw.raspberrypi-bcm2712-rpi5_2/src/hardware/startup/boards/../../../../install/aarch64le/usr/lib\libstartup.a(cpuid_a720.o)
                0x0000000000003160                cpuid_a720
 .data          0x0000000000003180       0x20 C:/Users/Dell/ide-8.0-workspace/hw.raspberrypi-bcm2712-rpi5_2/src/hardware/startup/boards/../../../../install/aarch64le/usr/lib\libstartup.a(cpuid_a720ae.o)
                0x0000000000003180                cpuid_a720ae
 .data          0x00000000000031a0       0x20 C:/Users/Dell/ide-8.0-workspace/hw.raspberrypi-bcm2712-rpi5_2/src/hardware/startup/boards/../../../../install/aarch64le/usr/lib\libstartup.a(cpuid_a75.o)
                0x00000000000031a0                cpuid_a75
 .data          0x00000000000031c0       0x20 C:/Users/Dell/ide-8.0-workspace/hw.raspberrypi-bcm2712-rpi5_2/src/hardware/startup/boards/../../../../install/aarch64le/usr/lib\libstartup.a(cpuid_a76.o)
                0x00000000000031c0                cpuid_a76
 .data          0x00000000000031e0       0x20 C:/Users/Dell/ide-8.0-workspace/hw.raspberrypi-bcm2712-rpi5_2/src/hardware/startup/boards/../../../../install/aarch64le/usr/lib\libstartup.a(cpuid_a78ae.o)
                0x00000000000031e0                cpuid_a78ae
 .data          0x0000000000003200       0x20 C:/Users/Dell/ide-8.0-workspace/hw.raspberrypi-bcm2712-rpi5_2/src/hardware/startup/boards/../../../../install/aarch64le/usr/lib\libstartup.a(cpuid_d15.o)
                0x0000000000003200                cpuid_d15
 .data          0x0000000000003220       0x20 C:/Users/Dell/ide-8.0-workspace/hw.raspberrypi-bcm2712-rpi5_2/src/hardware/startup/boards/../../../../install/aarch64le/usr/lib\libstartup.a(cpuid_d20.o)
                0x0000000000003220                cpuid_d20
 .data          0x0000000000003240       0x20 C:/Users/Dell/ide-8.0-workspace/hw.raspberrypi-bcm2712-rpi5_2/src/hardware/startup/boards/../../../../install/aarch64le/usr/lib\libstartup.a(cpuid_n1.o)
                0x0000000000003240                cpuid_n1
 .data          0x0000000000003260       0x20 C:/Users/Dell/ide-8.0-workspace/hw.raspberrypi-bcm2712-rpi5_2/src/hardware/startup/boards/../../../../install/aarch64le/usr/lib\libstartup.a(cpuid_neo_v1.o)
                0x0000000000003260                cpuid_neo_v1
 .data          0x0000000000003280       0x20 C:/Users/Dell/ide-8.0-workspace/hw.raspberrypi-bcm2712-rpi5_2/src/hardware/startup/boards/../../../../install/aarch64le/usr/lib\libstartup.a(cpuid_neo_v2.o)
                0x0000000000003280                cpuid_neo_v2
 .data          0x00000000000032a0       0x20 C:/Users/Dell/ide-8.0-workspace/hw.raspberrypi-bcm2712-rpi5_2/src/hardware/startup/boards/../../../../install/aarch64le/usr/lib\libstartup.a(cpuid_v8_aem.o)
                0x00000000000032a0                cpuid_v8_aem
 .data          0x00000000000032c0       0x20 C:/Users/Dell/ide-8.0-workspace/hw.raspberrypi-bcm2712-rpi5_2/src/hardware/startup/boards/../../../../install/aarch64le/usr/lib\libstartup.a(cpuid_v8_fm.o)
                0x00000000000032c0                cpuid_v8_fm
 .data          0x00000000000032e0       0x20 C:/Users/Dell/ide-8.0-workspace/hw.raspberrypi-bcm2712-rpi5_2/src/hardware/startup/boards/../../../../install/aarch64le/usr/lib\libstartup.a(cpuid_x2.o)
                0x00000000000032e0                cpuid_x2
 .data          0x0000000000003300       0x20 C:/Users/Dell/ide-8.0-workspace/hw.raspberrypi-bcm2712-rpi5_2/src/hardware/startup/boards/../../../../install/aarch64le/usr/lib\libstartup.a(cpuid_x4.o)
                0x0000000000003300                cpuid_x4
 .data          0x0000000000003320       0x20 C:/Users/Dell/ide-8.0-workspace/hw.raspberrypi-bcm2712-rpi5_2/src/hardware/startup/boards/../../../../install/aarch64le/usr/lib\libstartup.a(cpuid_x925.o)
                0x0000000000003320                cpuid_x925
 .data          0x0000000000003340        0x0 C:/Users/Dell/ide-8.0-workspace/hw.raspberrypi-bcm2712-rpi5_2/src/hardware/startup/boards/../../../../install/aarch64le/usr/lib\libstartup.a(crash_done.o)
 .data          0x0000000000003340        0x0 C:/Users/Dell/ide-8.0-workspace/hw.raspberrypi-bcm2712-rpi5_2/src/hardware/startup/boards/../../../../install/aarch64le/usr/lib\libstartup.a(dummy_print_char.o)
 .data          0x0000000000003340        0x0 C:/Users/Dell/ide-8.0-workspace/hw.raspberrypi-bcm2712-rpi5_2/src/hardware/startup/boards/../../../../install/aarch64le/usr/lib\libstartup.a(elf.o)
 .data          0x0000000000003340        0x0 C:/Users/Dell/ide-8.0-workspace/hw.raspberrypi-bcm2712-rpi5_2/src/hardware/startup/boards/../../../../install/aarch64le/usr/lib\libstartup.a(elf32.o)
 .data          0x0000000000003340        0x0 C:/Users/Dell/ide-8.0-workspace/hw.raspberrypi-bcm2712-rpi5_2/src/hardware/startup/boards/../../../../install/aarch64le/usr/lib\libstartup.a(elf64.o)
 .data          0x0000000000003340        0x0 C:/Users/Dell/ide-8.0-workspace/hw.raspberrypi-bcm2712-rpi5_2/src/hardware/startup/boards/../../../../install/aarch64le/usr/lib\libstartup.a(elf_map.o)
 .data          0x0000000000003340        0x0 C:/Users/Dell/ide-8.0-workspace/hw.raspberrypi-bcm2712-rpi5_2/src/hardware/startup/boards/../../../../install/aarch64le/usr/lib\libstartup.a(hwi_add_device.o)
 .data          0x0000000000003340        0x0 C:/Users/Dell/ide-8.0-workspace/hw.raspberrypi-bcm2712-rpi5_2/src/hardware/startup/boards/../../../../install/aarch64le/usr/lib\libstartup.a(hwi_default.o)
 .data          0x0000000000003340        0x0 C:/Users/Dell/ide-8.0-workspace/hw.raspberrypi-bcm2712-rpi5_2/src/hardware/startup/boards/../../../../install/aarch64le/usr/lib\libstartup.a(hypervisor.o)
 .data          0x0000000000003340        0x0 C:/Users/Dell/ide-8.0-workspace/hw.raspberrypi-bcm2712-rpi5_2/src/hardware/startup/boards/../../../../install/aarch64le/usr/lib\libstartup.a(hypervisor_enable.o)
 .data          0x0000000000003340        0x0 C:/Users/Dell/ide-8.0-workspace/hw.raspberrypi-bcm2712-rpi5_2/src/hardware/startup/boards/../../../../install/aarch64le/usr/lib\libstartup.a(init_mitigation_mem.o)
 .data          0x0000000000003340        0x0 C:/Users/Dell/ide-8.0-workspace/hw.raspberrypi-bcm2712-rpi5_2/src/hardware/startup/boards/../../../../install/aarch64le/usr/lib\libstartup.a(rtc_time.o)
 .data          0x0000000000003340        0x0 C:/Users/Dell/ide-8.0-workspace/hw.raspberrypi-bcm2712-rpi5_2/src/hardware/startup/boards/../../../../install/aarch64le/usr/lib\libstartup.a(startup_info.o)
 .data          0x0000000000003340        0x0 C:/Users/Dell/ide-8.0-workspace/hw.raspberrypi-bcm2712-rpi5_2/src/hardware/startup/boards/../../../../install/aarch64le/usr/lib\libstartup.a(vstart.o)
 .data          0x0000000000003340        0x0 C:/Users/Dell/qnx800/target/qnx/aarch64le/usr/lib\libucl.a(n2b_d.o)
 .data          0x0000000000003340        0x0 C:/Users/Dell/qnx800/target/qnx/aarch64le/usr/lib\libdrvr.a(hwi_find_unit.o)
 .data          0x0000000000003340        0x0 C:/Users/Dell/qnx800/target/qnx/aarch64le/usr/lib\libdrvr.a(hwi_tag_find.o)
 .data          0x0000000000003340        0x0 C:/Users/Dell/qnx800/target/qnx/aarch64le/usr/lib\libdrvr.a(hwi_find_bus.o)
 .data          0x0000000000003340        0x0 C:/Users/Dell/qnx800/target/qnx/aarch64le/usr/lib\libdrvr.a(hwi_find_device.o)
 .data          0x0000000000003340        0x0 C:/Users/Dell/qnx800/target/qnx/aarch64le/usr/lib\libdrvr.a(hwi_find.o)
 .data          0x0000000000003340        0x0 C:/Users/Dell/qnx800/target/qnx/aarch64le/usr/lib\libfdt.a(fdt.o)
 .data          0x0000000000003340        0x0 C:/Users/Dell/qnx800/target/qnx/aarch64le/usr/lib\libfdt.a(fdt_ro.o)
 .data          0x0000000000003340        0x0 C:/Users/Dell/qnx800/target/qnx/aarch64le/lib\libc.a(hwi_find_item.o)
 .data          0x0000000000003340        0x0 C:/Users/Dell/qnx800/target/qnx/aarch64le/lib\libc.a(hwi_next_tag.o)
 .data          0x0000000000003340        0x0 C:/Users/Dell/qnx800/target/qnx/aarch64le/lib\libc.a(hwi_off2tag.o)
 .data          0x0000000000003340        0x0 C:/Users/Dell/qnx800/target/qnx/aarch64le/lib\libc.a(hwi_tag2off.o)
 .data          0x0000000000003340        0x0 C:/Users/Dell/qnx800/target/qnx/aarch64le/lib\libc.a(memchr.o)
 .data          0x0000000000003340        0x0 C:/Users/Dell/qnx800/target/qnx/aarch64le/lib\libc.a(memcmp.o)
 .data          0x0000000000003340        0x0 C:/Users/Dell/qnx800/target/qnx/aarch64le/lib\libc.a(memset.o)
 .data          0x0000000000003340        0x0 C:/Users/Dell/qnx800/target/qnx/aarch64le/lib\libc.a(strchr.o)
 .data          0x0000000000003340        0x0 C:/Users/Dell/qnx800/target/qnx/aarch64le/lib\libc.a(strcmp.o)
 .data          0x0000000000003340        0x0 C:/Users/Dell/qnx800/target/qnx/aarch64le/lib\libc.a(strlcpy.o)
 .data          0x0000000000003340        0x0 C:/Users/Dell/qnx800/target/qnx/aarch64le/lib\libc.a(strlen.o)
 .data          0x0000000000003340        0x0 C:/Users/Dell/qnx800/target/qnx/aarch64le/lib\libc.a(strnlen.o)
 .data          0x0000000000003340        0x0 C:/Users/Dell/qnx800/target/qnx/aarch64le/lib\libc.a(strrchr.o)
 .data          0x0000000000003340        0x0 C:/Users/Dell/qnx800/target/qnx/aarch64le/lib\libc.a(strstr.o)
 .data          0x0000000000003340        0x0 C:/Users/Dell/qnx800/target/qnx/aarch64le/lib\libc.a(__progname.o)
 .data          0x0000000000003340        0x0 C:/Users/Dell/qnx800/target/qnx/aarch64le/lib\libc.a(_ssp.o)
 .data          0x0000000000003340        0x0 C:/Users/Dell/qnx800/target/qnx/aarch64le/lib\libc.a(__stack_chk_guard.o)
 .data          0x0000000000003340        0x0 C:/Users/Dell/qnx800/target/qnx/aarch64le/lib\libc.a(getsubopt.o)
 .data          0x0000000000003340        0x0 C:/Users/Dell/qnx800/target/qnx/aarch64le/lib\libc.a(xtolotab.o)
 .data          0x0000000000003340        0x0 C:/Users/Dell/qnx800/target/qnx/aarch64le/lib\libc.a(strncasecmp.o)
 .data          0x0000000000003340        0x0 C:/Users/Dell/qnx800/target/qnx/aarch64le/lib\libc.a(strncmp.o)

.data.rel.local
                0x0000000000000000        0x8
 .data.rel.local
                0x0000000000000000        0x8 C:/Users/Dell/qnx800/target/qnx/aarch64le/lib\libc.a(xtolotab.o)
                0x0000000000000000                _Tolotab

.data1
 *(.data1)

.bss            0x0000000000000000      0x7d8
 *(.bss)
 .bss           0x0000000000000000        0x0 bcm2712_init_raminfo.o
 .bss           0x0000000000000000        0x0 board_smp.o
 .bss           0x0000000000000000        0x0 callout_reboot_bcm2712.o
 .bss           0x0000000000000000        0x4 init_aon_gpio.o
 .bss           0x0000000000000004        0x0 init_asinfo.o
 *fill*         0x0000000000000004        0x4 
 .bss           0x0000000000000008       0x80 init_board_type.o
 .bss           0x0000000000000088       0x10 init_hwinfo.o
 .bss           0x0000000000000098        0x0 init_intrinfo.o
 .bss           0x0000000000000098        0x0 init_wdt.o
 .bss           0x0000000000000098        0x8 main.o
 .bss           0x00000000000000a0        0x0 mbox.o
 .bss           0x00000000000000a0      0x214 C:/Users/Dell/ide-8.0-workspace/hw.raspberrypi-bcm2712-rpi5_2/src/hardware/startup/boards/../../../../install/aarch64le/usr/lib\libstartup.a(_main.o)
                0x00000000000000a0                shdr
                0x00000000000000a8                full_image_paddr
                0x00000000000000b0                full_ram_paddr
                0x00000000000000b8                full_imagefs_paddr
                0x0000000000000200                _argc
                0x0000000000000208                _argv
                0x0000000000000218                uefi_exit_boot_services_f
                0x0000000000000220                uefi_io_resume_f
                0x0000000000000228                uefi_io_suspend_f
                0x0000000000000230                secure_system
                0x0000000000000234                misc_flags
                0x0000000000000238                _syspage_ptr
                0x0000000000000240                timer_diff
                0x0000000000000248                timer_start
                0x0000000000000250                timer_chip
                0x0000000000000260                patch_channel
                0x0000000000000268                dbg_device
                0x0000000000000288                timer_prog_time
                0x0000000000000290                timer_freq
                0x0000000000000298                cycles_freq
                0x00000000000002a0                cpu_freq
                0x00000000000002a8                reserved_ram_list
                0x00000000000002b0                debug_flag
 .bss           0x00000000000002b4        0x0 C:/Users/Dell/ide-8.0-workspace/hw.raspberrypi-bcm2712-rpi5_2/src/hardware/startup/boards/../../../../install/aarch64le/usr/lib\libstartup.a(_start.o)
 .bss           0x00000000000002b4        0x0 C:/Users/Dell/ide-8.0-workspace/hw.raspberrypi-bcm2712-rpi5_2/src/hardware/startup/boards/../../../../install/aarch64le/usr/lib\libstartup.a(as_add_containing.o)
 .bss           0x00000000000002b4        0x0 C:/Users/Dell/ide-8.0-workspace/hw.raspberrypi-bcm2712-rpi5_2/src/hardware/startup/boards/../../../../install/aarch64le/usr/lib\libstartup.a(as_find_containing.o)
 .bss           0x00000000000002b4        0x0 C:/Users/Dell/ide-8.0-workspace/hw.raspberrypi-bcm2712-rpi5_2/src/hardware/startup/boards/../../../../install/aarch64le/usr/lib\libstartup.a(as_off2info.o)
 .bss           0x00000000000002b4        0x0 C:/Users/Dell/ide-8.0-workspace/hw.raspberrypi-bcm2712-rpi5_2/src/hardware/startup/boards/../../../../install/aarch64le/usr/lib\libstartup.a(board_init.o)
 .bss           0x00000000000002b4        0x0 C:/Users/Dell/ide-8.0-workspace/hw.raspberrypi-bcm2712-rpi5_2/src/hardware/startup/boards/../../../../install/aarch64le/usr/lib\libstartup.a(bootstrap_cmdline.o)
 .bss           0x00000000000002b4        0x0 C:/Users/Dell/ide-8.0-workspace/hw.raspberrypi-bcm2712-rpi5_2/src/hardware/startup/boards/../../../../install/aarch64le/usr/lib\libstartup.a(callout_debug_pl011.o)
 .bss           0x00000000000002b4        0x0 C:/Users/Dell/ide-8.0-workspace/hw.raspberrypi-bcm2712-rpi5_2/src/hardware/startup/boards/../../../../install/aarch64le/usr/lib\libstartup.a(callout_sendipi_gic_v2.o)
 *fill*         0x00000000000002b4        0x4 
 .bss           0x00000000000002b8       0x20 C:/Users/Dell/ide-8.0-workspace/hw.raspberrypi-bcm2712-rpi5_2/src/hardware/startup/boards/../../../../install/aarch64le/usr/lib\libstartup.a(callouts.o)
 .bss           0x00000000000002d8       0x14 C:/Users/Dell/ide-8.0-workspace/hw.raspberrypi-bcm2712-rpi5_2/src/hardware/startup/boards/../../../../install/aarch64le/usr/lib\libstartup.a(common_options.o)
                0x00000000000002e8                in_hvc
 .bss           0x00000000000002ec        0x0 C:/Users/Dell/ide-8.0-workspace/hw.raspberrypi-bcm2712-rpi5_2/src/hardware/startup/boards/../../../../install/aarch64le/usr/lib\libstartup.a(cpu_cluster_add.o)
 .bss           0x00000000000002ec        0x0 C:/Users/Dell/ide-8.0-workspace/hw.raspberrypi-bcm2712-rpi5_2/src/hardware/startup/boards/../../../../install/aarch64le/usr/lib\libstartup.a(cpu_common_options.o)
 .bss           0x00000000000002ec        0xc C:/Users/Dell/ide-8.0-workspace/hw.raspberrypi-bcm2712-rpi5_2/src/hardware/startup/boards/../../../../install/aarch64le/usr/lib\libstartup.a(cpu_startup.o)
                0x00000000000002ec                sve_requested
                0x00000000000002f0                cache_snooped
                0x00000000000002f4                pauth_active
 .bss           0x00000000000002f8        0x0 C:/Users/Dell/ide-8.0-workspace/hw.raspberrypi-bcm2712-rpi5_2/src/hardware/startup/boards/../../../../install/aarch64le/usr/lib\libstartup.a(cstart.o)
 .bss           0x00000000000002f8        0x0 C:/Users/Dell/ide-8.0-workspace/hw.raspberrypi-bcm2712-rpi5_2/src/hardware/startup/boards/../../../../install/aarch64le/usr/lib\libstartup.a(debug.o)
 .bss           0x00000000000002f8        0x0 C:/Users/Dell/ide-8.0-workspace/hw.raspberrypi-bcm2712-rpi5_2/src/hardware/startup/boards/../../../../install/aarch64le/usr/lib\libstartup.a(fdt_init_bootopt.o)
 .bss           0x00000000000002f8        0x0 C:/Users/Dell/ide-8.0-workspace/hw.raspberrypi-bcm2712-rpi5_2/src/hardware/startup/boards/../../../../install/aarch64le/usr/lib\libstartup.a(fdt_psci_configure.o)
 .bss           0x00000000000002f8       0x20 C:/Users/Dell/ide-8.0-workspace/hw.raspberrypi-bcm2712-rpi5_2/src/hardware/startup/boards/../../../../install/aarch64le/usr/lib\libstartup.a(fdt_vars.o)
                0x00000000000002f8                fdt_boot_option
                0x0000000000000300                fdt_size
                0x0000000000000308                fdt_paddr
                0x0000000000000310                fdt
 .bss           0x0000000000000318       0x20 C:/Users/Dell/ide-8.0-workspace/hw.raspberrypi-bcm2712-rpi5_2/src/hardware/startup/boards/../../../../install/aarch64le/usr/lib\libstartup.a(getopt.o)
                0x0000000000000320                optind
                0x0000000000000330                optarg
 .bss           0x0000000000000338        0x0 C:/Users/Dell/ide-8.0-workspace/hw.raspberrypi-bcm2712-rpi5_2/src/hardware/startup/boards/../../../../install/aarch64le/usr/lib\libstartup.a(getsize.o)
 .bss           0x0000000000000338       0x48 C:/Users/Dell/ide-8.0-workspace/hw.raspberrypi-bcm2712-rpi5_2/src/hardware/startup/boards/../../../../install/aarch64le/usr/lib\libstartup.a(gic.o)
                0x0000000000000338                gic_gicr_vaddr
                0x0000000000000340                gic_gicr_shift
                0x0000000000000348                gic_gicc_vaddr
                0x0000000000000350                gic_gicd_vaddr
                0x0000000000000358                gic_sendipi
                0x0000000000000360                gic_gicr
                0x0000000000000368                gic_gicc
                0x0000000000000370                gic_gicd
                0x0000000000000378                gic_cpu_init
 .bss           0x0000000000000380        0x0 C:/Users/Dell/ide-8.0-workspace/hw.raspberrypi-bcm2712-rpi5_2/src/hardware/startup/boards/../../../../install/aarch64le/usr/lib\libstartup.a(gic_v2.o)
 .bss           0x0000000000000380        0x0 C:/Users/Dell/ide-8.0-workspace/hw.raspberrypi-bcm2712-rpi5_2/src/hardware/startup/boards/../../../../install/aarch64le/usr/lib\libstartup.a(hw_serpl011.o)
 .bss           0x0000000000000380        0x0 C:/Users/Dell/ide-8.0-workspace/hw.raspberrypi-bcm2712-rpi5_2/src/hardware/startup/boards/../../../../install/aarch64le/usr/lib\libstartup.a(hwi_add_nanospin.o)
 .bss           0x0000000000000380        0x8 C:/Users/Dell/ide-8.0-workspace/hw.raspberrypi-bcm2712-rpi5_2/src/hardware/startup/boards/../../../../install/aarch64le/usr/lib\libstartup.a(hwi_alloc.o)
 .bss           0x0000000000000388        0x0 C:/Users/Dell/ide-8.0-workspace/hw.raspberrypi-bcm2712-rpi5_2/src/hardware/startup/boards/../../../../install/aarch64le/usr/lib\libstartup.a(hwi_find_as.o)
 .bss           0x0000000000000388        0x0 C:/Users/Dell/ide-8.0-workspace/hw.raspberrypi-bcm2712-rpi5_2/src/hardware/startup/boards/../../../../install/aarch64le/usr/lib\libstartup.a(hwidev_add.o)
 .bss           0x0000000000000388        0x0 C:/Users/Dell/ide-8.0-workspace/hw.raspberrypi-bcm2712-rpi5_2/src/hardware/startup/boards/../../../../install/aarch64le/usr/lib\libstartup.a(hwidev_add_enet.o)
 .bss           0x0000000000000388        0x0 C:/Users/Dell/ide-8.0-workspace/hw.raspberrypi-bcm2712-rpi5_2/src/hardware/startup/boards/../../../../install/aarch64le/usr/lib\libstartup.a(hwidev_add_timer.o)
 .bss           0x0000000000000388        0x0 C:/Users/Dell/ide-8.0-workspace/hw.raspberrypi-bcm2712-rpi5_2/src/hardware/startup/boards/../../../../install/aarch64le/usr/lib\libstartup.a(hwitag_add_common.o)
 .bss           0x0000000000000388        0x0 C:/Users/Dell/ide-8.0-workspace/hw.raspberrypi-bcm2712-rpi5_2/src/hardware/startup/boards/../../../../install/aarch64le/usr/lib\libstartup.a(hwitag_add_inputclk.o)
 .bss           0x0000000000000388        0x0 C:/Users/Dell/ide-8.0-workspace/hw.raspberrypi-bcm2712-rpi5_2/src/hardware/startup/boards/../../../../install/aarch64le/usr/lib\libstartup.a(hwitag_add_irq.o)
 .bss           0x0000000000000388        0x0 C:/Users/Dell/ide-8.0-workspace/hw.raspberrypi-bcm2712-rpi5_2/src/hardware/startup/boards/../../../../install/aarch64le/usr/lib\libstartup.a(hwitag_add_location.o)
 .bss           0x0000000000000388        0x0 C:/Users/Dell/ide-8.0-workspace/hw.raspberrypi-bcm2712-rpi5_2/src/hardware/startup/boards/../../../../install/aarch64le/usr/lib\libstartup.a(hwitag_add_nicaddr.o)
 .bss           0x0000000000000388        0x0 C:/Users/Dell/ide-8.0-workspace/hw.raspberrypi-bcm2712-rpi5_2/src/hardware/startup/boards/../../../../install/aarch64le/usr/lib\libstartup.a(hwitag_add_nicphyaddr.o)
 .bss           0x0000000000000388        0x0 C:/Users/Dell/ide-8.0-workspace/hw.raspberrypi-bcm2712-rpi5_2/src/hardware/startup/boards/../../../../install/aarch64le/usr/lib\libstartup.a(hwitag_add_regname.o)
 .bss           0x0000000000000388        0x0 C:/Users/Dell/ide-8.0-workspace/hw.raspberrypi-bcm2712-rpi5_2/src/hardware/startup/boards/../../../../install/aarch64le/usr/lib\libstartup.a(hwitag_set_inputclk.o)
 .bss           0x0000000000000388        0x0 C:/Users/Dell/ide-8.0-workspace/hw.raspberrypi-bcm2712-rpi5_2/src/hardware/startup/boards/../../../../install/aarch64le/usr/lib\libstartup.a(hwitag_set_ivec.o)
 .bss           0x0000000000000388        0x8 C:/Users/Dell/ide-8.0-workspace/hw.raspberrypi-bcm2712-rpi5_2/src/hardware/startup/boards/../../../../install/aarch64le/usr/lib\libstartup.a(hypervisor_setup.o)
 .bss           0x0000000000000390        0x0 C:/Users/Dell/ide-8.0-workspace/hw.raspberrypi-bcm2712-rpi5_2/src/hardware/startup/boards/../../../../install/aarch64le/usr/lib\libstartup.a(init_cacheattr.o)
 .bss           0x0000000000000390        0x0 C:/Users/Dell/ide-8.0-workspace/hw.raspberrypi-bcm2712-rpi5_2/src/hardware/startup/boards/../../../../install/aarch64le/usr/lib\libstartup.a(init_cpuinfo.o)
 .bss           0x0000000000000390      0x208 C:/Users/Dell/ide-8.0-workspace/hw.raspberrypi-bcm2712-rpi5_2/src/hardware/startup/boards/../../../../install/aarch64le/usr/lib\libstartup.a(init_mmu.o)
                0x0000000000000390                ttbr1
                0x0000000000000590                ttbr0
 .bss           0x0000000000000598        0x0 C:/Users/Dell/ide-8.0-workspace/hw.raspberrypi-bcm2712-rpi5_2/src/hardware/startup/boards/../../../../install/aarch64le/usr/lib\libstartup.a(init_qtime.o)
 .bss           0x0000000000000598        0x0 C:/Users/Dell/ide-8.0-workspace/hw.raspberrypi-bcm2712-rpi5_2/src/hardware/startup/boards/../../../../install/aarch64le/usr/lib\libstartup.a(init_qtime_v8gt.o)
 .bss           0x0000000000000598       0x1c C:/Users/Dell/ide-8.0-workspace/hw.raspberrypi-bcm2712-rpi5_2/src/hardware/startup/boards/../../../../install/aarch64le/usr/lib\libstartup.a(init_smp.o)
                0x0000000000000598                syspage_available
                0x00000000000005a0                smp_spin_vaddr
                0x00000000000005a8                smp_prev_output_rtn
                0x00000000000005b0                cpu_starting
 *fill*         0x00000000000005b4        0x4 
 .bss           0x00000000000005b8       0x10 C:/Users/Dell/ide-8.0-workspace/hw.raspberrypi-bcm2712-rpi5_2/src/hardware/startup/boards/../../../../install/aarch64le/usr/lib\libstartup.a(init_system_private.o)
                0x00000000000005b8                boot_vaddr_end
                0x00000000000005c0                boot_vaddr_base
 .bss           0x00000000000005c8        0x0 C:/Users/Dell/ide-8.0-workspace/hw.raspberrypi-bcm2712-rpi5_2/src/hardware/startup/boards/../../../../install/aarch64le/usr/lib\libstartup.a(invert_timer_freq.o)
 .bss           0x00000000000005c8        0x0 C:/Users/Dell/ide-8.0-workspace/hw.raspberrypi-bcm2712-rpi5_2/src/hardware/startup/boards/../../../../install/aarch64le/usr/lib\libstartup.a(jtag.o)
 .bss           0x00000000000005c8       0x18 C:/Users/Dell/ide-8.0-workspace/hw.raspberrypi-bcm2712-rpi5_2/src/hardware/startup/boards/../../../../install/aarch64le/usr/lib\libstartup.a(kprintf.o)
 .bss           0x00000000000005e0        0x0 C:/Users/Dell/ide-8.0-workspace/hw.raspberrypi-bcm2712-rpi5_2/src/hardware/startup/boards/../../../../install/aarch64le/usr/lib\libstartup.a(load_ifs.o)
 .bss           0x00000000000005e0        0x0 C:/Users/Dell/ide-8.0-workspace/hw.raspberrypi-bcm2712-rpi5_2/src/hardware/startup/boards/../../../../install/aarch64le/usr/lib\libstartup.a(map_callout_io.o)
 .bss           0x00000000000005e0        0x0 C:/Users/Dell/ide-8.0-workspace/hw.raspberrypi-bcm2712-rpi5_2/src/hardware/startup/boards/../../../../install/aarch64le/usr/lib\libstartup.a(map_startup_mem.o)
 .bss           0x00000000000005e0        0x0 C:/Users/Dell/ide-8.0-workspace/hw.raspberrypi-bcm2712-rpi5_2/src/hardware/startup/boards/../../../../install/aarch64le/usr/lib\libstartup.a(memcpy.o)
 .bss           0x00000000000005e0        0x0 C:/Users/Dell/ide-8.0-workspace/hw.raspberrypi-bcm2712-rpi5_2/src/hardware/startup/boards/../../../../install/aarch64le/usr/lib\libstartup.a(memfuncs.o)
 .bss           0x00000000000005e0        0x0 C:/Users/Dell/ide-8.0-workspace/hw.raspberrypi-bcm2712-rpi5_2/src/hardware/startup/boards/../../../../install/aarch64le/usr/lib\libstartup.a(memmove.o)
 .bss           0x00000000000005e0        0x0 C:/Users/Dell/ide-8.0-workspace/hw.raspberrypi-bcm2712-rpi5_2/src/hardware/startup/boards/../../../../install/aarch64le/usr/lib\libstartup.a(print_sysp.o)
 .bss           0x00000000000005e0        0x0 C:/Users/Dell/ide-8.0-workspace/hw.raspberrypi-bcm2712-rpi5_2/src/hardware/startup/boards/../../../../install/aarch64le/usr/lib\libstartup.a(psci_call.o)
 .bss           0x00000000000005e0        0x0 C:/Users/Dell/ide-8.0-workspace/hw.raspberrypi-bcm2712-rpi5_2/src/hardware/startup/boards/../../../../install/aarch64le/usr/lib\libstartup.a(psci_smp.o)
 .bss           0x00000000000005e0       0x34 C:/Users/Dell/ide-8.0-workspace/hw.raspberrypi-bcm2712-rpi5_2/src/hardware/startup/boards/../../../../install/aarch64le/usr/lib\libstartup.a(ram.o)
 *fill*         0x0000000000000614        0x4 
 .bss           0x0000000000000618       0x30 C:/Users/Dell/ide-8.0-workspace/hw.raspberrypi-bcm2712-rpi5_2/src/hardware/startup/boards/../../../../install/aarch64le/usr/lib\libstartup.a(restore_ifs.o)
                0x0000000000000618                rifs2_info
                0x0000000000000620                ifs2_paddr_dst
                0x0000000000000628                rifs_flag
                0x0000000000000630                ifs2_paddr_src
                0x0000000000000638                ifs2_size
                0x0000000000000640                rifs_info
 .bss           0x0000000000000648        0x0 C:/Users/Dell/ide-8.0-workspace/hw.raspberrypi-bcm2712-rpi5_2/src/hardware/startup/boards/../../../../install/aarch64le/usr/lib\libstartup.a(smp_start.o)
 .bss           0x0000000000000648        0x0 C:/Users/Dell/ide-8.0-workspace/hw.raspberrypi-bcm2712-rpi5_2/src/hardware/startup/boards/../../../../install/aarch64le/usr/lib\libstartup.a(ssp.o)
 .bss           0x0000000000000648        0x0 C:/Users/Dell/ide-8.0-workspace/hw.raspberrypi-bcm2712-rpi5_2/src/hardware/startup/boards/../../../../install/aarch64le/usr/lib\libstartup.a(startnext.o)
 .bss           0x0000000000000648        0x0 C:/Users/Dell/ide-8.0-workspace/hw.raspberrypi-bcm2712-rpi5_2/src/hardware/startup/boards/../../../../install/aarch64le/usr/lib\libstartup.a(strings.o)
 .bss           0x0000000000000648        0x0 C:/Users/Dell/ide-8.0-workspace/hw.raspberrypi-bcm2712-rpi5_2/src/hardware/startup/boards/../../../../install/aarch64le/usr/lib\libstartup.a(strtoul.o)
 .bss           0x0000000000000648      0x120 C:/Users/Dell/ide-8.0-workspace/hw.raspberrypi-bcm2712-rpi5_2/src/hardware/startup/boards/../../../../install/aarch64le/usr/lib\libstartup.a(syspage_memory.o)
                0x0000000000000648                lsp
                0x0000000000000760                syspage_paddr
 .bss           0x0000000000000768        0x0 C:/Users/Dell/ide-8.0-workspace/hw.raspberrypi-bcm2712-rpi5_2/src/hardware/startup/boards/../../../../install/aarch64le/usr/lib\libstartup.a(tweak_cmdline.o)
 .bss           0x0000000000000768        0x0 C:/Users/Dell/ide-8.0-workspace/hw.raspberrypi-bcm2712-rpi5_2/src/hardware/startup/boards/../../../../install/aarch64le/usr/lib\libstartup.a(uncompress.o)
 .bss           0x0000000000000768        0x0 C:/Users/Dell/ide-8.0-workspace/hw.raspberrypi-bcm2712-rpi5_2/src/hardware/startup/boards/../../../../install/aarch64le/usr/lib\libstartup.a(uncompress_ucl.o)
 .bss           0x0000000000000768        0x0 C:/Users/Dell/ide-8.0-workspace/hw.raspberrypi-bcm2712-rpi5_2/src/hardware/startup/boards/../../../../install/aarch64le/usr/lib\libstartup.a(vbar_default.o)
 .bss           0x0000000000000768        0x0 C:/Users/Dell/ide-8.0-workspace/hw.raspberrypi-bcm2712-rpi5_2/src/hardware/startup/boards/../../../../install/aarch64le/usr/lib\libstartup.a(_start_el1.o)
 .bss           0x0000000000000768        0x0 C:/Users/Dell/ide-8.0-workspace/hw.raspberrypi-bcm2712-rpi5_2/src/hardware/startup/boards/../../../../install/aarch64le/usr/lib\libstartup.a(aarch64_cache_flush.o)
 .bss           0x0000000000000768        0x0 C:/Users/Dell/ide-8.0-workspace/hw.raspberrypi-bcm2712-rpi5_2/src/hardware/startup/boards/../../../../install/aarch64le/usr/lib\libstartup.a(aarch64_cpuid.o)
 .bss           0x0000000000000768        0x0 C:/Users/Dell/ide-8.0-workspace/hw.raspberrypi-bcm2712-rpi5_2/src/hardware/startup/boards/../../../../install/aarch64le/usr/lib\libstartup.a(aarch64_cpuspeed.o)
 .bss           0x0000000000000768       0x20 C:/Users/Dell/ide-8.0-workspace/hw.raspberrypi-bcm2712-rpi5_2/src/hardware/startup/boards/../../../../install/aarch64le/usr/lib\libstartup.a(aarch64_map.o)
                0x0000000000000780                L0_vaddr
 .bss           0x0000000000000788        0x8 C:/Users/Dell/ide-8.0-workspace/hw.raspberrypi-bcm2712-rpi5_2/src/hardware/startup/boards/../../../../install/aarch64le/usr/lib\libstartup.a(add_cache.o)
 .bss           0x0000000000000790        0x8 C:/Users/Dell/ide-8.0-workspace/hw.raspberrypi-bcm2712-rpi5_2/src/hardware/startup/boards/../../../../install/aarch64le/usr/lib\libstartup.a(add_interrupt.o)
 .bss           0x0000000000000798        0x0 C:/Users/Dell/ide-8.0-workspace/hw.raspberrypi-bcm2712-rpi5_2/src/hardware/startup/boards/../../../../install/aarch64le/usr/lib\libstartup.a(alloc_qtime.o)
 .bss           0x0000000000000798        0x0 C:/Users/Dell/ide-8.0-workspace/hw.raspberrypi-bcm2712-rpi5_2/src/hardware/startup/boards/../../../../install/aarch64le/usr/lib\libstartup.a(ap_fail.o)
 .bss           0x0000000000000798        0x0 C:/Users/Dell/ide-8.0-workspace/hw.raspberrypi-bcm2712-rpi5_2/src/hardware/startup/boards/../../../../install/aarch64le/usr/lib\libstartup.a(as_add.o)
 .bss           0x0000000000000798        0x0 C:/Users/Dell/ide-8.0-workspace/hw.raspberrypi-bcm2712-rpi5_2/src/hardware/startup/boards/../../../../install/aarch64le/usr/lib\libstartup.a(as_add64.o)
 .bss           0x0000000000000798        0x0 C:/Users/Dell/ide-8.0-workspace/hw.raspberrypi-bcm2712-rpi5_2/src/hardware/startup/boards/../../../../install/aarch64le/usr/lib\libstartup.a(as_default.o)
 .bss           0x0000000000000798        0x0 C:/Users/Dell/ide-8.0-workspace/hw.raspberrypi-bcm2712-rpi5_2/src/hardware/startup/boards/../../../../install/aarch64le/usr/lib\libstartup.a(as_find.o)
 .bss           0x0000000000000798        0x0 C:/Users/Dell/ide-8.0-workspace/hw.raspberrypi-bcm2712-rpi5_2/src/hardware/startup/boards/../../../../install/aarch64le/usr/lib\libstartup.a(board_sysctl.o)
 .bss           0x0000000000000798       0x20 C:/Users/Dell/ide-8.0-workspace/hw.raspberrypi-bcm2712-rpi5_2/src/hardware/startup/boards/../../../../install/aarch64le/usr/lib\libstartup.a(boot_regs.o)
                0x0000000000000798                boot_regs
 .bss           0x00000000000007b8        0x0 C:/Users/Dell/ide-8.0-workspace/hw.raspberrypi-bcm2712-rpi5_2/src/hardware/startup/boards/../../../../install/aarch64le/usr/lib\libstartup.a(callout_cache_armv8.o)
 .bss           0x00000000000007b8        0x0 C:/Users/Dell/ide-8.0-workspace/hw.raspberrypi-bcm2712-rpi5_2/src/hardware/startup/boards/../../../../install/aarch64le/usr/lib\libstartup.a(callout_interrupt_gic_v2.o)
 .bss           0x00000000000007b8        0x0 C:/Users/Dell/ide-8.0-workspace/hw.raspberrypi-bcm2712-rpi5_2/src/hardware/startup/boards/../../../../install/aarch64le/usr/lib\libstartup.a(callout_smp_spin.o)
 .bss           0x00000000000007b8        0x0 C:/Users/Dell/ide-8.0-workspace/hw.raspberrypi-bcm2712-rpi5_2/src/hardware/startup/boards/../../../../install/aarch64le/usr/lib\libstartup.a(cpu_startnext.o)
 .bss           0x00000000000007b8        0x0 C:/Users/Dell/ide-8.0-workspace/hw.raspberrypi-bcm2712-rpi5_2/src/hardware/startup/boards/../../../../install/aarch64le/usr/lib\libstartup.a(cpu_syspage_memory.o)
 .bss           0x00000000000007b8        0x0 C:/Users/Dell/ide-8.0-workspace/hw.raspberrypi-bcm2712-rpi5_2/src/hardware/startup/boards/../../../../install/aarch64le/usr/lib\libstartup.a(cpuid_a35.o)
 .bss           0x00000000000007b8        0x0 C:/Users/Dell/ide-8.0-workspace/hw.raspberrypi-bcm2712-rpi5_2/src/hardware/startup/boards/../../../../install/aarch64le/usr/lib\libstartup.a(cpuid_a53.o)
 .bss           0x00000000000007b8        0x0 C:/Users/Dell/ide-8.0-workspace/hw.raspberrypi-bcm2712-rpi5_2/src/hardware/startup/boards/../../../../install/aarch64le/usr/lib\libstartup.a(cpuid_a55.o)
 .bss           0x00000000000007b8        0x0 C:/Users/Dell/ide-8.0-workspace/hw.raspberrypi-bcm2712-rpi5_2/src/hardware/startup/boards/../../../../install/aarch64le/usr/lib\libstartup.a(cpuid_a57.o)
 .bss           0x00000000000007b8        0x0 C:/Users/Dell/ide-8.0-workspace/hw.raspberrypi-bcm2712-rpi5_2/src/hardware/startup/boards/../../../../install/aarch64le/usr/lib\libstartup.a(cpuid_a72.o)
 .bss           0x00000000000007b8        0x0 C:/Users/Dell/ide-8.0-workspace/hw.raspberrypi-bcm2712-rpi5_2/src/hardware/startup/boards/../../../../install/aarch64le/usr/lib\libstartup.a(cpuid_a720.o)
 .bss           0x00000000000007b8        0x0 C:/Users/Dell/ide-8.0-workspace/hw.raspberrypi-bcm2712-rpi5_2/src/hardware/startup/boards/../../../../install/aarch64le/usr/lib\libstartup.a(cpuid_a720ae.o)
 .bss           0x00000000000007b8        0x0 C:/Users/Dell/ide-8.0-workspace/hw.raspberrypi-bcm2712-rpi5_2/src/hardware/startup/boards/../../../../install/aarch64le/usr/lib\libstartup.a(cpuid_a75.o)
 .bss           0x00000000000007b8        0x0 C:/Users/Dell/ide-8.0-workspace/hw.raspberrypi-bcm2712-rpi5_2/src/hardware/startup/boards/../../../../install/aarch64le/usr/lib\libstartup.a(cpuid_a76.o)
 .bss           0x00000000000007b8        0x0 C:/Users/Dell/ide-8.0-workspace/hw.raspberrypi-bcm2712-rpi5_2/src/hardware/startup/boards/../../../../install/aarch64le/usr/lib\libstartup.a(cpuid_a78ae.o)
 .bss           0x00000000000007b8        0x0 C:/Users/Dell/ide-8.0-workspace/hw.raspberrypi-bcm2712-rpi5_2/src/hardware/startup/boards/../../../../install/aarch64le/usr/lib\libstartup.a(cpuid_d15.o)
 .bss           0x00000000000007b8        0x0 C:/Users/Dell/ide-8.0-workspace/hw.raspberrypi-bcm2712-rpi5_2/src/hardware/startup/boards/../../../../install/aarch64le/usr/lib\libstartup.a(cpuid_d20.o)
 .bss           0x00000000000007b8        0x0 C:/Users/Dell/ide-8.0-workspace/hw.raspberrypi-bcm2712-rpi5_2/src/hardware/startup/boards/../../../../install/aarch64le/usr/lib\libstartup.a(cpuid_n1.o)
 .bss           0x00000000000007b8        0x0 C:/Users/Dell/ide-8.0-workspace/hw.raspberrypi-bcm2712-rpi5_2/src/hardware/startup/boards/../../../../install/aarch64le/usr/lib\libstartup.a(cpuid_neo_v1.o)
 .bss           0x00000000000007b8        0x0 C:/Users/Dell/ide-8.0-workspace/hw.raspberrypi-bcm2712-rpi5_2/src/hardware/startup/boards/../../../../install/aarch64le/usr/lib\libstartup.a(cpuid_neo_v2.o)
 .bss           0x00000000000007b8        0x0 C:/Users/Dell/ide-8.0-workspace/hw.raspberrypi-bcm2712-rpi5_2/src/hardware/startup/boards/../../../../install/aarch64le/usr/lib\libstartup.a(cpuid_v8_aem.o)
 .bss           0x00000000000007b8        0x0 C:/Users/Dell/ide-8.0-workspace/hw.raspberrypi-bcm2712-rpi5_2/src/hardware/startup/boards/../../../../install/aarch64le/usr/lib\libstartup.a(cpuid_v8_fm.o)
 .bss           0x00000000000007b8        0x0 C:/Users/Dell/ide-8.0-workspace/hw.raspberrypi-bcm2712-rpi5_2/src/hardware/startup/boards/../../../../install/aarch64le/usr/lib\libstartup.a(cpuid_x2.o)
 .bss           0x00000000000007b8        0x0 C:/Users/Dell/ide-8.0-workspace/hw.raspberrypi-bcm2712-rpi5_2/src/hardware/startup/boards/../../../../install/aarch64le/usr/lib\libstartup.a(cpuid_x4.o)
 .bss           0x00000000000007b8        0x0 C:/Users/Dell/ide-8.0-workspace/hw.raspberrypi-bcm2712-rpi5_2/src/hardware/startup/boards/../../../../install/aarch64le/usr/lib\libstartup.a(cpuid_x925.o)
 .bss           0x00000000000007b8        0x0 C:/Users/Dell/ide-8.0-workspace/hw.raspberrypi-bcm2712-rpi5_2/src/hardware/startup/boards/../../../../install/aarch64le/usr/lib\libstartup.a(crash_done.o)
 .bss           0x00000000000007b8        0x0 C:/Users/Dell/ide-8.0-workspace/hw.raspberrypi-bcm2712-rpi5_2/src/hardware/startup/boards/../../../../install/aarch64le/usr/lib\libstartup.a(dummy_print_char.o)
 .bss           0x00000000000007b8        0x0 C:/Users/Dell/ide-8.0-workspace/hw.raspberrypi-bcm2712-rpi5_2/src/hardware/startup/boards/../../../../install/aarch64le/usr/lib\libstartup.a(elf.o)
 .bss           0x00000000000007b8        0x0 C:/Users/Dell/ide-8.0-workspace/hw.raspberrypi-bcm2712-rpi5_2/src/hardware/startup/boards/../../../../install/aarch64le/usr/lib\libstartup.a(elf32.o)
 .bss           0x00000000000007b8        0x0 C:/Users/Dell/ide-8.0-workspace/hw.raspberrypi-bcm2712-rpi5_2/src/hardware/startup/boards/../../../../install/aarch64le/usr/lib\libstartup.a(elf64.o)
 .bss           0x00000000000007b8        0x0 C:/Users/Dell/ide-8.0-workspace/hw.raspberrypi-bcm2712-rpi5_2/src/hardware/startup/boards/../../../../install/aarch64le/usr/lib\libstartup.a(elf_map.o)
 .bss           0x00000000000007b8        0x0 C:/Users/Dell/ide-8.0-workspace/hw.raspberrypi-bcm2712-rpi5_2/src/hardware/startup/boards/../../../../install/aarch64le/usr/lib\libstartup.a(hwi_add_device.o)
 .bss           0x00000000000007b8        0x0 C:/Users/Dell/ide-8.0-workspace/hw.raspberrypi-bcm2712-rpi5_2/src/hardware/startup/boards/../../../../install/aarch64le/usr/lib\libstartup.a(hwi_default.o)
 .bss           0x00000000000007b8        0x8 C:/Users/Dell/ide-8.0-workspace/hw.raspberrypi-bcm2712-rpi5_2/src/hardware/startup/boards/../../../../install/aarch64le/usr/lib\libstartup.a(hypervisor.o)
 .bss           0x00000000000007c0        0x0 C:/Users/Dell/ide-8.0-workspace/hw.raspberrypi-bcm2712-rpi5_2/src/hardware/startup/boards/../../../../install/aarch64le/usr/lib\libstartup.a(hypervisor_enable.o)
 .bss           0x00000000000007c0        0x0 C:/Users/Dell/ide-8.0-workspace/hw.raspberrypi-bcm2712-rpi5_2/src/hardware/startup/boards/../../../../install/aarch64le/usr/lib\libstartup.a(init_mitigation_mem.o)
 .bss           0x00000000000007c0        0x0 C:/Users/Dell/ide-8.0-workspace/hw.raspberrypi-bcm2712-rpi5_2/src/hardware/startup/boards/../../../../install/aarch64le/usr/lib\libstartup.a(rtc_time.o)
 .bss           0x00000000000007c0        0x0 C:/Users/Dell/ide-8.0-workspace/hw.raspberrypi-bcm2712-rpi5_2/src/hardware/startup/boards/../../../../install/aarch64le/usr/lib\libstartup.a(startup_info.o)
 .bss           0x00000000000007c0        0x0 C:/Users/Dell/ide-8.0-workspace/hw.raspberrypi-bcm2712-rpi5_2/src/hardware/startup/boards/../../../../install/aarch64le/usr/lib\libstartup.a(vstart.o)
 .bss           0x00000000000007c0        0x0 C:/Users/Dell/qnx800/target/qnx/aarch64le/usr/lib\libucl.a(n2b_d.o)
 .bss           0x00000000000007c0        0x0 C:/Users/Dell/qnx800/target/qnx/aarch64le/usr/lib\libdrvr.a(hwi_find_unit.o)
 .bss           0x00000000000007c0        0x0 C:/Users/Dell/qnx800/target/qnx/aarch64le/usr/lib\libdrvr.a(hwi_tag_find.o)
 .bss           0x00000000000007c0        0x0 C:/Users/Dell/qnx800/target/qnx/aarch64le/usr/lib\libdrvr.a(hwi_find_bus.o)
 .bss           0x00000000000007c0        0x0 C:/Users/Dell/qnx800/target/qnx/aarch64le/usr/lib\libdrvr.a(hwi_find_device.o)
 .bss           0x00000000000007c0        0x0 C:/Users/Dell/qnx800/target/qnx/aarch64le/usr/lib\libdrvr.a(hwi_find.o)
 .bss           0x00000000000007c0        0x0 C:/Users/Dell/qnx800/target/qnx/aarch64le/usr/lib\libfdt.a(fdt.o)
 .bss           0x00000000000007c0        0x0 C:/Users/Dell/qnx800/target/qnx/aarch64le/usr/lib\libfdt.a(fdt_ro.o)
 .bss           0x00000000000007c0        0x0 C:/Users/Dell/qnx800/target/qnx/aarch64le/lib\libc.a(hwi_find_item.o)
 .bss           0x00000000000007c0        0x0 C:/Users/Dell/qnx800/target/qnx/aarch64le/lib\libc.a(hwi_next_tag.o)
 .bss           0x00000000000007c0        0x0 C:/Users/Dell/qnx800/target/qnx/aarch64le/lib\libc.a(hwi_off2tag.o)
 .bss           0x00000000000007c0        0x0 C:/Users/Dell/qnx800/target/qnx/aarch64le/lib\libc.a(hwi_tag2off.o)
 .bss           0x00000000000007c0        0x0 C:/Users/Dell/qnx800/target/qnx/aarch64le/lib\libc.a(memchr.o)
 .bss           0x00000000000007c0        0x0 C:/Users/Dell/qnx800/target/qnx/aarch64le/lib\libc.a(memcmp.o)
 .bss           0x00000000000007c0        0x0 C:/Users/Dell/qnx800/target/qnx/aarch64le/lib\libc.a(memset.o)
 .bss           0x00000000000007c0        0x0 C:/Users/Dell/qnx800/target/qnx/aarch64le/lib\libc.a(strchr.o)
 .bss           0x00000000000007c0        0x0 C:/Users/Dell/qnx800/target/qnx/aarch64le/lib\libc.a(strcmp.o)
 .bss           0x00000000000007c0        0x0 C:/Users/Dell/qnx800/target/qnx/aarch64le/lib\libc.a(strlcpy.o)
 .bss           0x00000000000007c0        0x0 C:/Users/Dell/qnx800/target/qnx/aarch64le/lib\libc.a(strlen.o)
 .bss           0x00000000000007c0        0x0 C:/Users/Dell/qnx800/target/qnx/aarch64le/lib\libc.a(strnlen.o)
 .bss           0x00000000000007c0        0x0 C:/Users/Dell/qnx800/target/qnx/aarch64le/lib\libc.a(strrchr.o)
 .bss           0x00000000000007c0        0x0 C:/Users/Dell/qnx800/target/qnx/aarch64le/lib\libc.a(strstr.o)
 .bss           0x00000000000007c0        0x8 C:/Users/Dell/qnx800/target/qnx/aarch64le/lib\libc.a(__progname.o)
                0x00000000000007c0                __progname
 .bss           0x00000000000007c8        0x0 C:/Users/Dell/qnx800/target/qnx/aarch64le/lib\libc.a(_ssp.o)
 .bss           0x00000000000007c8        0x8 C:/Users/Dell/qnx800/target/qnx/aarch64le/lib\libc.a(__stack_chk_guard.o)
                0x00000000000007c8                __stack_chk_guard
 .bss           0x00000000000007d0        0x0 C:/Users/Dell/qnx800/target/qnx/aarch64le/lib\libc.a(getsubopt.o)
 .bss           0x00000000000007d0        0x8 C:/Users/Dell/qnx800/target/qnx/aarch64le/lib\libc.a(xtolotab.o)
                0x00000000000007d0                _Tls_setup__Tolotab
 .bss           0x00000000000007d8        0x0 C:/Users/Dell/qnx800/target/qnx/aarch64le/lib\libc.a(strncasecmp.o)
 .bss           0x00000000000007d8        0x0 C:/Users/Dell/qnx800/target/qnx/aarch64le/lib\libc.a(strncmp.o)

.stab
 *(.stab)

.stabstr
 *(.stabstr)

.stab.excl
 *(.stab.excl)

.stab.exclstr
 *(.stab.exclstr)

.stab.index
 *(.stab.index)

.stab.indexstr
 *(.stab.indexstr)

.comment        0x0000000000000000     0x270a
 *(.comment)
 .comment       0x0000000000000000       0x46 bcm2712_init_raminfo.o
 .comment       0x0000000000000046       0x46 board_smp.o
 .comment       0x000000000000008c       0x46 init_aon_gpio.o
 .comment       0x00000000000000d2       0x46 init_asinfo.o
 .comment       0x0000000000000118       0x46 init_board_type.o
 .comment       0x000000000000015e       0x46 init_hwinfo.o
 .comment       0x00000000000001a4       0x46 init_intrinfo.o
 .comment       0x00000000000001ea       0x46 init_wdt.o
 .comment       0x0000000000000230       0x46 main.o
 .comment       0x0000000000000276       0x46 mbox.o
 .comment       0x00000000000002bc       0x46 C:/Users/Dell/ide-8.0-workspace/hw.raspberrypi-bcm2712-rpi5_2/src/hardware/startup/boards/../../../../install/aarch64le/usr/lib\libstartup.a(_main.o)
 .comment       0x0000000000000302       0x46 C:/Users/Dell/ide-8.0-workspace/hw.raspberrypi-bcm2712-rpi5_2/src/hardware/startup/boards/../../../../install/aarch64le/usr/lib\libstartup.a(as_add_containing.o)
 .comment       0x0000000000000348       0x46 C:/Users/Dell/ide-8.0-workspace/hw.raspberrypi-bcm2712-rpi5_2/src/hardware/startup/boards/../../../../install/aarch64le/usr/lib\libstartup.a(as_find_containing.o)
 .comment       0x000000000000038e       0x46 C:/Users/Dell/ide-8.0-workspace/hw.raspberrypi-bcm2712-rpi5_2/src/hardware/startup/boards/../../../../install/aarch64le/usr/lib\libstartup.a(as_off2info.o)
 .comment       0x00000000000003d4       0x46 C:/Users/Dell/ide-8.0-workspace/hw.raspberrypi-bcm2712-rpi5_2/src/hardware/startup/boards/../../../../install/aarch64le/usr/lib\libstartup.a(board_init.o)
 .comment       0x000000000000041a       0x46 C:/Users/Dell/ide-8.0-workspace/hw.raspberrypi-bcm2712-rpi5_2/src/hardware/startup/boards/../../../../install/aarch64le/usr/lib\libstartup.a(bootstrap_cmdline.o)
 .comment       0x0000000000000460       0x46 C:/Users/Dell/ide-8.0-workspace/hw.raspberrypi-bcm2712-rpi5_2/src/hardware/startup/boards/../../../../install/aarch64le/usr/lib\libstartup.a(callouts.o)
 .comment       0x00000000000004a6       0x46 C:/Users/Dell/ide-8.0-workspace/hw.raspberrypi-bcm2712-rpi5_2/src/hardware/startup/boards/../../../../install/aarch64le/usr/lib\libstartup.a(common_options.o)
 .comment       0x00000000000004ec       0x46 C:/Users/Dell/ide-8.0-workspace/hw.raspberrypi-bcm2712-rpi5_2/src/hardware/startup/boards/../../../../install/aarch64le/usr/lib\libstartup.a(cpu_cluster_add.o)
 .comment       0x0000000000000532       0x46 C:/Users/Dell/ide-8.0-workspace/hw.raspberrypi-bcm2712-rpi5_2/src/hardware/startup/boards/../../../../install/aarch64le/usr/lib\libstartup.a(cpu_common_options.o)
 .comment       0x0000000000000578       0x46 C:/Users/Dell/ide-8.0-workspace/hw.raspberrypi-bcm2712-rpi5_2/src/hardware/startup/boards/../../../../install/aarch64le/usr/lib\libstartup.a(cpu_startup.o)
 .comment       0x00000000000005be       0x46 C:/Users/Dell/ide-8.0-workspace/hw.raspberrypi-bcm2712-rpi5_2/src/hardware/startup/boards/../../../../install/aarch64le/usr/lib\libstartup.a(debug.o)
 .comment       0x0000000000000604       0x46 C:/Users/Dell/ide-8.0-workspace/hw.raspberrypi-bcm2712-rpi5_2/src/hardware/startup/boards/../../../../install/aarch64le/usr/lib\libstartup.a(fdt_init_bootopt.o)
 .comment       0x000000000000064a       0x46 C:/Users/Dell/ide-8.0-workspace/hw.raspberrypi-bcm2712-rpi5_2/src/hardware/startup/boards/../../../../install/aarch64le/usr/lib\libstartup.a(fdt_psci_configure.o)
 .comment       0x0000000000000690       0x46 C:/Users/Dell/ide-8.0-workspace/hw.raspberrypi-bcm2712-rpi5_2/src/hardware/startup/boards/../../../../install/aarch64le/usr/lib\libstartup.a(fdt_vars.o)
 .comment       0x00000000000006d6       0x46 C:/Users/Dell/ide-8.0-workspace/hw.raspberrypi-bcm2712-rpi5_2/src/hardware/startup/boards/../../../../install/aarch64le/usr/lib\libstartup.a(getopt.o)
 .comment       0x000000000000071c       0x46 C:/Users/Dell/ide-8.0-workspace/hw.raspberrypi-bcm2712-rpi5_2/src/hardware/startup/boards/../../../../install/aarch64le/usr/lib\libstartup.a(getsize.o)
 .comment       0x0000000000000762       0x46 C:/Users/Dell/ide-8.0-workspace/hw.raspberrypi-bcm2712-rpi5_2/src/hardware/startup/boards/../../../../install/aarch64le/usr/lib\libstartup.a(gic.o)
 .comment       0x00000000000007a8       0x46 C:/Users/Dell/ide-8.0-workspace/hw.raspberrypi-bcm2712-rpi5_2/src/hardware/startup/boards/../../../../install/aarch64le/usr/lib\libstartup.a(gic_v2.o)
 .comment       0x00000000000007ee       0x46 C:/Users/Dell/ide-8.0-workspace/hw.raspberrypi-bcm2712-rpi5_2/src/hardware/startup/boards/../../../../install/aarch64le/usr/lib\libstartup.a(hw_serpl011.o)
 .comment       0x0000000000000834       0x46 C:/Users/Dell/ide-8.0-workspace/hw.raspberrypi-bcm2712-rpi5_2/src/hardware/startup/boards/../../../../install/aarch64le/usr/lib\libstartup.a(hwi_add_nanospin.o)
 .comment       0x000000000000087a       0x46 C:/Users/Dell/ide-8.0-workspace/hw.raspberrypi-bcm2712-rpi5_2/src/hardware/startup/boards/../../../../install/aarch64le/usr/lib\libstartup.a(hwi_alloc.o)
 .comment       0x00000000000008c0       0x46 C:/Users/Dell/ide-8.0-workspace/hw.raspberrypi-bcm2712-rpi5_2/src/hardware/startup/boards/../../../../install/aarch64le/usr/lib\libstartup.a(hwi_find_as.o)
 .comment       0x0000000000000906       0x46 C:/Users/Dell/ide-8.0-workspace/hw.raspberrypi-bcm2712-rpi5_2/src/hardware/startup/boards/../../../../install/aarch64le/usr/lib\libstartup.a(hwidev_add.o)
 .comment       0x000000000000094c       0x46 C:/Users/Dell/ide-8.0-workspace/hw.raspberrypi-bcm2712-rpi5_2/src/hardware/startup/boards/../../../../install/aarch64le/usr/lib\libstartup.a(hwidev_add_enet.o)
 .comment       0x0000000000000992       0x46 C:/Users/Dell/ide-8.0-workspace/hw.raspberrypi-bcm2712-rpi5_2/src/hardware/startup/boards/../../../../install/aarch64le/usr/lib\libstartup.a(hwidev_add_timer.o)
 .comment       0x00000000000009d8       0x46 C:/Users/Dell/ide-8.0-workspace/hw.raspberrypi-bcm2712-rpi5_2/src/hardware/startup/boards/../../../../install/aarch64le/usr/lib\libstartup.a(hwitag_add_common.o)
 .comment       0x0000000000000a1e       0x46 C:/Users/Dell/ide-8.0-workspace/hw.raspberrypi-bcm2712-rpi5_2/src/hardware/startup/boards/../../../../install/aarch64le/usr/lib\libstartup.a(hwitag_add_inputclk.o)
 .comment       0x0000000000000a64       0x46 C:/Users/Dell/ide-8.0-workspace/hw.raspberrypi-bcm2712-rpi5_2/src/hardware/startup/boards/../../../../install/aarch64le/usr/lib\libstartup.a(hwitag_add_irq.o)
 .comment       0x0000000000000aaa       0x46 C:/Users/Dell/ide-8.0-workspace/hw.raspberrypi-bcm2712-rpi5_2/src/hardware/startup/boards/../../../../install/aarch64le/usr/lib\libstartup.a(hwitag_add_location.o)
 .comment       0x0000000000000af0       0x46 C:/Users/Dell/ide-8.0-workspace/hw.raspberrypi-bcm2712-rpi5_2/src/hardware/startup/boards/../../../../install/aarch64le/usr/lib\libstartup.a(hwitag_add_nicaddr.o)
 .comment       0x0000000000000b36       0x46 C:/Users/Dell/ide-8.0-workspace/hw.raspberrypi-bcm2712-rpi5_2/src/hardware/startup/boards/../../../../install/aarch64le/usr/lib\libstartup.a(hwitag_add_nicphyaddr.o)
 .comment       0x0000000000000b7c       0x46 C:/Users/Dell/ide-8.0-workspace/hw.raspberrypi-bcm2712-rpi5_2/src/hardware/startup/boards/../../../../install/aarch64le/usr/lib\libstartup.a(hwitag_add_regname.o)
 .comment       0x0000000000000bc2       0x46 C:/Users/Dell/ide-8.0-workspace/hw.raspberrypi-bcm2712-rpi5_2/src/hardware/startup/boards/../../../../install/aarch64le/usr/lib\libstartup.a(hwitag_set_inputclk.o)
 .comment       0x0000000000000c08       0x46 C:/Users/Dell/ide-8.0-workspace/hw.raspberrypi-bcm2712-rpi5_2/src/hardware/startup/boards/../../../../install/aarch64le/usr/lib\libstartup.a(hwitag_set_ivec.o)
 .comment       0x0000000000000c4e       0x46 C:/Users/Dell/ide-8.0-workspace/hw.raspberrypi-bcm2712-rpi5_2/src/hardware/startup/boards/../../../../install/aarch64le/usr/lib\libstartup.a(hypervisor_setup.o)
 .comment       0x0000000000000c94       0x46 C:/Users/Dell/ide-8.0-workspace/hw.raspberrypi-bcm2712-rpi5_2/src/hardware/startup/boards/../../../../install/aarch64le/usr/lib\libstartup.a(init_cacheattr.o)
 .comment       0x0000000000000cda       0x46 C:/Users/Dell/ide-8.0-workspace/hw.raspberrypi-bcm2712-rpi5_2/src/hardware/startup/boards/../../../../install/aarch64le/usr/lib\libstartup.a(init_cpuinfo.o)
 .comment       0x0000000000000d20       0x46 C:/Users/Dell/ide-8.0-workspace/hw.raspberrypi-bcm2712-rpi5_2/src/hardware/startup/boards/../../../../install/aarch64le/usr/lib\libstartup.a(init_mmu.o)
 .comment       0x0000000000000d66       0x46 C:/Users/Dell/ide-8.0-workspace/hw.raspberrypi-bcm2712-rpi5_2/src/hardware/startup/boards/../../../../install/aarch64le/usr/lib\libstartup.a(init_qtime.o)
 .comment       0x0000000000000dac       0x46 C:/Users/Dell/ide-8.0-workspace/hw.raspberrypi-bcm2712-rpi5_2/src/hardware/startup/boards/../../../../install/aarch64le/usr/lib\libstartup.a(init_qtime_v8gt.o)
 .comment       0x0000000000000df2       0x46 C:/Users/Dell/ide-8.0-workspace/hw.raspberrypi-bcm2712-rpi5_2/src/hardware/startup/boards/../../../../install/aarch64le/usr/lib\libstartup.a(init_smp.o)
 .comment       0x0000000000000e38       0x46 C:/Users/Dell/ide-8.0-workspace/hw.raspberrypi-bcm2712-rpi5_2/src/hardware/startup/boards/../../../../install/aarch64le/usr/lib\libstartup.a(init_system_private.o)
 .comment       0x0000000000000e7e       0x46 C:/Users/Dell/ide-8.0-workspace/hw.raspberrypi-bcm2712-rpi5_2/src/hardware/startup/boards/../../../../install/aarch64le/usr/lib\libstartup.a(invert_timer_freq.o)
 .comment       0x0000000000000ec4       0x46 C:/Users/Dell/ide-8.0-workspace/hw.raspberrypi-bcm2712-rpi5_2/src/hardware/startup/boards/../../../../install/aarch64le/usr/lib\libstartup.a(jtag.o)
 .comment       0x0000000000000f0a       0x46 C:/Users/Dell/ide-8.0-workspace/hw.raspberrypi-bcm2712-rpi5_2/src/hardware/startup/boards/../../../../install/aarch64le/usr/lib\libstartup.a(kprintf.o)
 .comment       0x0000000000000f50       0x46 C:/Users/Dell/ide-8.0-workspace/hw.raspberrypi-bcm2712-rpi5_2/src/hardware/startup/boards/../../../../install/aarch64le/usr/lib\libstartup.a(load_ifs.o)
 .comment       0x0000000000000f96       0x46 C:/Users/Dell/ide-8.0-workspace/hw.raspberrypi-bcm2712-rpi5_2/src/hardware/startup/boards/../../../../install/aarch64le/usr/lib\libstartup.a(map_callout_io.o)
 .comment       0x0000000000000fdc       0x46 C:/Users/Dell/ide-8.0-workspace/hw.raspberrypi-bcm2712-rpi5_2/src/hardware/startup/boards/../../../../install/aarch64le/usr/lib\libstartup.a(map_startup_mem.o)
 .comment       0x0000000000001022       0x46 C:/Users/Dell/ide-8.0-workspace/hw.raspberrypi-bcm2712-rpi5_2/src/hardware/startup/boards/../../../../install/aarch64le/usr/lib\libstartup.a(memcpy.o)
 .comment       0x0000000000001068       0x46 C:/Users/Dell/ide-8.0-workspace/hw.raspberrypi-bcm2712-rpi5_2/src/hardware/startup/boards/../../../../install/aarch64le/usr/lib\libstartup.a(memfuncs.o)
 .comment       0x00000000000010ae       0x46 C:/Users/Dell/ide-8.0-workspace/hw.raspberrypi-bcm2712-rpi5_2/src/hardware/startup/boards/../../../../install/aarch64le/usr/lib\libstartup.a(memmove.o)
 .comment       0x00000000000010f4       0x46 C:/Users/Dell/ide-8.0-workspace/hw.raspberrypi-bcm2712-rpi5_2/src/hardware/startup/boards/../../../../install/aarch64le/usr/lib\libstartup.a(print_sysp.o)
 .comment       0x000000000000113a       0x46 C:/Users/Dell/ide-8.0-workspace/hw.raspberrypi-bcm2712-rpi5_2/src/hardware/startup/boards/../../../../install/aarch64le/usr/lib\libstartup.a(psci_smp.o)
 .comment       0x0000000000001180       0x46 C:/Users/Dell/ide-8.0-workspace/hw.raspberrypi-bcm2712-rpi5_2/src/hardware/startup/boards/../../../../install/aarch64le/usr/lib\libstartup.a(ram.o)
 .comment       0x00000000000011c6       0x46 C:/Users/Dell/ide-8.0-workspace/hw.raspberrypi-bcm2712-rpi5_2/src/hardware/startup/boards/../../../../install/aarch64le/usr/lib\libstartup.a(restore_ifs.o)
 .comment       0x000000000000120c       0x46 C:/Users/Dell/ide-8.0-workspace/hw.raspberrypi-bcm2712-rpi5_2/src/hardware/startup/boards/../../../../install/aarch64le/usr/lib\libstartup.a(ssp.o)
 .comment       0x0000000000001252       0x46 C:/Users/Dell/ide-8.0-workspace/hw.raspberrypi-bcm2712-rpi5_2/src/hardware/startup/boards/../../../../install/aarch64le/usr/lib\libstartup.a(startnext.o)
 .comment       0x0000000000001298       0x46 C:/Users/Dell/ide-8.0-workspace/hw.raspberrypi-bcm2712-rpi5_2/src/hardware/startup/boards/../../../../install/aarch64le/usr/lib\libstartup.a(strings.o)
 .comment       0x00000000000012de       0x46 C:/Users/Dell/ide-8.0-workspace/hw.raspberrypi-bcm2712-rpi5_2/src/hardware/startup/boards/../../../../install/aarch64le/usr/lib\libstartup.a(strtoul.o)
 .comment       0x0000000000001324       0x46 C:/Users/Dell/ide-8.0-workspace/hw.raspberrypi-bcm2712-rpi5_2/src/hardware/startup/boards/../../../../install/aarch64le/usr/lib\libstartup.a(syspage_memory.o)
 .comment       0x000000000000136a       0x46 C:/Users/Dell/ide-8.0-workspace/hw.raspberrypi-bcm2712-rpi5_2/src/hardware/startup/boards/../../../../install/aarch64le/usr/lib\libstartup.a(tweak_cmdline.o)
 .comment       0x00000000000013b0       0x46 C:/Users/Dell/ide-8.0-workspace/hw.raspberrypi-bcm2712-rpi5_2/src/hardware/startup/boards/../../../../install/aarch64le/usr/lib\libstartup.a(uncompress.o)
 .comment       0x00000000000013f6       0x46 C:/Users/Dell/ide-8.0-workspace/hw.raspberrypi-bcm2712-rpi5_2/src/hardware/startup/boards/../../../../install/aarch64le/usr/lib\libstartup.a(uncompress_ucl.o)
 .comment       0x000000000000143c       0x46 C:/Users/Dell/ide-8.0-workspace/hw.raspberrypi-bcm2712-rpi5_2/src/hardware/startup/boards/../../../../install/aarch64le/usr/lib\libstartup.a(aarch64_cpuid.o)
 .comment       0x0000000000001482       0x46 C:/Users/Dell/ide-8.0-workspace/hw.raspberrypi-bcm2712-rpi5_2/src/hardware/startup/boards/../../../../install/aarch64le/usr/lib\libstartup.a(aarch64_cpuspeed.o)
 .comment       0x00000000000014c8       0x46 C:/Users/Dell/ide-8.0-workspace/hw.raspberrypi-bcm2712-rpi5_2/src/hardware/startup/boards/../../../../install/aarch64le/usr/lib\libstartup.a(aarch64_map.o)
 .comment       0x000000000000150e       0x46 C:/Users/Dell/ide-8.0-workspace/hw.raspberrypi-bcm2712-rpi5_2/src/hardware/startup/boards/../../../../install/aarch64le/usr/lib\libstartup.a(add_cache.o)
 .comment       0x0000000000001554       0x46 C:/Users/Dell/ide-8.0-workspace/hw.raspberrypi-bcm2712-rpi5_2/src/hardware/startup/boards/../../../../install/aarch64le/usr/lib\libstartup.a(add_interrupt.o)
 .comment       0x000000000000159a       0x46 C:/Users/Dell/ide-8.0-workspace/hw.raspberrypi-bcm2712-rpi5_2/src/hardware/startup/boards/../../../../install/aarch64le/usr/lib\libstartup.a(alloc_qtime.o)
 .comment       0x00000000000015e0       0x46 C:/Users/Dell/ide-8.0-workspace/hw.raspberrypi-bcm2712-rpi5_2/src/hardware/startup/boards/../../../../install/aarch64le/usr/lib\libstartup.a(ap_fail.o)
 .comment       0x0000000000001626       0x46 C:/Users/Dell/ide-8.0-workspace/hw.raspberrypi-bcm2712-rpi5_2/src/hardware/startup/boards/../../../../install/aarch64le/usr/lib\libstartup.a(as_add.o)
 .comment       0x000000000000166c       0x46 C:/Users/Dell/ide-8.0-workspace/hw.raspberrypi-bcm2712-rpi5_2/src/hardware/startup/boards/../../../../install/aarch64le/usr/lib\libstartup.a(as_add64.o)
 .comment       0x00000000000016b2       0x46 C:/Users/Dell/ide-8.0-workspace/hw.raspberrypi-bcm2712-rpi5_2/src/hardware/startup/boards/../../../../install/aarch64le/usr/lib\libstartup.a(as_default.o)
 .comment       0x00000000000016f8       0x46 C:/Users/Dell/ide-8.0-workspace/hw.raspberrypi-bcm2712-rpi5_2/src/hardware/startup/boards/../../../../install/aarch64le/usr/lib\libstartup.a(as_find.o)
 .comment       0x000000000000173e       0x46 C:/Users/Dell/ide-8.0-workspace/hw.raspberrypi-bcm2712-rpi5_2/src/hardware/startup/boards/../../../../install/aarch64le/usr/lib\libstartup.a(board_sysctl.o)
 .comment       0x0000000000001784       0x46 C:/Users/Dell/ide-8.0-workspace/hw.raspberrypi-bcm2712-rpi5_2/src/hardware/startup/boards/../../../../install/aarch64le/usr/lib\libstartup.a(boot_regs.o)
 .comment       0x00000000000017ca       0x46 C:/Users/Dell/ide-8.0-workspace/hw.raspberrypi-bcm2712-rpi5_2/src/hardware/startup/boards/../../../../install/aarch64le/usr/lib\libstartup.a(cpu_startnext.o)
 .comment       0x0000000000001810       0x46 C:/Users/Dell/ide-8.0-workspace/hw.raspberrypi-bcm2712-rpi5_2/src/hardware/startup/boards/../../../../install/aarch64le/usr/lib\libstartup.a(cpu_syspage_memory.o)
 .comment       0x0000000000001856       0x46 C:/Users/Dell/ide-8.0-workspace/hw.raspberrypi-bcm2712-rpi5_2/src/hardware/startup/boards/../../../../install/aarch64le/usr/lib\libstartup.a(cpuid_a35.o)
 .comment       0x000000000000189c       0x46 C:/Users/Dell/ide-8.0-workspace/hw.raspberrypi-bcm2712-rpi5_2/src/hardware/startup/boards/../../../../install/aarch64le/usr/lib\libstartup.a(cpuid_a53.o)
 .comment       0x00000000000018e2       0x46 C:/Users/Dell/ide-8.0-workspace/hw.raspberrypi-bcm2712-rpi5_2/src/hardware/startup/boards/../../../../install/aarch64le/usr/lib\libstartup.a(cpuid_a55.o)
 .comment       0x0000000000001928       0x46 C:/Users/Dell/ide-8.0-workspace/hw.raspberrypi-bcm2712-rpi5_2/src/hardware/startup/boards/../../../../install/aarch64le/usr/lib\libstartup.a(cpuid_a57.o)
 .comment       0x000000000000196e       0x46 C:/Users/Dell/ide-8.0-workspace/hw.raspberrypi-bcm2712-rpi5_2/src/hardware/startup/boards/../../../../install/aarch64le/usr/lib\libstartup.a(cpuid_a72.o)
 .comment       0x00000000000019b4       0x46 C:/Users/Dell/ide-8.0-workspace/hw.raspberrypi-bcm2712-rpi5_2/src/hardware/startup/boards/../../../../install/aarch64le/usr/lib\libstartup.a(cpuid_a720.o)
 .comment       0x00000000000019fa       0x46 C:/Users/Dell/ide-8.0-workspace/hw.raspberrypi-bcm2712-rpi5_2/src/hardware/startup/boards/../../../../install/aarch64le/usr/lib\libstartup.a(cpuid_a720ae.o)
 .comment       0x0000000000001a40       0x46 C:/Users/Dell/ide-8.0-workspace/hw.raspberrypi-bcm2712-rpi5_2/src/hardware/startup/boards/../../../../install/aarch64le/usr/lib\libstartup.a(cpuid_a75.o)
 .comment       0x0000000000001a86       0x46 C:/Users/Dell/ide-8.0-workspace/hw.raspberrypi-bcm2712-rpi5_2/src/hardware/startup/boards/../../../../install/aarch64le/usr/lib\libstartup.a(cpuid_a76.o)
 .comment       0x0000000000001acc       0x46 C:/Users/Dell/ide-8.0-workspace/hw.raspberrypi-bcm2712-rpi5_2/src/hardware/startup/boards/../../../../install/aarch64le/usr/lib\libstartup.a(cpuid_a78ae.o)
 .comment       0x0000000000001b12       0x46 C:/Users/Dell/ide-8.0-workspace/hw.raspberrypi-bcm2712-rpi5_2/src/hardware/startup/boards/../../../../install/aarch64le/usr/lib\libstartup.a(cpuid_d15.o)
 .comment       0x0000000000001b58       0x46 C:/Users/Dell/ide-8.0-workspace/hw.raspberrypi-bcm2712-rpi5_2/src/hardware/startup/boards/../../../../install/aarch64le/usr/lib\libstartup.a(cpuid_d20.o)
 .comment       0x0000000000001b9e       0x46 C:/Users/Dell/ide-8.0-workspace/hw.raspberrypi-bcm2712-rpi5_2/src/hardware/startup/boards/../../../../install/aarch64le/usr/lib\libstartup.a(cpuid_n1.o)
 .comment       0x0000000000001be4       0x46 C:/Users/Dell/ide-8.0-workspace/hw.raspberrypi-bcm2712-rpi5_2/src/hardware/startup/boards/../../../../install/aarch64le/usr/lib\libstartup.a(cpuid_neo_v1.o)
 .comment       0x0000000000001c2a       0x46 C:/Users/Dell/ide-8.0-workspace/hw.raspberrypi-bcm2712-rpi5_2/src/hardware/startup/boards/../../../../install/aarch64le/usr/lib\libstartup.a(cpuid_neo_v2.o)
 .comment       0x0000000000001c70       0x46 C:/Users/Dell/ide-8.0-workspace/hw.raspberrypi-bcm2712-rpi5_2/src/hardware/startup/boards/../../../../install/aarch64le/usr/lib\libstartup.a(cpuid_v8_aem.o)
 .comment       0x0000000000001cb6       0x46 C:/Users/Dell/ide-8.0-workspace/hw.raspberrypi-bcm2712-rpi5_2/src/hardware/startup/boards/../../../../install/aarch64le/usr/lib\libstartup.a(cpuid_v8_fm.o)
 .comment       0x0000000000001cfc       0x46 C:/Users/Dell/ide-8.0-workspace/hw.raspberrypi-bcm2712-rpi5_2/src/hardware/startup/boards/../../../../install/aarch64le/usr/lib\libstartup.a(cpuid_x2.o)
 .comment       0x0000000000001d42       0x46 C:/Users/Dell/ide-8.0-workspace/hw.raspberrypi-bcm2712-rpi5_2/src/hardware/startup/boards/../../../../install/aarch64le/usr/lib\libstartup.a(cpuid_x4.o)
 .comment       0x0000000000001d88       0x46 C:/Users/Dell/ide-8.0-workspace/hw.raspberrypi-bcm2712-rpi5_2/src/hardware/startup/boards/../../../../install/aarch64le/usr/lib\libstartup.a(cpuid_x925.o)
 .comment       0x0000000000001dce       0x46 C:/Users/Dell/ide-8.0-workspace/hw.raspberrypi-bcm2712-rpi5_2/src/hardware/startup/boards/../../../../install/aarch64le/usr/lib\libstartup.a(crash_done.o)
 .comment       0x0000000000001e14       0x46 C:/Users/Dell/ide-8.0-workspace/hw.raspberrypi-bcm2712-rpi5_2/src/hardware/startup/boards/../../../../install/aarch64le/usr/lib\libstartup.a(dummy_print_char.o)
 .comment       0x0000000000001e5a       0x46 C:/Users/Dell/ide-8.0-workspace/hw.raspberrypi-bcm2712-rpi5_2/src/hardware/startup/boards/../../../../install/aarch64le/usr/lib\libstartup.a(elf.o)
 .comment       0x0000000000001ea0       0x46 C:/Users/Dell/ide-8.0-workspace/hw.raspberrypi-bcm2712-rpi5_2/src/hardware/startup/boards/../../../../install/aarch64le/usr/lib\libstartup.a(elf32.o)
 .comment       0x0000000000001ee6       0x46 C:/Users/Dell/ide-8.0-workspace/hw.raspberrypi-bcm2712-rpi5_2/src/hardware/startup/boards/../../../../install/aarch64le/usr/lib\libstartup.a(elf64.o)
 .comment       0x0000000000001f2c       0x46 C:/Users/Dell/ide-8.0-workspace/hw.raspberrypi-bcm2712-rpi5_2/src/hardware/startup/boards/../../../../install/aarch64le/usr/lib\libstartup.a(elf_map.o)
 .comment       0x0000000000001f72       0x46 C:/Users/Dell/ide-8.0-workspace/hw.raspberrypi-bcm2712-rpi5_2/src/hardware/startup/boards/../../../../install/aarch64le/usr/lib\libstartup.a(hwi_add_device.o)
 .comment       0x0000000000001fb8       0x46 C:/Users/Dell/ide-8.0-workspace/hw.raspberrypi-bcm2712-rpi5_2/src/hardware/startup/boards/../../../../install/aarch64le/usr/lib\libstartup.a(hwi_default.o)
 .comment       0x0000000000001ffe       0x46 C:/Users/Dell/ide-8.0-workspace/hw.raspberrypi-bcm2712-rpi5_2/src/hardware/startup/boards/../../../../install/aarch64le/usr/lib\libstartup.a(hypervisor.o)
 .comment       0x0000000000002044       0x46 C:/Users/Dell/ide-8.0-workspace/hw.raspberrypi-bcm2712-rpi5_2/src/hardware/startup/boards/../../../../install/aarch64le/usr/lib\libstartup.a(init_mitigation_mem.o)
 .comment       0x000000000000208a       0x46 C:/Users/Dell/ide-8.0-workspace/hw.raspberrypi-bcm2712-rpi5_2/src/hardware/startup/boards/../../../../install/aarch64le/usr/lib\libstartup.a(rtc_time.o)
 .comment       0x00000000000020d0       0x46 C:/Users/Dell/ide-8.0-workspace/hw.raspberrypi-bcm2712-rpi5_2/src/hardware/startup/boards/../../../../install/aarch64le/usr/lib\libstartup.a(startup_info.o)
 .comment       0x0000000000002116       0x21 C:/Users/Dell/qnx800/target/qnx/aarch64le/usr/lib\libucl.a(n2b_d.o)
 .comment       0x0000000000002137       0x21 C:/Users/Dell/qnx800/target/qnx/aarch64le/usr/lib\libdrvr.a(hwi_find_unit.o)
 .comment       0x0000000000002158       0x21 C:/Users/Dell/qnx800/target/qnx/aarch64le/usr/lib\libdrvr.a(hwi_tag_find.o)
 .comment       0x0000000000002179       0x21 C:/Users/Dell/qnx800/target/qnx/aarch64le/usr/lib\libdrvr.a(hwi_find_bus.o)
 .comment       0x000000000000219a       0x21 C:/Users/Dell/qnx800/target/qnx/aarch64le/usr/lib\libdrvr.a(hwi_find_device.o)
 .comment       0x00000000000021bb       0x21 C:/Users/Dell/qnx800/target/qnx/aarch64le/usr/lib\libdrvr.a(hwi_find.o)
 .comment       0x00000000000021dc       0x21 C:/Users/Dell/qnx800/target/qnx/aarch64le/usr/lib\libfdt.a(fdt.o)
 .comment       0x00000000000021fd       0x21 C:/Users/Dell/qnx800/target/qnx/aarch64le/usr/lib\libfdt.a(fdt_ro.o)
 .comment       0x000000000000221e       0x46 C:/Users/Dell/qnx800/target/qnx/aarch64le/lib\libc.a(hwi_find_item.o)
 .comment       0x0000000000002264       0x46 C:/Users/Dell/qnx800/target/qnx/aarch64le/lib\libc.a(hwi_next_tag.o)
 .comment       0x00000000000022aa       0x46 C:/Users/Dell/qnx800/target/qnx/aarch64le/lib\libc.a(hwi_off2tag.o)
 .comment       0x00000000000022f0       0x46 C:/Users/Dell/qnx800/target/qnx/aarch64le/lib\libc.a(hwi_tag2off.o)
 .comment       0x0000000000002336       0x46 C:/Users/Dell/qnx800/target/qnx/aarch64le/lib\libc.a(memchr.o)
 .comment       0x000000000000237c       0x46 C:/Users/Dell/qnx800/target/qnx/aarch64le/lib\libc.a(memset.o)
 .comment       0x00000000000023c2       0x46 C:/Users/Dell/qnx800/target/qnx/aarch64le/lib\libc.a(strchr.o)
 .comment       0x0000000000002408       0x46 C:/Users/Dell/qnx800/target/qnx/aarch64le/lib\libc.a(strlcpy.o)
 .comment       0x000000000000244e       0x46 C:/Users/Dell/qnx800/target/qnx/aarch64le/lib\libc.a(strnlen.o)
 .comment       0x0000000000002494       0x46 C:/Users/Dell/qnx800/target/qnx/aarch64le/lib\libc.a(strrchr.o)
 .comment       0x00000000000024da       0x46 C:/Users/Dell/qnx800/target/qnx/aarch64le/lib\libc.a(strstr.o)
 .comment       0x0000000000002520       0x46 C:/Users/Dell/qnx800/target/qnx/aarch64le/lib\libc.a(__progname.o)
 .comment       0x0000000000002566       0x46 C:/Users/Dell/qnx800/target/qnx/aarch64le/lib\libc.a(_ssp.o)
 .comment       0x00000000000025ac       0x46 C:/Users/Dell/qnx800/target/qnx/aarch64le/lib\libc.a(__stack_chk_guard.o)
 .comment       0x00000000000025f2       0x46 C:/Users/Dell/qnx800/target/qnx/aarch64le/lib\libc.a(getsubopt.o)
 .comment       0x0000000000002638       0x46 C:/Users/Dell/qnx800/target/qnx/aarch64le/lib\libc.a(xtolotab.o)
 .comment       0x000000000000267e       0x46 C:/Users/Dell/qnx800/target/qnx/aarch64le/lib\libc.a(strncasecmp.o)
 .comment       0x00000000000026c4       0x46 C:/Users/Dell/qnx800/target/qnx/aarch64le/lib\libc.a(strncmp.o)

.note.GNU-stack
                0x0000000000000000        0x0
 .note.GNU-stack
                0x0000000000000000        0x0 bcm2712_init_raminfo.o
 .note.GNU-stack
                0x0000000000000000        0x0 board_smp.o
 .note.GNU-stack
                0x0000000000000000        0x0 init_aon_gpio.o
 .note.GNU-stack
                0x0000000000000000        0x0 init_asinfo.o
 .note.GNU-stack
                0x0000000000000000        0x0 init_board_type.o
 .note.GNU-stack
                0x0000000000000000        0x0 init_hwinfo.o
 .note.GNU-stack
                0x0000000000000000        0x0 init_intrinfo.o
 .note.GNU-stack
                0x0000000000000000        0x0 init_wdt.o
 .note.GNU-stack
                0x0000000000000000        0x0 main.o
 .note.GNU-stack
                0x0000000000000000        0x0 mbox.o
 .note.GNU-stack
                0x0000000000000000        0x0 C:/Users/Dell/ide-8.0-workspace/hw.raspberrypi-bcm2712-rpi5_2/src/hardware/startup/boards/../../../../install/aarch64le/usr/lib\libstartup.a(_main.o)
 .note.GNU-stack
                0x0000000000000000        0x0 C:/Users/Dell/ide-8.0-workspace/hw.raspberrypi-bcm2712-rpi5_2/src/hardware/startup/boards/../../../../install/aarch64le/usr/lib\libstartup.a(as_add_containing.o)
 .note.GNU-stack
                0x0000000000000000        0x0 C:/Users/Dell/ide-8.0-workspace/hw.raspberrypi-bcm2712-rpi5_2/src/hardware/startup/boards/../../../../install/aarch64le/usr/lib\libstartup.a(as_find_containing.o)
 .note.GNU-stack
                0x0000000000000000        0x0 C:/Users/Dell/ide-8.0-workspace/hw.raspberrypi-bcm2712-rpi5_2/src/hardware/startup/boards/../../../../install/aarch64le/usr/lib\libstartup.a(as_off2info.o)
 .note.GNU-stack
                0x0000000000000000        0x0 C:/Users/Dell/ide-8.0-workspace/hw.raspberrypi-bcm2712-rpi5_2/src/hardware/startup/boards/../../../../install/aarch64le/usr/lib\libstartup.a(board_init.o)
 .note.GNU-stack
                0x0000000000000000        0x0 C:/Users/Dell/ide-8.0-workspace/hw.raspberrypi-bcm2712-rpi5_2/src/hardware/startup/boards/../../../../install/aarch64le/usr/lib\libstartup.a(bootstrap_cmdline.o)
 .note.GNU-stack
                0x0000000000000000        0x0 C:/Users/Dell/ide-8.0-workspace/hw.raspberrypi-bcm2712-rpi5_2/src/hardware/startup/boards/../../../../install/aarch64le/usr/lib\libstartup.a(callouts.o)
 .note.GNU-stack
                0x0000000000000000        0x0 C:/Users/Dell/ide-8.0-workspace/hw.raspberrypi-bcm2712-rpi5_2/src/hardware/startup/boards/../../../../install/aarch64le/usr/lib\libstartup.a(common_options.o)
 .note.GNU-stack
                0x0000000000000000        0x0 C:/Users/Dell/ide-8.0-workspace/hw.raspberrypi-bcm2712-rpi5_2/src/hardware/startup/boards/../../../../install/aarch64le/usr/lib\libstartup.a(cpu_cluster_add.o)
 .note.GNU-stack
                0x0000000000000000        0x0 C:/Users/Dell/ide-8.0-workspace/hw.raspberrypi-bcm2712-rpi5_2/src/hardware/startup/boards/../../../../install/aarch64le/usr/lib\libstartup.a(cpu_common_options.o)
 .note.GNU-stack
                0x0000000000000000        0x0 C:/Users/Dell/ide-8.0-workspace/hw.raspberrypi-bcm2712-rpi5_2/src/hardware/startup/boards/../../../../install/aarch64le/usr/lib\libstartup.a(cpu_startup.o)
 .note.GNU-stack
                0x0000000000000000        0x0 C:/Users/Dell/ide-8.0-workspace/hw.raspberrypi-bcm2712-rpi5_2/src/hardware/startup/boards/../../../../install/aarch64le/usr/lib\libstartup.a(debug.o)
 .note.GNU-stack
                0x0000000000000000        0x0 C:/Users/Dell/ide-8.0-workspace/hw.raspberrypi-bcm2712-rpi5_2/src/hardware/startup/boards/../../../../install/aarch64le/usr/lib\libstartup.a(fdt_init_bootopt.o)
 .note.GNU-stack
                0x0000000000000000        0x0 C:/Users/Dell/ide-8.0-workspace/hw.raspberrypi-bcm2712-rpi5_2/src/hardware/startup/boards/../../../../install/aarch64le/usr/lib\libstartup.a(fdt_psci_configure.o)
 .note.GNU-stack
                0x0000000000000000        0x0 C:/Users/Dell/ide-8.0-workspace/hw.raspberrypi-bcm2712-rpi5_2/src/hardware/startup/boards/../../../../install/aarch64le/usr/lib\libstartup.a(fdt_vars.o)
 .note.GNU-stack
                0x0000000000000000        0x0 C:/Users/Dell/ide-8.0-workspace/hw.raspberrypi-bcm2712-rpi5_2/src/hardware/startup/boards/../../../../install/aarch64le/usr/lib\libstartup.a(getopt.o)
 .note.GNU-stack
                0x0000000000000000        0x0 C:/Users/Dell/ide-8.0-workspace/hw.raspberrypi-bcm2712-rpi5_2/src/hardware/startup/boards/../../../../install/aarch64le/usr/lib\libstartup.a(getsize.o)
 .note.GNU-stack
                0x0000000000000000        0x0 C:/Users/Dell/ide-8.0-workspace/hw.raspberrypi-bcm2712-rpi5_2/src/hardware/startup/boards/../../../../install/aarch64le/usr/lib\libstartup.a(gic.o)
 .note.GNU-stack
                0x0000000000000000        0x0 C:/Users/Dell/ide-8.0-workspace/hw.raspberrypi-bcm2712-rpi5_2/src/hardware/startup/boards/../../../../install/aarch64le/usr/lib\libstartup.a(gic_v2.o)
 .note.GNU-stack
                0x0000000000000000        0x0 C:/Users/Dell/ide-8.0-workspace/hw.raspberrypi-bcm2712-rpi5_2/src/hardware/startup/boards/../../../../install/aarch64le/usr/lib\libstartup.a(hw_serpl011.o)
 .note.GNU-stack
                0x0000000000000000        0x0 C:/Users/Dell/ide-8.0-workspace/hw.raspberrypi-bcm2712-rpi5_2/src/hardware/startup/boards/../../../../install/aarch64le/usr/lib\libstartup.a(hwi_add_nanospin.o)
 .note.GNU-stack
                0x0000000000000000        0x0 C:/Users/Dell/ide-8.0-workspace/hw.raspberrypi-bcm2712-rpi5_2/src/hardware/startup/boards/../../../../install/aarch64le/usr/lib\libstartup.a(hwi_alloc.o)
 .note.GNU-stack
                0x0000000000000000        0x0 C:/Users/Dell/ide-8.0-workspace/hw.raspberrypi-bcm2712-rpi5_2/src/hardware/startup/boards/../../../../install/aarch64le/usr/lib\libstartup.a(hwi_find_as.o)
 .note.GNU-stack
                0x0000000000000000        0x0 C:/Users/Dell/ide-8.0-workspace/hw.raspberrypi-bcm2712-rpi5_2/src/hardware/startup/boards/../../../../install/aarch64le/usr/lib\libstartup.a(hwidev_add.o)
 .note.GNU-stack
                0x0000000000000000        0x0 C:/Users/Dell/ide-8.0-workspace/hw.raspberrypi-bcm2712-rpi5_2/src/hardware/startup/boards/../../../../install/aarch64le/usr/lib\libstartup.a(hwidev_add_enet.o)
 .note.GNU-stack
                0x0000000000000000        0x0 C:/Users/Dell/ide-8.0-workspace/hw.raspberrypi-bcm2712-rpi5_2/src/hardware/startup/boards/../../../../install/aarch64le/usr/lib\libstartup.a(hwidev_add_timer.o)
 .note.GNU-stack
                0x0000000000000000        0x0 C:/Users/Dell/ide-8.0-workspace/hw.raspberrypi-bcm2712-rpi5_2/src/hardware/startup/boards/../../../../install/aarch64le/usr/lib\libstartup.a(hwitag_add_common.o)
 .note.GNU-stack
                0x0000000000000000        0x0 C:/Users/Dell/ide-8.0-workspace/hw.raspberrypi-bcm2712-rpi5_2/src/hardware/startup/boards/../../../../install/aarch64le/usr/lib\libstartup.a(hwitag_add_inputclk.o)
 .note.GNU-stack
                0x0000000000000000        0x0 C:/Users/Dell/ide-8.0-workspace/hw.raspberrypi-bcm2712-rpi5_2/src/hardware/startup/boards/../../../../install/aarch64le/usr/lib\libstartup.a(hwitag_add_irq.o)
 .note.GNU-stack
                0x0000000000000000        0x0 C:/Users/Dell/ide-8.0-workspace/hw.raspberrypi-bcm2712-rpi5_2/src/hardware/startup/boards/../../../../install/aarch64le/usr/lib\libstartup.a(hwitag_add_location.o)
 .note.GNU-stack
                0x0000000000000000        0x0 C:/Users/Dell/ide-8.0-workspace/hw.raspberrypi-bcm2712-rpi5_2/src/hardware/startup/boards/../../../../install/aarch64le/usr/lib\libstartup.a(hwitag_add_nicaddr.o)
 .note.GNU-stack
                0x0000000000000000        0x0 C:/Users/Dell/ide-8.0-workspace/hw.raspberrypi-bcm2712-rpi5_2/src/hardware/startup/boards/../../../../install/aarch64le/usr/lib\libstartup.a(hwitag_add_nicphyaddr.o)
 .note.GNU-stack
                0x0000000000000000        0x0 C:/Users/Dell/ide-8.0-workspace/hw.raspberrypi-bcm2712-rpi5_2/src/hardware/startup/boards/../../../../install/aarch64le/usr/lib\libstartup.a(hwitag_add_regname.o)
 .note.GNU-stack
                0x0000000000000000        0x0 C:/Users/Dell/ide-8.0-workspace/hw.raspberrypi-bcm2712-rpi5_2/src/hardware/startup/boards/../../../../install/aarch64le/usr/lib\libstartup.a(hwitag_set_inputclk.o)
 .note.GNU-stack
                0x0000000000000000        0x0 C:/Users/Dell/ide-8.0-workspace/hw.raspberrypi-bcm2712-rpi5_2/src/hardware/startup/boards/../../../../install/aarch64le/usr/lib\libstartup.a(hwitag_set_ivec.o)
 .note.GNU-stack
                0x0000000000000000        0x0 C:/Users/Dell/ide-8.0-workspace/hw.raspberrypi-bcm2712-rpi5_2/src/hardware/startup/boards/../../../../install/aarch64le/usr/lib\libstartup.a(hypervisor_setup.o)
 .note.GNU-stack
                0x0000000000000000        0x0 C:/Users/Dell/ide-8.0-workspace/hw.raspberrypi-bcm2712-rpi5_2/src/hardware/startup/boards/../../../../install/aarch64le/usr/lib\libstartup.a(init_cacheattr.o)
 .note.GNU-stack
                0x0000000000000000        0x0 C:/Users/Dell/ide-8.0-workspace/hw.raspberrypi-bcm2712-rpi5_2/src/hardware/startup/boards/../../../../install/aarch64le/usr/lib\libstartup.a(init_cpuinfo.o)
 .note.GNU-stack
                0x0000000000000000        0x0 C:/Users/Dell/ide-8.0-workspace/hw.raspberrypi-bcm2712-rpi5_2/src/hardware/startup/boards/../../../../install/aarch64le/usr/lib\libstartup.a(init_mmu.o)
 .note.GNU-stack
                0x0000000000000000        0x0 C:/Users/Dell/ide-8.0-workspace/hw.raspberrypi-bcm2712-rpi5_2/src/hardware/startup/boards/../../../../install/aarch64le/usr/lib\libstartup.a(init_qtime.o)
 .note.GNU-stack
                0x0000000000000000        0x0 C:/Users/Dell/ide-8.0-workspace/hw.raspberrypi-bcm2712-rpi5_2/src/hardware/startup/boards/../../../../install/aarch64le/usr/lib\libstartup.a(init_qtime_v8gt.o)
 .note.GNU-stack
                0x0000000000000000        0x0 C:/Users/Dell/ide-8.0-workspace/hw.raspberrypi-bcm2712-rpi5_2/src/hardware/startup/boards/../../../../install/aarch64le/usr/lib\libstartup.a(init_smp.o)
 .note.GNU-stack
                0x0000000000000000        0x0 C:/Users/Dell/ide-8.0-workspace/hw.raspberrypi-bcm2712-rpi5_2/src/hardware/startup/boards/../../../../install/aarch64le/usr/lib\libstartup.a(init_system_private.o)
 .note.GNU-stack
                0x0000000000000000        0x0 C:/Users/Dell/ide-8.0-workspace/hw.raspberrypi-bcm2712-rpi5_2/src/hardware/startup/boards/../../../../install/aarch64le/usr/lib\libstartup.a(invert_timer_freq.o)
 .note.GNU-stack
                0x0000000000000000        0x0 C:/Users/Dell/ide-8.0-workspace/hw.raspberrypi-bcm2712-rpi5_2/src/hardware/startup/boards/../../../../install/aarch64le/usr/lib\libstartup.a(jtag.o)
 .note.GNU-stack
                0x0000000000000000        0x0 C:/Users/Dell/ide-8.0-workspace/hw.raspberrypi-bcm2712-rpi5_2/src/hardware/startup/boards/../../../../install/aarch64le/usr/lib\libstartup.a(kprintf.o)
 .note.GNU-stack
                0x0000000000000000        0x0 C:/Users/Dell/ide-8.0-workspace/hw.raspberrypi-bcm2712-rpi5_2/src/hardware/startup/boards/../../../../install/aarch64le/usr/lib\libstartup.a(load_ifs.o)
 .note.GNU-stack
                0x0000000000000000        0x0 C:/Users/Dell/ide-8.0-workspace/hw.raspberrypi-bcm2712-rpi5_2/src/hardware/startup/boards/../../../../install/aarch64le/usr/lib\libstartup.a(map_callout_io.o)
 .note.GNU-stack
                0x0000000000000000        0x0 C:/Users/Dell/ide-8.0-workspace/hw.raspberrypi-bcm2712-rpi5_2/src/hardware/startup/boards/../../../../install/aarch64le/usr/lib\libstartup.a(map_startup_mem.o)
 .note.GNU-stack
                0x0000000000000000        0x0 C:/Users/Dell/ide-8.0-workspace/hw.raspberrypi-bcm2712-rpi5_2/src/hardware/startup/boards/../../../../install/aarch64le/usr/lib\libstartup.a(memcpy.o)
 .note.GNU-stack
                0x0000000000000000        0x0 C:/Users/Dell/ide-8.0-workspace/hw.raspberrypi-bcm2712-rpi5_2/src/hardware/startup/boards/../../../../install/aarch64le/usr/lib\libstartup.a(memfuncs.o)
 .note.GNU-stack
                0x0000000000000000        0x0 C:/Users/Dell/ide-8.0-workspace/hw.raspberrypi-bcm2712-rpi5_2/src/hardware/startup/boards/../../../../install/aarch64le/usr/lib\libstartup.a(memmove.o)
 .note.GNU-stack
                0x0000000000000000        0x0 C:/Users/Dell/ide-8.0-workspace/hw.raspberrypi-bcm2712-rpi5_2/src/hardware/startup/boards/../../../../install/aarch64le/usr/lib\libstartup.a(print_sysp.o)
 .note.GNU-stack
                0x0000000000000000        0x0 C:/Users/Dell/ide-8.0-workspace/hw.raspberrypi-bcm2712-rpi5_2/src/hardware/startup/boards/../../../../install/aarch64le/usr/lib\libstartup.a(psci_smp.o)
 .note.GNU-stack
                0x0000000000000000        0x0 C:/Users/Dell/ide-8.0-workspace/hw.raspberrypi-bcm2712-rpi5_2/src/hardware/startup/boards/../../../../install/aarch64le/usr/lib\libstartup.a(ram.o)
 .note.GNU-stack
                0x0000000000000000        0x0 C:/Users/Dell/ide-8.0-workspace/hw.raspberrypi-bcm2712-rpi5_2/src/hardware/startup/boards/../../../../install/aarch64le/usr/lib\libstartup.a(restore_ifs.o)
 .note.GNU-stack
                0x0000000000000000        0x0 C:/Users/Dell/ide-8.0-workspace/hw.raspberrypi-bcm2712-rpi5_2/src/hardware/startup/boards/../../../../install/aarch64le/usr/lib\libstartup.a(ssp.o)
 .note.GNU-stack
                0x0000000000000000        0x0 C:/Users/Dell/ide-8.0-workspace/hw.raspberrypi-bcm2712-rpi5_2/src/hardware/startup/boards/../../../../install/aarch64le/usr/lib\libstartup.a(startnext.o)
 .note.GNU-stack
                0x0000000000000000        0x0 C:/Users/Dell/ide-8.0-workspace/hw.raspberrypi-bcm2712-rpi5_2/src/hardware/startup/boards/../../../../install/aarch64le/usr/lib\libstartup.a(strings.o)
 .note.GNU-stack
                0x0000000000000000        0x0 C:/Users/Dell/ide-8.0-workspace/hw.raspberrypi-bcm2712-rpi5_2/src/hardware/startup/boards/../../../../install/aarch64le/usr/lib\libstartup.a(strtoul.o)
 .note.GNU-stack
                0x0000000000000000        0x0 C:/Users/Dell/ide-8.0-workspace/hw.raspberrypi-bcm2712-rpi5_2/src/hardware/startup/boards/../../../../install/aarch64le/usr/lib\libstartup.a(syspage_memory.o)
 .note.GNU-stack
                0x0000000000000000        0x0 C:/Users/Dell/ide-8.0-workspace/hw.raspberrypi-bcm2712-rpi5_2/src/hardware/startup/boards/../../../../install/aarch64le/usr/lib\libstartup.a(tweak_cmdline.o)
 .note.GNU-stack
                0x0000000000000000        0x0 C:/Users/Dell/ide-8.0-workspace/hw.raspberrypi-bcm2712-rpi5_2/src/hardware/startup/boards/../../../../install/aarch64le/usr/lib\libstartup.a(uncompress.o)
 .note.GNU-stack
                0x0000000000000000        0x0 C:/Users/Dell/ide-8.0-workspace/hw.raspberrypi-bcm2712-rpi5_2/src/hardware/startup/boards/../../../../install/aarch64le/usr/lib\libstartup.a(uncompress_ucl.o)
 .note.GNU-stack
                0x0000000000000000        0x0 C:/Users/Dell/ide-8.0-workspace/hw.raspberrypi-bcm2712-rpi5_2/src/hardware/startup/boards/../../../../install/aarch64le/usr/lib\libstartup.a(aarch64_cpuid.o)
 .note.GNU-stack
                0x0000000000000000        0x0 C:/Users/Dell/ide-8.0-workspace/hw.raspberrypi-bcm2712-rpi5_2/src/hardware/startup/boards/../../../../install/aarch64le/usr/lib\libstartup.a(aarch64_cpuspeed.o)
 .note.GNU-stack
                0x0000000000000000        0x0 C:/Users/Dell/ide-8.0-workspace/hw.raspberrypi-bcm2712-rpi5_2/src/hardware/startup/boards/../../../../install/aarch64le/usr/lib\libstartup.a(aarch64_map.o)
 .note.GNU-stack
                0x0000000000000000        0x0 C:/Users/Dell/ide-8.0-workspace/hw.raspberrypi-bcm2712-rpi5_2/src/hardware/startup/boards/../../../../install/aarch64le/usr/lib\libstartup.a(add_cache.o)
 .note.GNU-stack
                0x0000000000000000        0x0 C:/Users/Dell/ide-8.0-workspace/hw.raspberrypi-bcm2712-rpi5_2/src/hardware/startup/boards/../../../../install/aarch64le/usr/lib\libstartup.a(add_interrupt.o)
 .note.GNU-stack
                0x0000000000000000        0x0 C:/Users/Dell/ide-8.0-workspace/hw.raspberrypi-bcm2712-rpi5_2/src/hardware/startup/boards/../../../../install/aarch64le/usr/lib\libstartup.a(alloc_qtime.o)
 .note.GNU-stack
                0x0000000000000000        0x0 C:/Users/Dell/ide-8.0-workspace/hw.raspberrypi-bcm2712-rpi5_2/src/hardware/startup/boards/../../../../install/aarch64le/usr/lib\libstartup.a(ap_fail.o)
 .note.GNU-stack
                0x0000000000000000        0x0 C:/Users/Dell/ide-8.0-workspace/hw.raspberrypi-bcm2712-rpi5_2/src/hardware/startup/boards/../../../../install/aarch64le/usr/lib\libstartup.a(as_add.o)
 .note.GNU-stack
                0x0000000000000000        0x0 C:/Users/Dell/ide-8.0-workspace/hw.raspberrypi-bcm2712-rpi5_2/src/hardware/startup/boards/../../../../install/aarch64le/usr/lib\libstartup.a(as_add64.o)
 .note.GNU-stack
                0x0000000000000000        0x0 C:/Users/Dell/ide-8.0-workspace/hw.raspberrypi-bcm2712-rpi5_2/src/hardware/startup/boards/../../../../install/aarch64le/usr/lib\libstartup.a(as_default.o)
 .note.GNU-stack
                0x0000000000000000        0x0 C:/Users/Dell/ide-8.0-workspace/hw.raspberrypi-bcm2712-rpi5_2/src/hardware/startup/boards/../../../../install/aarch64le/usr/lib\libstartup.a(as_find.o)
 .note.GNU-stack
                0x0000000000000000        0x0 C:/Users/Dell/ide-8.0-workspace/hw.raspberrypi-bcm2712-rpi5_2/src/hardware/startup/boards/../../../../install/aarch64le/usr/lib\libstartup.a(board_sysctl.o)
 .note.GNU-stack
                0x0000000000000000        0x0 C:/Users/Dell/ide-8.0-workspace/hw.raspberrypi-bcm2712-rpi5_2/src/hardware/startup/boards/../../../../install/aarch64le/usr/lib\libstartup.a(boot_regs.o)
 .note.GNU-stack
                0x0000000000000000        0x0 C:/Users/Dell/ide-8.0-workspace/hw.raspberrypi-bcm2712-rpi5_2/src/hardware/startup/boards/../../../../install/aarch64le/usr/lib\libstartup.a(cpu_startnext.o)
 .note.GNU-stack
                0x0000000000000000        0x0 C:/Users/Dell/ide-8.0-workspace/hw.raspberrypi-bcm2712-rpi5_2/src/hardware/startup/boards/../../../../install/aarch64le/usr/lib\libstartup.a(cpu_syspage_memory.o)
 .note.GNU-stack
                0x0000000000000000        0x0 C:/Users/Dell/ide-8.0-workspace/hw.raspberrypi-bcm2712-rpi5_2/src/hardware/startup/boards/../../../../install/aarch64le/usr/lib\libstartup.a(cpuid_a35.o)
 .note.GNU-stack
                0x0000000000000000        0x0 C:/Users/Dell/ide-8.0-workspace/hw.raspberrypi-bcm2712-rpi5_2/src/hardware/startup/boards/../../../../install/aarch64le/usr/lib\libstartup.a(cpuid_a53.o)
 .note.GNU-stack
                0x0000000000000000        0x0 C:/Users/Dell/ide-8.0-workspace/hw.raspberrypi-bcm2712-rpi5_2/src/hardware/startup/boards/../../../../install/aarch64le/usr/lib\libstartup.a(cpuid_a55.o)
 .note.GNU-stack
                0x0000000000000000        0x0 C:/Users/Dell/ide-8.0-workspace/hw.raspberrypi-bcm2712-rpi5_2/src/hardware/startup/boards/../../../../install/aarch64le/usr/lib\libstartup.a(cpuid_a57.o)
 .note.GNU-stack
                0x0000000000000000        0x0 C:/Users/Dell/ide-8.0-workspace/hw.raspberrypi-bcm2712-rpi5_2/src/hardware/startup/boards/../../../../install/aarch64le/usr/lib\libstartup.a(cpuid_a72.o)
 .note.GNU-stack
                0x0000000000000000        0x0 C:/Users/Dell/ide-8.0-workspace/hw.raspberrypi-bcm2712-rpi5_2/src/hardware/startup/boards/../../../../install/aarch64le/usr/lib\libstartup.a(cpuid_a720.o)
 .note.GNU-stack
                0x0000000000000000        0x0 C:/Users/Dell/ide-8.0-workspace/hw.raspberrypi-bcm2712-rpi5_2/src/hardware/startup/boards/../../../../install/aarch64le/usr/lib\libstartup.a(cpuid_a720ae.o)
 .note.GNU-stack
                0x0000000000000000        0x0 C:/Users/Dell/ide-8.0-workspace/hw.raspberrypi-bcm2712-rpi5_2/src/hardware/startup/boards/../../../../install/aarch64le/usr/lib\libstartup.a(cpuid_a75.o)
 .note.GNU-stack
                0x0000000000000000        0x0 C:/Users/Dell/ide-8.0-workspace/hw.raspberrypi-bcm2712-rpi5_2/src/hardware/startup/boards/../../../../install/aarch64le/usr/lib\libstartup.a(cpuid_a76.o)
 .note.GNU-stack
                0x0000000000000000        0x0 C:/Users/Dell/ide-8.0-workspace/hw.raspberrypi-bcm2712-rpi5_2/src/hardware/startup/boards/../../../../install/aarch64le/usr/lib\libstartup.a(cpuid_a78ae.o)
 .note.GNU-stack
                0x0000000000000000        0x0 C:/Users/Dell/ide-8.0-workspace/hw.raspberrypi-bcm2712-rpi5_2/src/hardware/startup/boards/../../../../install/aarch64le/usr/lib\libstartup.a(cpuid_d15.o)
 .note.GNU-stack
                0x0000000000000000        0x0 C:/Users/Dell/ide-8.0-workspace/hw.raspberrypi-bcm2712-rpi5_2/src/hardware/startup/boards/../../../../install/aarch64le/usr/lib\libstartup.a(cpuid_d20.o)
 .note.GNU-stack
                0x0000000000000000        0x0 C:/Users/Dell/ide-8.0-workspace/hw.raspberrypi-bcm2712-rpi5_2/src/hardware/startup/boards/../../../../install/aarch64le/usr/lib\libstartup.a(cpuid_n1.o)
 .note.GNU-stack
                0x0000000000000000        0x0 C:/Users/Dell/ide-8.0-workspace/hw.raspberrypi-bcm2712-rpi5_2/src/hardware/startup/boards/../../../../install/aarch64le/usr/lib\libstartup.a(cpuid_neo_v1.o)
 .note.GNU-stack
                0x0000000000000000        0x0 C:/Users/Dell/ide-8.0-workspace/hw.raspberrypi-bcm2712-rpi5_2/src/hardware/startup/boards/../../../../install/aarch64le/usr/lib\libstartup.a(cpuid_neo_v2.o)
 .note.GNU-stack
                0x0000000000000000        0x0 C:/Users/Dell/ide-8.0-workspace/hw.raspberrypi-bcm2712-rpi5_2/src/hardware/startup/boards/../../../../install/aarch64le/usr/lib\libstartup.a(cpuid_v8_aem.o)
 .note.GNU-stack
                0x0000000000000000        0x0 C:/Users/Dell/ide-8.0-workspace/hw.raspberrypi-bcm2712-rpi5_2/src/hardware/startup/boards/../../../../install/aarch64le/usr/lib\libstartup.a(cpuid_v8_fm.o)
 .note.GNU-stack
                0x0000000000000000        0x0 C:/Users/Dell/ide-8.0-workspace/hw.raspberrypi-bcm2712-rpi5_2/src/hardware/startup/boards/../../../../install/aarch64le/usr/lib\libstartup.a(cpuid_x2.o)
 .note.GNU-stack
                0x0000000000000000        0x0 C:/Users/Dell/ide-8.0-workspace/hw.raspberrypi-bcm2712-rpi5_2/src/hardware/startup/boards/../../../../install/aarch64le/usr/lib\libstartup.a(cpuid_x4.o)
 .note.GNU-stack
                0x0000000000000000        0x0 C:/Users/Dell/ide-8.0-workspace/hw.raspberrypi-bcm2712-rpi5_2/src/hardware/startup/boards/../../../../install/aarch64le/usr/lib\libstartup.a(cpuid_x925.o)
 .note.GNU-stack
                0x0000000000000000        0x0 C:/Users/Dell/ide-8.0-workspace/hw.raspberrypi-bcm2712-rpi5_2/src/hardware/startup/boards/../../../../install/aarch64le/usr/lib\libstartup.a(crash_done.o)
 .note.GNU-stack
                0x0000000000000000        0x0 C:/Users/Dell/ide-8.0-workspace/hw.raspberrypi-bcm2712-rpi5_2/src/hardware/startup/boards/../../../../install/aarch64le/usr/lib\libstartup.a(dummy_print_char.o)
 .note.GNU-stack
                0x0000000000000000        0x0 C:/Users/Dell/ide-8.0-workspace/hw.raspberrypi-bcm2712-rpi5_2/src/hardware/startup/boards/../../../../install/aarch64le/usr/lib\libstartup.a(elf.o)
 .note.GNU-stack
                0x0000000000000000        0x0 C:/Users/Dell/ide-8.0-workspace/hw.raspberrypi-bcm2712-rpi5_2/src/hardware/startup/boards/../../../../install/aarch64le/usr/lib\libstartup.a(elf32.o)
 .note.GNU-stack
                0x0000000000000000        0x0 C:/Users/Dell/ide-8.0-workspace/hw.raspberrypi-bcm2712-rpi5_2/src/hardware/startup/boards/../../../../install/aarch64le/usr/lib\libstartup.a(elf64.o)
 .note.GNU-stack
                0x0000000000000000        0x0 C:/Users/Dell/ide-8.0-workspace/hw.raspberrypi-bcm2712-rpi5_2/src/hardware/startup/boards/../../../../install/aarch64le/usr/lib\libstartup.a(elf_map.o)
 .note.GNU-stack
                0x0000000000000000        0x0 C:/Users/Dell/ide-8.0-workspace/hw.raspberrypi-bcm2712-rpi5_2/src/hardware/startup/boards/../../../../install/aarch64le/usr/lib\libstartup.a(hwi_add_device.o)
 .note.GNU-stack
                0x0000000000000000        0x0 C:/Users/Dell/ide-8.0-workspace/hw.raspberrypi-bcm2712-rpi5_2/src/hardware/startup/boards/../../../../install/aarch64le/usr/lib\libstartup.a(hwi_default.o)
 .note.GNU-stack
                0x0000000000000000        0x0 C:/Users/Dell/ide-8.0-workspace/hw.raspberrypi-bcm2712-rpi5_2/src/hardware/startup/boards/../../../../install/aarch64le/usr/lib\libstartup.a(hypervisor.o)
 .note.GNU-stack
                0x0000000000000000        0x0 C:/Users/Dell/ide-8.0-workspace/hw.raspberrypi-bcm2712-rpi5_2/src/hardware/startup/boards/../../../../install/aarch64le/usr/lib\libstartup.a(init_mitigation_mem.o)
 .note.GNU-stack
                0x0000000000000000        0x0 C:/Users/Dell/ide-8.0-workspace/hw.raspberrypi-bcm2712-rpi5_2/src/hardware/startup/boards/../../../../install/aarch64le/usr/lib\libstartup.a(rtc_time.o)
 .note.GNU-stack
                0x0000000000000000        0x0 C:/Users/Dell/ide-8.0-workspace/hw.raspberrypi-bcm2712-rpi5_2/src/hardware/startup/boards/../../../../install/aarch64le/usr/lib\libstartup.a(startup_info.o)

.QNX.command.line
                0x0000000000000000    0x49ca1
 .QNX.command.line
                0x0000000000000000      0x8b9 C:/Users/Dell/ide-8.0-workspace/hw.raspberrypi-bcm2712-rpi5_2/src/hardware/startup/boards/../../../../install/aarch64le/usr/lib\libstartup.a(_main.o)
 .QNX.command.line
                0x00000000000008b9      0x8e9 C:/Users/Dell/ide-8.0-workspace/hw.raspberrypi-bcm2712-rpi5_2/src/hardware/startup/boards/../../../../install/aarch64le/usr/lib\libstartup.a(as_add_containing.o)
 .QNX.command.line
                0x00000000000011a2      0x8ed C:/Users/Dell/ide-8.0-workspace/hw.raspberrypi-bcm2712-rpi5_2/src/hardware/startup/boards/../../../../install/aarch64le/usr/lib\libstartup.a(as_find_containing.o)
 .QNX.command.line
                0x0000000000001a8f      0x8d1 C:/Users/Dell/ide-8.0-workspace/hw.raspberrypi-bcm2712-rpi5_2/src/hardware/startup/boards/../../../../install/aarch64le/usr/lib\libstartup.a(as_off2info.o)
 .QNX.command.line
                0x0000000000002360      0x8cd C:/Users/Dell/ide-8.0-workspace/hw.raspberrypi-bcm2712-rpi5_2/src/hardware/startup/boards/../../../../install/aarch64le/usr/lib\libstartup.a(board_init.o)
 .QNX.command.line
                0x0000000000002c2d      0x8e9 C:/Users/Dell/ide-8.0-workspace/hw.raspberrypi-bcm2712-rpi5_2/src/hardware/startup/boards/../../../../install/aarch64le/usr/lib\libstartup.a(bootstrap_cmdline.o)
 .QNX.command.line
                0x0000000000003516      0x8c5 C:/Users/Dell/ide-8.0-workspace/hw.raspberrypi-bcm2712-rpi5_2/src/hardware/startup/boards/../../../../install/aarch64le/usr/lib\libstartup.a(callouts.o)
 .QNX.command.line
                0x0000000000003ddb      0x8dd C:/Users/Dell/ide-8.0-workspace/hw.raspberrypi-bcm2712-rpi5_2/src/hardware/startup/boards/../../../../install/aarch64le/usr/lib\libstartup.a(common_options.o)
 .QNX.command.line
                0x00000000000046b8      0x8e1 C:/Users/Dell/ide-8.0-workspace/hw.raspberrypi-bcm2712-rpi5_2/src/hardware/startup/boards/../../../../install/aarch64le/usr/lib\libstartup.a(cpu_cluster_add.o)
 .QNX.command.line
                0x0000000000004f99      0x8fd C:/Users/Dell/ide-8.0-workspace/hw.raspberrypi-bcm2712-rpi5_2/src/hardware/startup/boards/../../../../install/aarch64le/usr/lib\libstartup.a(cpu_common_options.o)
 .QNX.command.line
                0x0000000000005896      0x8e1 C:/Users/Dell/ide-8.0-workspace/hw.raspberrypi-bcm2712-rpi5_2/src/hardware/startup/boards/../../../../install/aarch64le/usr/lib\libstartup.a(cpu_startup.o)
 .QNX.command.line
                0x0000000000006177      0x8b9 C:/Users/Dell/ide-8.0-workspace/hw.raspberrypi-bcm2712-rpi5_2/src/hardware/startup/boards/../../../../install/aarch64le/usr/lib\libstartup.a(debug.o)
 .QNX.command.line
                0x0000000000006a30      0x8e5 C:/Users/Dell/ide-8.0-workspace/hw.raspberrypi-bcm2712-rpi5_2/src/hardware/startup/boards/../../../../install/aarch64le/usr/lib\libstartup.a(fdt_init_bootopt.o)
 .QNX.command.line
                0x0000000000007315      0x903 C:/Users/Dell/ide-8.0-workspace/hw.raspberrypi-bcm2712-rpi5_2/src/hardware/startup/boards/../../../../install/aarch64le/usr/lib\libstartup.a(fdt_psci_configure.o)
 .QNX.command.line
                0x0000000000007c18      0x8c5 C:/Users/Dell/ide-8.0-workspace/hw.raspberrypi-bcm2712-rpi5_2/src/hardware/startup/boards/../../../../install/aarch64le/usr/lib\libstartup.a(fdt_vars.o)
 .QNX.command.line
                0x00000000000084dd      0x8bd C:/Users/Dell/ide-8.0-workspace/hw.raspberrypi-bcm2712-rpi5_2/src/hardware/startup/boards/../../../../install/aarch64le/usr/lib\libstartup.a(getopt.o)
 .QNX.command.line
                0x0000000000008d9a      0x8c1 C:/Users/Dell/ide-8.0-workspace/hw.raspberrypi-bcm2712-rpi5_2/src/hardware/startup/boards/../../../../install/aarch64le/usr/lib\libstartup.a(getsize.o)
 .QNX.command.line
                0x000000000000965b      0x8c1 C:/Users/Dell/ide-8.0-workspace/hw.raspberrypi-bcm2712-rpi5_2/src/hardware/startup/boards/../../../../install/aarch64le/usr/lib\libstartup.a(gic.o)
 .QNX.command.line
                0x0000000000009f1c      0x8cd C:/Users/Dell/ide-8.0-workspace/hw.raspberrypi-bcm2712-rpi5_2/src/hardware/startup/boards/../../../../install/aarch64le/usr/lib\libstartup.a(gic_v2.o)
 .QNX.command.line
                0x000000000000a7e9      0x8e7 C:/Users/Dell/ide-8.0-workspace/hw.raspberrypi-bcm2712-rpi5_2/src/hardware/startup/boards/../../../../install/aarch64le/usr/lib\libstartup.a(hw_serpl011.o)
 .QNX.command.line
                0x000000000000b0d0      0x8e5 C:/Users/Dell/ide-8.0-workspace/hw.raspberrypi-bcm2712-rpi5_2/src/hardware/startup/boards/../../../../install/aarch64le/usr/lib\libstartup.a(hwi_add_nanospin.o)
 .QNX.command.line
                0x000000000000b9b5      0x8c9 C:/Users/Dell/ide-8.0-workspace/hw.raspberrypi-bcm2712-rpi5_2/src/hardware/startup/boards/../../../../install/aarch64le/usr/lib\libstartup.a(hwi_alloc.o)
 .QNX.command.line
                0x000000000000c27e      0x8d1 C:/Users/Dell/ide-8.0-workspace/hw.raspberrypi-bcm2712-rpi5_2/src/hardware/startup/boards/../../../../install/aarch64le/usr/lib\libstartup.a(hwi_find_as.o)
 .QNX.command.line
                0x000000000000cb4f      0x8cd C:/Users/Dell/ide-8.0-workspace/hw.raspberrypi-bcm2712-rpi5_2/src/hardware/startup/boards/../../../../install/aarch64le/usr/lib\libstartup.a(hwidev_add.o)
 .QNX.command.line
                0x000000000000d41c      0x8e1 C:/Users/Dell/ide-8.0-workspace/hw.raspberrypi-bcm2712-rpi5_2/src/hardware/startup/boards/../../../../install/aarch64le/usr/lib\libstartup.a(hwidev_add_enet.o)
 .QNX.command.line
                0x000000000000dcfd      0x8e5 C:/Users/Dell/ide-8.0-workspace/hw.raspberrypi-bcm2712-rpi5_2/src/hardware/startup/boards/../../../../install/aarch64le/usr/lib\libstartup.a(hwidev_add_timer.o)
 .QNX.command.line
                0x000000000000e5e2      0x8e9 C:/Users/Dell/ide-8.0-workspace/hw.raspberrypi-bcm2712-rpi5_2/src/hardware/startup/boards/../../../../install/aarch64le/usr/lib\libstartup.a(hwitag_add_common.o)
 .QNX.command.line
                0x000000000000eecb      0x8f1 C:/Users/Dell/ide-8.0-workspace/hw.raspberrypi-bcm2712-rpi5_2/src/hardware/startup/boards/../../../../install/aarch64le/usr/lib\libstartup.a(hwitag_add_inputclk.o)
 .QNX.command.line
                0x000000000000f7bc      0x8dd C:/Users/Dell/ide-8.0-workspace/hw.raspberrypi-bcm2712-rpi5_2/src/hardware/startup/boards/../../../../install/aarch64le/usr/lib\libstartup.a(hwitag_add_irq.o)
 .QNX.command.line
                0x0000000000010099      0x8f1 C:/Users/Dell/ide-8.0-workspace/hw.raspberrypi-bcm2712-rpi5_2/src/hardware/startup/boards/../../../../install/aarch64le/usr/lib\libstartup.a(hwitag_add_location.o)
 .QNX.command.line
                0x000000000001098a      0x8ed C:/Users/Dell/ide-8.0-workspace/hw.raspberrypi-bcm2712-rpi5_2/src/hardware/startup/boards/../../../../install/aarch64le/usr/lib\libstartup.a(hwitag_add_nicaddr.o)
 .QNX.command.line
                0x0000000000011277      0x8f9 C:/Users/Dell/ide-8.0-workspace/hw.raspberrypi-bcm2712-rpi5_2/src/hardware/startup/boards/../../../../install/aarch64le/usr/lib\libstartup.a(hwitag_add_nicphyaddr.o)
 .QNX.command.line
                0x0000000000011b70      0x8ed C:/Users/Dell/ide-8.0-workspace/hw.raspberrypi-bcm2712-rpi5_2/src/hardware/startup/boards/../../../../install/aarch64le/usr/lib\libstartup.a(hwitag_add_regname.o)
 .QNX.command.line
                0x000000000001245d      0x8f1 C:/Users/Dell/ide-8.0-workspace/hw.raspberrypi-bcm2712-rpi5_2/src/hardware/startup/boards/../../../../install/aarch64le/usr/lib\libstartup.a(hwitag_set_inputclk.o)
 .QNX.command.line
                0x0000000000012d4e      0x8e1 C:/Users/Dell/ide-8.0-workspace/hw.raspberrypi-bcm2712-rpi5_2/src/hardware/startup/boards/../../../../install/aarch64le/usr/lib\libstartup.a(hwitag_set_ivec.o)
 .QNX.command.line
                0x000000000001362f      0x8e5 C:/Users/Dell/ide-8.0-workspace/hw.raspberrypi-bcm2712-rpi5_2/src/hardware/startup/boards/../../../../install/aarch64le/usr/lib\libstartup.a(hypervisor_setup.o)
 .QNX.command.line
                0x0000000000013f14      0x8dd C:/Users/Dell/ide-8.0-workspace/hw.raspberrypi-bcm2712-rpi5_2/src/hardware/startup/boards/../../../../install/aarch64le/usr/lib\libstartup.a(init_cacheattr.o)
 .QNX.command.line
                0x00000000000147f1      0x8e5 C:/Users/Dell/ide-8.0-workspace/hw.raspberrypi-bcm2712-rpi5_2/src/hardware/startup/boards/../../../../install/aarch64le/usr/lib\libstartup.a(init_cpuinfo.o)
 .QNX.command.line
                0x00000000000150d6      0x8d5 C:/Users/Dell/ide-8.0-workspace/hw.raspberrypi-bcm2712-rpi5_2/src/hardware/startup/boards/../../../../install/aarch64le/usr/lib\libstartup.a(init_mmu.o)
 .QNX.command.line
                0x00000000000159ab      0x8dd C:/Users/Dell/ide-8.0-workspace/hw.raspberrypi-bcm2712-rpi5_2/src/hardware/startup/boards/../../../../install/aarch64le/usr/lib\libstartup.a(init_qtime.o)
 .QNX.command.line
                0x0000000000016288      0x8f1 C:/Users/Dell/ide-8.0-workspace/hw.raspberrypi-bcm2712-rpi5_2/src/hardware/startup/boards/../../../../install/aarch64le/usr/lib\libstartup.a(init_qtime_v8gt.o)
 .QNX.command.line
                0x0000000000016b79      0x8c5 C:/Users/Dell/ide-8.0-workspace/hw.raspberrypi-bcm2712-rpi5_2/src/hardware/startup/boards/../../../../install/aarch64le/usr/lib\libstartup.a(init_smp.o)
 .QNX.command.line
                0x000000000001743e      0x8f1 C:/Users/Dell/ide-8.0-workspace/hw.raspberrypi-bcm2712-rpi5_2/src/hardware/startup/boards/../../../../install/aarch64le/usr/lib\libstartup.a(init_system_private.o)
 .QNX.command.line
                0x0000000000017d2f      0x8e9 C:/Users/Dell/ide-8.0-workspace/hw.raspberrypi-bcm2712-rpi5_2/src/hardware/startup/boards/../../../../install/aarch64le/usr/lib\libstartup.a(invert_timer_freq.o)
 .QNX.command.line
                0x0000000000018618      0x8b5 C:/Users/Dell/ide-8.0-workspace/hw.raspberrypi-bcm2712-rpi5_2/src/hardware/startup/boards/../../../../install/aarch64le/usr/lib\libstartup.a(jtag.o)
 .QNX.command.line
                0x0000000000018ecd      0x8c1 C:/Users/Dell/ide-8.0-workspace/hw.raspberrypi-bcm2712-rpi5_2/src/hardware/startup/boards/../../../../install/aarch64le/usr/lib\libstartup.a(kprintf.o)
 .QNX.command.line
                0x000000000001978e      0x8c5 C:/Users/Dell/ide-8.0-workspace/hw.raspberrypi-bcm2712-rpi5_2/src/hardware/startup/boards/../../../../install/aarch64le/usr/lib\libstartup.a(load_ifs.o)
 .QNX.command.line
                0x000000000001a053      0x8ed C:/Users/Dell/ide-8.0-workspace/hw.raspberrypi-bcm2712-rpi5_2/src/hardware/startup/boards/../../../../install/aarch64le/usr/lib\libstartup.a(map_callout_io.o)
 .QNX.command.line
                0x000000000001a940      0x8f1 C:/Users/Dell/ide-8.0-workspace/hw.raspberrypi-bcm2712-rpi5_2/src/hardware/startup/boards/../../../../install/aarch64le/usr/lib\libstartup.a(map_startup_mem.o)
 .QNX.command.line
                0x000000000001b231      0x8bd C:/Users/Dell/ide-8.0-workspace/hw.raspberrypi-bcm2712-rpi5_2/src/hardware/startup/boards/../../../../install/aarch64le/usr/lib\libstartup.a(memcpy.o)
 .QNX.command.line
                0x000000000001baee      0x8c5 C:/Users/Dell/ide-8.0-workspace/hw.raspberrypi-bcm2712-rpi5_2/src/hardware/startup/boards/../../../../install/aarch64le/usr/lib\libstartup.a(memfuncs.o)
 .QNX.command.line
                0x000000000001c3b3      0x8c1 C:/Users/Dell/ide-8.0-workspace/hw.raspberrypi-bcm2712-rpi5_2/src/hardware/startup/boards/../../../../install/aarch64le/usr/lib\libstartup.a(memmove.o)
 .QNX.command.line
                0x000000000001cc74      0x8cd C:/Users/Dell/ide-8.0-workspace/hw.raspberrypi-bcm2712-rpi5_2/src/hardware/startup/boards/../../../../install/aarch64le/usr/lib\libstartup.a(print_sysp.o)
 .QNX.command.line
                0x000000000001d541      0x8db C:/Users/Dell/ide-8.0-workspace/hw.raspberrypi-bcm2712-rpi5_2/src/hardware/startup/boards/../../../../install/aarch64le/usr/lib\libstartup.a(psci_smp.o)
 .QNX.command.line
                0x000000000001de1c      0x8b1 C:/Users/Dell/ide-8.0-workspace/hw.raspberrypi-bcm2712-rpi5_2/src/hardware/startup/boards/../../../../install/aarch64le/usr/lib\libstartup.a(ram.o)
 .QNX.command.line
                0x000000000001e6cd      0x8d1 C:/Users/Dell/ide-8.0-workspace/hw.raspberrypi-bcm2712-rpi5_2/src/hardware/startup/boards/../../../../install/aarch64le/usr/lib\libstartup.a(restore_ifs.o)
 .QNX.command.line
                0x000000000001ef9e      0x8b1 C:/Users/Dell/ide-8.0-workspace/hw.raspberrypi-bcm2712-rpi5_2/src/hardware/startup/boards/../../../../install/aarch64le/usr/lib\libstartup.a(ssp.o)
 .QNX.command.line
                0x000000000001f84f      0x8c9 C:/Users/Dell/ide-8.0-workspace/hw.raspberrypi-bcm2712-rpi5_2/src/hardware/startup/boards/../../../../install/aarch64le/usr/lib\libstartup.a(startnext.o)
 .QNX.command.line
                0x0000000000020118      0x8c1 C:/Users/Dell/ide-8.0-workspace/hw.raspberrypi-bcm2712-rpi5_2/src/hardware/startup/boards/../../../../install/aarch64le/usr/lib\libstartup.a(strings.o)
 .QNX.command.line
                0x00000000000209d9      0x8c1 C:/Users/Dell/ide-8.0-workspace/hw.raspberrypi-bcm2712-rpi5_2/src/hardware/startup/boards/../../../../install/aarch64le/usr/lib\libstartup.a(strtoul.o)
 .QNX.command.line
                0x000000000002129a      0x8dd C:/Users/Dell/ide-8.0-workspace/hw.raspberrypi-bcm2712-rpi5_2/src/hardware/startup/boards/../../../../install/aarch64le/usr/lib\libstartup.a(syspage_memory.o)
 .QNX.command.line
                0x0000000000021b77      0x8d9 C:/Users/Dell/ide-8.0-workspace/hw.raspberrypi-bcm2712-rpi5_2/src/hardware/startup/boards/../../../../install/aarch64le/usr/lib\libstartup.a(tweak_cmdline.o)
 .QNX.command.line
                0x0000000000022450      0x8cd C:/Users/Dell/ide-8.0-workspace/hw.raspberrypi-bcm2712-rpi5_2/src/hardware/startup/boards/../../../../install/aarch64le/usr/lib\libstartup.a(uncompress.o)
 .QNX.command.line
                0x0000000000022d1d      0x8dd C:/Users/Dell/ide-8.0-workspace/hw.raspberrypi-bcm2712-rpi5_2/src/hardware/startup/boards/../../../../install/aarch64le/usr/lib\libstartup.a(uncompress_ucl.o)
 .QNX.command.line
                0x00000000000235fa      0x8e9 C:/Users/Dell/ide-8.0-workspace/hw.raspberrypi-bcm2712-rpi5_2/src/hardware/startup/boards/../../../../install/aarch64le/usr/lib\libstartup.a(aarch64_cpuid.o)
 .QNX.command.line
                0x0000000000023ee3      0x8f5 C:/Users/Dell/ide-8.0-workspace/hw.raspberrypi-bcm2712-rpi5_2/src/hardware/startup/boards/../../../../install/aarch64le/usr/lib\libstartup.a(aarch64_cpuspeed.o)
 .QNX.command.line
                0x00000000000247d8      0x8e1 C:/Users/Dell/ide-8.0-workspace/hw.raspberrypi-bcm2712-rpi5_2/src/hardware/startup/boards/../../../../install/aarch64le/usr/lib\libstartup.a(aarch64_map.o)
 .QNX.command.line
                0x00000000000250b9      0x8c9 C:/Users/Dell/ide-8.0-workspace/hw.raspberrypi-bcm2712-rpi5_2/src/hardware/startup/boards/../../../../install/aarch64le/usr/lib\libstartup.a(add_cache.o)
 .QNX.command.line
                0x0000000000025982      0x8d9 C:/Users/Dell/ide-8.0-workspace/hw.raspberrypi-bcm2712-rpi5_2/src/hardware/startup/boards/../../../../install/aarch64le/usr/lib\libstartup.a(add_interrupt.o)
 .QNX.command.line
                0x000000000002625b      0x8d1 C:/Users/Dell/ide-8.0-workspace/hw.raspberrypi-bcm2712-rpi5_2/src/hardware/startup/boards/../../../../install/aarch64le/usr/lib\libstartup.a(alloc_qtime.o)
 .QNX.command.line
                0x0000000000026b2c      0x8c1 C:/Users/Dell/ide-8.0-workspace/hw.raspberrypi-bcm2712-rpi5_2/src/hardware/startup/boards/../../../../install/aarch64le/usr/lib\libstartup.a(ap_fail.o)
 .QNX.command.line
                0x00000000000273ed      0x8bd C:/Users/Dell/ide-8.0-workspace/hw.raspberrypi-bcm2712-rpi5_2/src/hardware/startup/boards/../../../../install/aarch64le/usr/lib\libstartup.a(as_add.o)
 .QNX.command.line
                0x0000000000027caa      0x8c5 C:/Users/Dell/ide-8.0-workspace/hw.raspberrypi-bcm2712-rpi5_2/src/hardware/startup/boards/../../../../install/aarch64le/usr/lib\libstartup.a(as_add64.o)
 .QNX.command.line
                0x000000000002856f      0x8dd C:/Users/Dell/ide-8.0-workspace/hw.raspberrypi-bcm2712-rpi5_2/src/hardware/startup/boards/../../../../install/aarch64le/usr/lib\libstartup.a(as_default.o)
 .QNX.command.line
                0x0000000000028e4c      0x8c1 C:/Users/Dell/ide-8.0-workspace/hw.raspberrypi-bcm2712-rpi5_2/src/hardware/startup/boards/../../../../install/aarch64le/usr/lib\libstartup.a(as_find.o)
 .QNX.command.line
                0x000000000002970d      0x8e5 C:/Users/Dell/ide-8.0-workspace/hw.raspberrypi-bcm2712-rpi5_2/src/hardware/startup/boards/../../../../install/aarch64le/usr/lib\libstartup.a(board_sysctl.o)
 .QNX.command.line
                0x0000000000029ff2      0x8d9 C:/Users/Dell/ide-8.0-workspace/hw.raspberrypi-bcm2712-rpi5_2/src/hardware/startup/boards/../../../../install/aarch64le/usr/lib\libstartup.a(boot_regs.o)
 .QNX.command.line
                0x000000000002a8cb      0x8e9 C:/Users/Dell/ide-8.0-workspace/hw.raspberrypi-bcm2712-rpi5_2/src/hardware/startup/boards/../../../../install/aarch64le/usr/lib\libstartup.a(cpu_startnext.o)
 .QNX.command.line
                0x000000000002b1b4      0x8fd C:/Users/Dell/ide-8.0-workspace/hw.raspberrypi-bcm2712-rpi5_2/src/hardware/startup/boards/../../../../install/aarch64le/usr/lib\libstartup.a(cpu_syspage_memory.o)
 .QNX.command.line
                0x000000000002bab1      0x8d9 C:/Users/Dell/ide-8.0-workspace/hw.raspberrypi-bcm2712-rpi5_2/src/hardware/startup/boards/../../../../install/aarch64le/usr/lib\libstartup.a(cpuid_a35.o)
 .QNX.command.line
                0x000000000002c38a      0x8d9 C:/Users/Dell/ide-8.0-workspace/hw.raspberrypi-bcm2712-rpi5_2/src/hardware/startup/boards/../../../../install/aarch64le/usr/lib\libstartup.a(cpuid_a53.o)
 .QNX.command.line
                0x000000000002cc63      0x8d9 C:/Users/Dell/ide-8.0-workspace/hw.raspberrypi-bcm2712-rpi5_2/src/hardware/startup/boards/../../../../install/aarch64le/usr/lib\libstartup.a(cpuid_a55.o)
 .QNX.command.line
                0x000000000002d53c      0x8d9 C:/Users/Dell/ide-8.0-workspace/hw.raspberrypi-bcm2712-rpi5_2/src/hardware/startup/boards/../../../../install/aarch64le/usr/lib\libstartup.a(cpuid_a57.o)
 .QNX.command.line
                0x000000000002de15      0x8d9 C:/Users/Dell/ide-8.0-workspace/hw.raspberrypi-bcm2712-rpi5_2/src/hardware/startup/boards/../../../../install/aarch64le/usr/lib\libstartup.a(cpuid_a72.o)
 .QNX.command.line
                0x000000000002e6ee      0x8dd C:/Users/Dell/ide-8.0-workspace/hw.raspberrypi-bcm2712-rpi5_2/src/hardware/startup/boards/../../../../install/aarch64le/usr/lib\libstartup.a(cpuid_a720.o)
 .QNX.command.line
                0x000000000002efcb      0x8e5 C:/Users/Dell/ide-8.0-workspace/hw.raspberrypi-bcm2712-rpi5_2/src/hardware/startup/boards/../../../../install/aarch64le/usr/lib\libstartup.a(cpuid_a720ae.o)
 .QNX.command.line
                0x000000000002f8b0      0x8d9 C:/Users/Dell/ide-8.0-workspace/hw.raspberrypi-bcm2712-rpi5_2/src/hardware/startup/boards/../../../../install/aarch64le/usr/lib\libstartup.a(cpuid_a75.o)
 .QNX.command.line
                0x0000000000030189      0x8d9 C:/Users/Dell/ide-8.0-workspace/hw.raspberrypi-bcm2712-rpi5_2/src/hardware/startup/boards/../../../../install/aarch64le/usr/lib\libstartup.a(cpuid_a76.o)
 .QNX.command.line
                0x0000000000030a62      0x8e1 C:/Users/Dell/ide-8.0-workspace/hw.raspberrypi-bcm2712-rpi5_2/src/hardware/startup/boards/../../../../install/aarch64le/usr/lib\libstartup.a(cpuid_a78ae.o)
 .QNX.command.line
                0x0000000000031343      0x8d9 C:/Users/Dell/ide-8.0-workspace/hw.raspberrypi-bcm2712-rpi5_2/src/hardware/startup/boards/../../../../install/aarch64le/usr/lib\libstartup.a(cpuid_d15.o)
 .QNX.command.line
                0x0000000000031c1c      0x8d9 C:/Users/Dell/ide-8.0-workspace/hw.raspberrypi-bcm2712-rpi5_2/src/hardware/startup/boards/../../../../install/aarch64le/usr/lib\libstartup.a(cpuid_d20.o)
 .QNX.command.line
                0x00000000000324f5      0x8d5 C:/Users/Dell/ide-8.0-workspace/hw.raspberrypi-bcm2712-rpi5_2/src/hardware/startup/boards/../../../../install/aarch64le/usr/lib\libstartup.a(cpuid_n1.o)
 .QNX.command.line
                0x0000000000032dca      0x8e5 C:/Users/Dell/ide-8.0-workspace/hw.raspberrypi-bcm2712-rpi5_2/src/hardware/startup/boards/../../../../install/aarch64le/usr/lib\libstartup.a(cpuid_neo_v1.o)
 .QNX.command.line
                0x00000000000336af      0x8e5 C:/Users/Dell/ide-8.0-workspace/hw.raspberrypi-bcm2712-rpi5_2/src/hardware/startup/boards/../../../../install/aarch64le/usr/lib\libstartup.a(cpuid_neo_v2.o)
 .QNX.command.line
                0x0000000000033f94      0x8e5 C:/Users/Dell/ide-8.0-workspace/hw.raspberrypi-bcm2712-rpi5_2/src/hardware/startup/boards/../../../../install/aarch64le/usr/lib\libstartup.a(cpuid_v8_aem.o)
 .QNX.command.line
                0x0000000000034879      0x8e1 C:/Users/Dell/ide-8.0-workspace/hw.raspberrypi-bcm2712-rpi5_2/src/hardware/startup/boards/../../../../install/aarch64le/usr/lib\libstartup.a(cpuid_v8_fm.o)
 .QNX.command.line
                0x000000000003515a      0x8d5 C:/Users/Dell/ide-8.0-workspace/hw.raspberrypi-bcm2712-rpi5_2/src/hardware/startup/boards/../../../../install/aarch64le/usr/lib\libstartup.a(cpuid_x2.o)
 .QNX.command.line
                0x0000000000035a2f      0x8d5 C:/Users/Dell/ide-8.0-workspace/hw.raspberrypi-bcm2712-rpi5_2/src/hardware/startup/boards/../../../../install/aarch64le/usr/lib\libstartup.a(cpuid_x4.o)
 .QNX.command.line
                0x0000000000036304      0x8dd C:/Users/Dell/ide-8.0-workspace/hw.raspberrypi-bcm2712-rpi5_2/src/hardware/startup/boards/../../../../install/aarch64le/usr/lib\libstartup.a(cpuid_x925.o)
 .QNX.command.line
                0x0000000000036be1      0x8dd C:/Users/Dell/ide-8.0-workspace/hw.raspberrypi-bcm2712-rpi5_2/src/hardware/startup/boards/../../../../install/aarch64le/usr/lib\libstartup.a(crash_done.o)
 .QNX.command.line
                0x00000000000374be      0x8e5 C:/Users/Dell/ide-8.0-workspace/hw.raspberrypi-bcm2712-rpi5_2/src/hardware/startup/boards/../../../../install/aarch64le/usr/lib\libstartup.a(dummy_print_char.o)
 .QNX.command.line
                0x0000000000037da3      0x8b1 C:/Users/Dell/ide-8.0-workspace/hw.raspberrypi-bcm2712-rpi5_2/src/hardware/startup/boards/../../../../install/aarch64le/usr/lib\libstartup.a(elf.o)
 .QNX.command.line
                0x0000000000038654      0x8b9 C:/Users/Dell/ide-8.0-workspace/hw.raspberrypi-bcm2712-rpi5_2/src/hardware/startup/boards/../../../../install/aarch64le/usr/lib\libstartup.a(elf32.o)
 .QNX.command.line
                0x0000000000038f0d      0x8b9 C:/Users/Dell/ide-8.0-workspace/hw.raspberrypi-bcm2712-rpi5_2/src/hardware/startup/boards/../../../../install/aarch64le/usr/lib\libstartup.a(elf64.o)
 .QNX.command.line
                0x00000000000397c6      0x8d1 C:/Users/Dell/ide-8.0-workspace/hw.raspberrypi-bcm2712-rpi5_2/src/hardware/startup/boards/../../../../install/aarch64le/usr/lib\libstartup.a(elf_map.o)
 .QNX.command.line
                0x000000000003a097      0x8dd C:/Users/Dell/ide-8.0-workspace/hw.raspberrypi-bcm2712-rpi5_2/src/hardware/startup/boards/../../../../install/aarch64le/usr/lib\libstartup.a(hwi_add_device.o)
 .QNX.command.line
                0x000000000003a974      0x8d1 C:/Users/Dell/ide-8.0-workspace/hw.raspberrypi-bcm2712-rpi5_2/src/hardware/startup/boards/../../../../install/aarch64le/usr/lib\libstartup.a(hwi_default.o)
 .QNX.command.line
                0x000000000003b245      0x8dd C:/Users/Dell/ide-8.0-workspace/hw.raspberrypi-bcm2712-rpi5_2/src/hardware/startup/boards/../../../../install/aarch64le/usr/lib\libstartup.a(hypervisor.o)
 .QNX.command.line
                0x000000000003bb22      0x901 C:/Users/Dell/ide-8.0-workspace/hw.raspberrypi-bcm2712-rpi5_2/src/hardware/startup/boards/../../../../install/aarch64le/usr/lib\libstartup.a(init_mitigation_mem.o)
 .QNX.command.line
                0x000000000003c423      0x8d5 C:/Users/Dell/ide-8.0-workspace/hw.raspberrypi-bcm2712-rpi5_2/src/hardware/startup/boards/../../../../install/aarch64le/usr/lib\libstartup.a(rtc_time.o)
 .QNX.command.line
                0x000000000003ccf8      0x8d5 C:/Users/Dell/ide-8.0-workspace/hw.raspberrypi-bcm2712-rpi5_2/src/hardware/startup/boards/../../../../install/aarch64le/usr/lib\libstartup.a(startup_info.o)
 .QNX.command.line
                0x000000000003d5cd      0x7e8 C:/Users/Dell/qnx800/target/qnx/aarch64le/usr/lib\libucl.a(n2b_d.o)
 .QNX.command.line
                0x000000000003ddb5      0x733 C:/Users/Dell/qnx800/target/qnx/aarch64le/usr/lib\libfdt.a(fdt.o)
 .QNX.command.line
                0x000000000003e4e8      0x73f C:/Users/Dell/qnx800/target/qnx/aarch64le/usr/lib\libfdt.a(fdt_ro.o)
 .QNX.command.line
                0x000000000003ec27      0x9c2 C:/Users/Dell/qnx800/target/qnx/aarch64le/lib\libc.a(hwi_find_item.o)
 .QNX.command.line
                0x000000000003f5e9      0x9be C:/Users/Dell/qnx800/target/qnx/aarch64le/lib\libc.a(hwi_next_tag.o)
 .QNX.command.line
                0x000000000003ffa7      0x9ba C:/Users/Dell/qnx800/target/qnx/aarch64le/lib\libc.a(hwi_off2tag.o)
 .QNX.command.line
                0x0000000000040961      0x9ba C:/Users/Dell/qnx800/target/qnx/aarch64le/lib\libc.a(hwi_tag2off.o)
 .QNX.command.line
                0x000000000004131b      0x9cb C:/Users/Dell/qnx800/target/qnx/aarch64le/lib\libc.a(memchr.o)
 .QNX.command.line
                0x0000000000041ce6      0x9cb C:/Users/Dell/qnx800/target/qnx/aarch64le/lib\libc.a(memset.o)
 .QNX.command.line
                0x00000000000426b1      0x9cb C:/Users/Dell/qnx800/target/qnx/aarch64le/lib\libc.a(strchr.o)
 .QNX.command.line
                0x000000000004307c      0x9cf C:/Users/Dell/qnx800/target/qnx/aarch64le/lib\libc.a(strlcpy.o)
 .QNX.command.line
                0x0000000000043a4b      0x9cf C:/Users/Dell/qnx800/target/qnx/aarch64le/lib\libc.a(strnlen.o)
 .QNX.command.line
                0x000000000004441a      0x9cf C:/Users/Dell/qnx800/target/qnx/aarch64le/lib\libc.a(strrchr.o)
 .QNX.command.line
                0x0000000000044de9      0x9cb C:/Users/Dell/qnx800/target/qnx/aarch64le/lib\libc.a(strstr.o)
 .QNX.command.line
                0x00000000000457b4      0x9ce C:/Users/Dell/qnx800/target/qnx/aarch64le/lib\libc.a(__progname.o)
 .QNX.command.line
                0x0000000000046182      0x9b6 C:/Users/Dell/qnx800/target/qnx/aarch64le/lib\libc.a(_ssp.o)
 .QNX.command.line
                0x0000000000046b38      0x9ea C:/Users/Dell/qnx800/target/qnx/aarch64le/lib\libc.a(__stack_chk_guard.o)
 .QNX.command.line
                0x0000000000047522      0x9be C:/Users/Dell/qnx800/target/qnx/aarch64le/lib\libc.a(getsubopt.o)
 .QNX.command.line
                0x0000000000047ee0      0xa13 C:/Users/Dell/qnx800/target/qnx/aarch64le/lib\libc.a(xtolotab.o)
 .QNX.command.line
                0x00000000000488f3      0x9df C:/Users/Dell/qnx800/target/qnx/aarch64le/lib\libc.a(strncasecmp.o)
 .QNX.command.line
                0x00000000000492d2      0x9cf C:/Users/Dell/qnx800/target/qnx/aarch64le/lib\libc.a(strncmp.o)

.qnx.srctrack   0x0000000000000000   0x1283e6
 .qnx.srctrack  0x0000000000000000     0x2996 C:/Users/Dell/ide-8.0-workspace/hw.raspberrypi-bcm2712-rpi5_2/src/hardware/startup/boards/../../../../install/aarch64le/usr/lib\libstartup.a(_main.o)
 .qnx.srctrack  0x0000000000002996     0x28f3 C:/Users/Dell/ide-8.0-workspace/hw.raspberrypi-bcm2712-rpi5_2/src/hardware/startup/boards/../../../../install/aarch64le/usr/lib\libstartup.a(as_add_containing.o)
 .qnx.srctrack  0x0000000000005289     0x28f4 C:/Users/Dell/ide-8.0-workspace/hw.raspberrypi-bcm2712-rpi5_2/src/hardware/startup/boards/../../../../install/aarch64le/usr/lib\libstartup.a(as_find_containing.o)
 .qnx.srctrack  0x0000000000007b7d     0x28ed C:/Users/Dell/ide-8.0-workspace/hw.raspberrypi-bcm2712-rpi5_2/src/hardware/startup/boards/../../../../install/aarch64le/usr/lib\libstartup.a(as_off2info.o)
 .qnx.srctrack  0x000000000000a46a     0x28ec C:/Users/Dell/ide-8.0-workspace/hw.raspberrypi-bcm2712-rpi5_2/src/hardware/startup/boards/../../../../install/aarch64le/usr/lib\libstartup.a(board_init.o)
 .qnx.srctrack  0x000000000000cd56     0x28f3 C:/Users/Dell/ide-8.0-workspace/hw.raspberrypi-bcm2712-rpi5_2/src/hardware/startup/boards/../../../../install/aarch64le/usr/lib\libstartup.a(bootstrap_cmdline.o)
 .qnx.srctrack  0x000000000000f649     0x28ea C:/Users/Dell/ide-8.0-workspace/hw.raspberrypi-bcm2712-rpi5_2/src/hardware/startup/boards/../../../../install/aarch64le/usr/lib\libstartup.a(callouts.o)
 .qnx.srctrack  0x0000000000011f33     0x28f0 C:/Users/Dell/ide-8.0-workspace/hw.raspberrypi-bcm2712-rpi5_2/src/hardware/startup/boards/../../../../install/aarch64le/usr/lib\libstartup.a(common_options.o)
 .qnx.srctrack  0x0000000000014823     0x28f1 C:/Users/Dell/ide-8.0-workspace/hw.raspberrypi-bcm2712-rpi5_2/src/hardware/startup/boards/../../../../install/aarch64le/usr/lib\libstartup.a(cpu_cluster_add.o)
 .qnx.srctrack  0x0000000000017114     0x28fc C:/Users/Dell/ide-8.0-workspace/hw.raspberrypi-bcm2712-rpi5_2/src/hardware/startup/boards/../../../../install/aarch64le/usr/lib\libstartup.a(cpu_common_options.o)
 .qnx.srctrack  0x0000000000019a10     0x28f5 C:/Users/Dell/ide-8.0-workspace/hw.raspberrypi-bcm2712-rpi5_2/src/hardware/startup/boards/../../../../install/aarch64le/usr/lib\libstartup.a(cpu_startup.o)
 .qnx.srctrack  0x000000000001c305     0x28e7 C:/Users/Dell/ide-8.0-workspace/hw.raspberrypi-bcm2712-rpi5_2/src/hardware/startup/boards/../../../../install/aarch64le/usr/lib\libstartup.a(debug.o)
 .qnx.srctrack  0x000000000001ebec     0x2c56 C:/Users/Dell/ide-8.0-workspace/hw.raspberrypi-bcm2712-rpi5_2/src/hardware/startup/boards/../../../../install/aarch64le/usr/lib\libstartup.a(fdt_init_bootopt.o)
 .qnx.srctrack  0x0000000000021842     0x2c59 C:/Users/Dell/ide-8.0-workspace/hw.raspberrypi-bcm2712-rpi5_2/src/hardware/startup/boards/../../../../install/aarch64le/usr/lib\libstartup.a(fdt_psci_configure.o)
 .qnx.srctrack  0x000000000002449b     0x2c4e C:/Users/Dell/ide-8.0-workspace/hw.raspberrypi-bcm2712-rpi5_2/src/hardware/startup/boards/../../../../install/aarch64le/usr/lib\libstartup.a(fdt_vars.o)
 .qnx.srctrack  0x00000000000270e9     0x28e8 C:/Users/Dell/ide-8.0-workspace/hw.raspberrypi-bcm2712-rpi5_2/src/hardware/startup/boards/../../../../install/aarch64le/usr/lib\libstartup.a(getopt.o)
 .qnx.srctrack  0x00000000000299d1     0x28e9 C:/Users/Dell/ide-8.0-workspace/hw.raspberrypi-bcm2712-rpi5_2/src/hardware/startup/boards/../../../../install/aarch64le/usr/lib\libstartup.a(getsize.o)
 .qnx.srctrack  0x000000000002c2ba     0x28ed C:/Users/Dell/ide-8.0-workspace/hw.raspberrypi-bcm2712-rpi5_2/src/hardware/startup/boards/../../../../install/aarch64le/usr/lib\libstartup.a(gic.o)
 .qnx.srctrack  0x000000000002eba7     0x298e C:/Users/Dell/ide-8.0-workspace/hw.raspberrypi-bcm2712-rpi5_2/src/hardware/startup/boards/../../../../install/aarch64le/usr/lib\libstartup.a(gic_v2.o)
 .qnx.srctrack  0x0000000000031535     0x29ab C:/Users/Dell/ide-8.0-workspace/hw.raspberrypi-bcm2712-rpi5_2/src/hardware/startup/boards/../../../../install/aarch64le/usr/lib\libstartup.a(hw_serpl011.o)
 .qnx.srctrack  0x0000000000033ee0     0x28f2 C:/Users/Dell/ide-8.0-workspace/hw.raspberrypi-bcm2712-rpi5_2/src/hardware/startup/boards/../../../../install/aarch64le/usr/lib\libstartup.a(hwi_add_nanospin.o)
 .qnx.srctrack  0x00000000000367d2     0x28eb C:/Users/Dell/ide-8.0-workspace/hw.raspberrypi-bcm2712-rpi5_2/src/hardware/startup/boards/../../../../install/aarch64le/usr/lib\libstartup.a(hwi_alloc.o)
 .qnx.srctrack  0x00000000000390bd     0x28ed C:/Users/Dell/ide-8.0-workspace/hw.raspberrypi-bcm2712-rpi5_2/src/hardware/startup/boards/../../../../install/aarch64le/usr/lib\libstartup.a(hwi_find_as.o)
 .qnx.srctrack  0x000000000003b9aa     0x28ec C:/Users/Dell/ide-8.0-workspace/hw.raspberrypi-bcm2712-rpi5_2/src/hardware/startup/boards/../../../../install/aarch64le/usr/lib\libstartup.a(hwidev_add.o)
 .qnx.srctrack  0x000000000003e296     0x2ae1 C:/Users/Dell/ide-8.0-workspace/hw.raspberrypi-bcm2712-rpi5_2/src/hardware/startup/boards/../../../../install/aarch64le/usr/lib\libstartup.a(hwidev_add_enet.o)
 .qnx.srctrack  0x0000000000040d77     0x2ae2 C:/Users/Dell/ide-8.0-workspace/hw.raspberrypi-bcm2712-rpi5_2/src/hardware/startup/boards/../../../../install/aarch64le/usr/lib\libstartup.a(hwidev_add_timer.o)
 .qnx.srctrack  0x0000000000043859     0x2a2e C:/Users/Dell/ide-8.0-workspace/hw.raspberrypi-bcm2712-rpi5_2/src/hardware/startup/boards/../../../../install/aarch64le/usr/lib\libstartup.a(hwitag_add_common.o)
 .qnx.srctrack  0x0000000000046287     0x28f5 C:/Users/Dell/ide-8.0-workspace/hw.raspberrypi-bcm2712-rpi5_2/src/hardware/startup/boards/../../../../install/aarch64le/usr/lib\libstartup.a(hwitag_add_inputclk.o)
 .qnx.srctrack  0x0000000000048b7c     0x28f0 C:/Users/Dell/ide-8.0-workspace/hw.raspberrypi-bcm2712-rpi5_2/src/hardware/startup/boards/../../../../install/aarch64le/usr/lib\libstartup.a(hwitag_add_irq.o)
 .qnx.srctrack  0x000000000004b46c     0x28f5 C:/Users/Dell/ide-8.0-workspace/hw.raspberrypi-bcm2712-rpi5_2/src/hardware/startup/boards/../../../../install/aarch64le/usr/lib\libstartup.a(hwitag_add_location.o)
 .qnx.srctrack  0x000000000004dd61     0x28f4 C:/Users/Dell/ide-8.0-workspace/hw.raspberrypi-bcm2712-rpi5_2/src/hardware/startup/boards/../../../../install/aarch64le/usr/lib\libstartup.a(hwitag_add_nicaddr.o)
 .qnx.srctrack  0x0000000000050655     0x28f7 C:/Users/Dell/ide-8.0-workspace/hw.raspberrypi-bcm2712-rpi5_2/src/hardware/startup/boards/../../../../install/aarch64le/usr/lib\libstartup.a(hwitag_add_nicphyaddr.o)
 .qnx.srctrack  0x0000000000052f4c     0x28f4 C:/Users/Dell/ide-8.0-workspace/hw.raspberrypi-bcm2712-rpi5_2/src/hardware/startup/boards/../../../../install/aarch64le/usr/lib\libstartup.a(hwitag_add_regname.o)
 .qnx.srctrack  0x0000000000055840     0x2a44 C:/Users/Dell/ide-8.0-workspace/hw.raspberrypi-bcm2712-rpi5_2/src/hardware/startup/boards/../../../../install/aarch64le/usr/lib\libstartup.a(hwitag_set_inputclk.o)
 .qnx.srctrack  0x0000000000058284     0x2a40 C:/Users/Dell/ide-8.0-workspace/hw.raspberrypi-bcm2712-rpi5_2/src/hardware/startup/boards/../../../../install/aarch64le/usr/lib\libstartup.a(hwitag_set_ivec.o)
 .qnx.srctrack  0x000000000005acc4     0x28f2 C:/Users/Dell/ide-8.0-workspace/hw.raspberrypi-bcm2712-rpi5_2/src/hardware/startup/boards/../../../../install/aarch64le/usr/lib\libstartup.a(hypervisor_setup.o)
 .qnx.srctrack  0x000000000005d5b6     0x28f0 C:/Users/Dell/ide-8.0-workspace/hw.raspberrypi-bcm2712-rpi5_2/src/hardware/startup/boards/../../../../install/aarch64le/usr/lib\libstartup.a(init_cacheattr.o)
 .qnx.srctrack  0x000000000005fea6     0x28f6 C:/Users/Dell/ide-8.0-workspace/hw.raspberrypi-bcm2712-rpi5_2/src/hardware/startup/boards/../../../../install/aarch64le/usr/lib\libstartup.a(init_cpuinfo.o)
 .qnx.srctrack  0x000000000006279c     0x29a7 C:/Users/Dell/ide-8.0-workspace/hw.raspberrypi-bcm2712-rpi5_2/src/hardware/startup/boards/../../../../install/aarch64le/usr/lib\libstartup.a(init_mmu.o)
 .qnx.srctrack  0x0000000000065143     0x28f4 C:/Users/Dell/ide-8.0-workspace/hw.raspberrypi-bcm2712-rpi5_2/src/hardware/startup/boards/../../../../install/aarch64le/usr/lib\libstartup.a(init_qtime.o)
 .qnx.srctrack  0x0000000000067a37     0x28f9 C:/Users/Dell/ide-8.0-workspace/hw.raspberrypi-bcm2712-rpi5_2/src/hardware/startup/boards/../../../../install/aarch64le/usr/lib\libstartup.a(init_qtime_v8gt.o)
 .qnx.srctrack  0x000000000006a330     0x2a33 C:/Users/Dell/ide-8.0-workspace/hw.raspberrypi-bcm2712-rpi5_2/src/hardware/startup/boards/../../../../install/aarch64le/usr/lib\libstartup.a(init_smp.o)
 .qnx.srctrack  0x000000000006cd63     0x28f5 C:/Users/Dell/ide-8.0-workspace/hw.raspberrypi-bcm2712-rpi5_2/src/hardware/startup/boards/../../../../install/aarch64le/usr/lib\libstartup.a(init_system_private.o)
 .qnx.srctrack  0x000000000006f658     0x28f3 C:/Users/Dell/ide-8.0-workspace/hw.raspberrypi-bcm2712-rpi5_2/src/hardware/startup/boards/../../../../install/aarch64le/usr/lib\libstartup.a(invert_timer_freq.o)
 .qnx.srctrack  0x0000000000071f4b     0x28e6 C:/Users/Dell/ide-8.0-workspace/hw.raspberrypi-bcm2712-rpi5_2/src/hardware/startup/boards/../../../../install/aarch64le/usr/lib\libstartup.a(jtag.o)
 .qnx.srctrack  0x0000000000074831     0x28e9 C:/Users/Dell/ide-8.0-workspace/hw.raspberrypi-bcm2712-rpi5_2/src/hardware/startup/boards/../../../../install/aarch64le/usr/lib\libstartup.a(kprintf.o)
 .qnx.srctrack  0x000000000007711a     0x28ea C:/Users/Dell/ide-8.0-workspace/hw.raspberrypi-bcm2712-rpi5_2/src/hardware/startup/boards/../../../../install/aarch64le/usr/lib\libstartup.a(load_ifs.o)
 .qnx.srctrack  0x0000000000079a04     0x28f8 C:/Users/Dell/ide-8.0-workspace/hw.raspberrypi-bcm2712-rpi5_2/src/hardware/startup/boards/../../../../install/aarch64le/usr/lib\libstartup.a(map_callout_io.o)
 .qnx.srctrack  0x000000000007c2fc     0x28f9 C:/Users/Dell/ide-8.0-workspace/hw.raspberrypi-bcm2712-rpi5_2/src/hardware/startup/boards/../../../../install/aarch64le/usr/lib\libstartup.a(map_startup_mem.o)
 .qnx.srctrack  0x000000000007ebf5      0xa63 C:/Users/Dell/ide-8.0-workspace/hw.raspberrypi-bcm2712-rpi5_2/src/hardware/startup/boards/../../../../install/aarch64le/usr/lib\libstartup.a(memcpy.o)
 .qnx.srctrack  0x000000000007f658     0x28ea C:/Users/Dell/ide-8.0-workspace/hw.raspberrypi-bcm2712-rpi5_2/src/hardware/startup/boards/../../../../install/aarch64le/usr/lib\libstartup.a(memfuncs.o)
 .qnx.srctrack  0x0000000000081f42      0x902 C:/Users/Dell/ide-8.0-workspace/hw.raspberrypi-bcm2712-rpi5_2/src/hardware/startup/boards/../../../../install/aarch64le/usr/lib\libstartup.a(memmove.o)
 .qnx.srctrack  0x0000000000082844     0x2a1f C:/Users/Dell/ide-8.0-workspace/hw.raspberrypi-bcm2712-rpi5_2/src/hardware/startup/boards/../../../../install/aarch64le/usr/lib\libstartup.a(print_sysp.o)
 .qnx.srctrack  0x0000000000085263     0x2991 C:/Users/Dell/ide-8.0-workspace/hw.raspberrypi-bcm2712-rpi5_2/src/hardware/startup/boards/../../../../install/aarch64le/usr/lib\libstartup.a(psci_smp.o)
 .qnx.srctrack  0x0000000000087bf4     0x28e5 C:/Users/Dell/ide-8.0-workspace/hw.raspberrypi-bcm2712-rpi5_2/src/hardware/startup/boards/../../../../install/aarch64le/usr/lib\libstartup.a(ram.o)
 .qnx.srctrack  0x000000000008a4d9     0x28ed C:/Users/Dell/ide-8.0-workspace/hw.raspberrypi-bcm2712-rpi5_2/src/hardware/startup/boards/../../../../install/aarch64le/usr/lib\libstartup.a(restore_ifs.o)
 .qnx.srctrack  0x000000000008cdc6     0x28e5 C:/Users/Dell/ide-8.0-workspace/hw.raspberrypi-bcm2712-rpi5_2/src/hardware/startup/boards/../../../../install/aarch64le/usr/lib\libstartup.a(ssp.o)
 .qnx.srctrack  0x000000000008f6ab     0x2982 C:/Users/Dell/ide-8.0-workspace/hw.raspberrypi-bcm2712-rpi5_2/src/hardware/startup/boards/../../../../install/aarch64le/usr/lib\libstartup.a(startnext.o)
 .qnx.srctrack  0x000000000009202d     0x28e9 C:/Users/Dell/ide-8.0-workspace/hw.raspberrypi-bcm2712-rpi5_2/src/hardware/startup/boards/../../../../install/aarch64le/usr/lib\libstartup.a(strings.o)
 .qnx.srctrack  0x0000000000094916     0x28e9 C:/Users/Dell/ide-8.0-workspace/hw.raspberrypi-bcm2712-rpi5_2/src/hardware/startup/boards/../../../../install/aarch64le/usr/lib\libstartup.a(strtoul.o)
 .qnx.srctrack  0x00000000000971ff     0x28f0 C:/Users/Dell/ide-8.0-workspace/hw.raspberrypi-bcm2712-rpi5_2/src/hardware/startup/boards/../../../../install/aarch64le/usr/lib\libstartup.a(syspage_memory.o)
 .qnx.srctrack  0x0000000000099aef     0x28ef C:/Users/Dell/ide-8.0-workspace/hw.raspberrypi-bcm2712-rpi5_2/src/hardware/startup/boards/../../../../install/aarch64le/usr/lib\libstartup.a(tweak_cmdline.o)
 .qnx.srctrack  0x000000000009c3de     0x28ec C:/Users/Dell/ide-8.0-workspace/hw.raspberrypi-bcm2712-rpi5_2/src/hardware/startup/boards/../../../../install/aarch64le/usr/lib\libstartup.a(uncompress.o)
 .qnx.srctrack  0x000000000009ecca     0x2a56 C:/Users/Dell/ide-8.0-workspace/hw.raspberrypi-bcm2712-rpi5_2/src/hardware/startup/boards/../../../../install/aarch64le/usr/lib\libstartup.a(uncompress_ucl.o)
 .qnx.srctrack  0x00000000000a1720     0x28f7 C:/Users/Dell/ide-8.0-workspace/hw.raspberrypi-bcm2712-rpi5_2/src/hardware/startup/boards/../../../../install/aarch64le/usr/lib\libstartup.a(aarch64_cpuid.o)
 .qnx.srctrack  0x00000000000a4017     0x28fa C:/Users/Dell/ide-8.0-workspace/hw.raspberrypi-bcm2712-rpi5_2/src/hardware/startup/boards/../../../../install/aarch64le/usr/lib\libstartup.a(aarch64_cpuspeed.o)
 .qnx.srctrack  0x00000000000a6911     0x29aa C:/Users/Dell/ide-8.0-workspace/hw.raspberrypi-bcm2712-rpi5_2/src/hardware/startup/boards/../../../../install/aarch64le/usr/lib\libstartup.a(aarch64_map.o)
 .qnx.srctrack  0x00000000000a92bb     0x28eb C:/Users/Dell/ide-8.0-workspace/hw.raspberrypi-bcm2712-rpi5_2/src/hardware/startup/boards/../../../../install/aarch64le/usr/lib\libstartup.a(add_cache.o)
 .qnx.srctrack  0x00000000000abba6     0x28ef C:/Users/Dell/ide-8.0-workspace/hw.raspberrypi-bcm2712-rpi5_2/src/hardware/startup/boards/../../../../install/aarch64le/usr/lib\libstartup.a(add_interrupt.o)
 .qnx.srctrack  0x00000000000ae495     0x28ed C:/Users/Dell/ide-8.0-workspace/hw.raspberrypi-bcm2712-rpi5_2/src/hardware/startup/boards/../../../../install/aarch64le/usr/lib\libstartup.a(alloc_qtime.o)
 .qnx.srctrack  0x00000000000b0d82     0x28e9 C:/Users/Dell/ide-8.0-workspace/hw.raspberrypi-bcm2712-rpi5_2/src/hardware/startup/boards/../../../../install/aarch64le/usr/lib\libstartup.a(ap_fail.o)
 .qnx.srctrack  0x00000000000b366b     0x28e8 C:/Users/Dell/ide-8.0-workspace/hw.raspberrypi-bcm2712-rpi5_2/src/hardware/startup/boards/../../../../install/aarch64le/usr/lib\libstartup.a(as_add.o)
 .qnx.srctrack  0x00000000000b5f53     0x28ea C:/Users/Dell/ide-8.0-workspace/hw.raspberrypi-bcm2712-rpi5_2/src/hardware/startup/boards/../../../../install/aarch64le/usr/lib\libstartup.a(as_add64.o)
 .qnx.srctrack  0x00000000000b883d     0x28f4 C:/Users/Dell/ide-8.0-workspace/hw.raspberrypi-bcm2712-rpi5_2/src/hardware/startup/boards/../../../../install/aarch64le/usr/lib\libstartup.a(as_default.o)
 .qnx.srctrack  0x00000000000bb131     0x28e9 C:/Users/Dell/ide-8.0-workspace/hw.raspberrypi-bcm2712-rpi5_2/src/hardware/startup/boards/../../../../install/aarch64le/usr/lib\libstartup.a(as_find.o)
 .qnx.srctrack  0x00000000000bda1a     0x28f6 C:/Users/Dell/ide-8.0-workspace/hw.raspberrypi-bcm2712-rpi5_2/src/hardware/startup/boards/../../../../install/aarch64le/usr/lib\libstartup.a(board_sysctl.o)
 .qnx.srctrack  0x00000000000c0310     0x28f3 C:/Users/Dell/ide-8.0-workspace/hw.raspberrypi-bcm2712-rpi5_2/src/hardware/startup/boards/../../../../install/aarch64le/usr/lib\libstartup.a(boot_regs.o)
 .qnx.srctrack  0x00000000000c2c03     0x28f7 C:/Users/Dell/ide-8.0-workspace/hw.raspberrypi-bcm2712-rpi5_2/src/hardware/startup/boards/../../../../install/aarch64le/usr/lib\libstartup.a(cpu_startnext.o)
 .qnx.srctrack  0x00000000000c54fa     0x29b1 C:/Users/Dell/ide-8.0-workspace/hw.raspberrypi-bcm2712-rpi5_2/src/hardware/startup/boards/../../../../install/aarch64le/usr/lib\libstartup.a(cpu_syspage_memory.o)
 .qnx.srctrack  0x00000000000c7eab     0x28f3 C:/Users/Dell/ide-8.0-workspace/hw.raspberrypi-bcm2712-rpi5_2/src/hardware/startup/boards/../../../../install/aarch64le/usr/lib\libstartup.a(cpuid_a35.o)
 .qnx.srctrack  0x00000000000ca79e     0x28f3 C:/Users/Dell/ide-8.0-workspace/hw.raspberrypi-bcm2712-rpi5_2/src/hardware/startup/boards/../../../../install/aarch64le/usr/lib\libstartup.a(cpuid_a53.o)
 .qnx.srctrack  0x00000000000cd091     0x28f3 C:/Users/Dell/ide-8.0-workspace/hw.raspberrypi-bcm2712-rpi5_2/src/hardware/startup/boards/../../../../install/aarch64le/usr/lib\libstartup.a(cpuid_a55.o)
 .qnx.srctrack  0x00000000000cf984     0x28f3 C:/Users/Dell/ide-8.0-workspace/hw.raspberrypi-bcm2712-rpi5_2/src/hardware/startup/boards/../../../../install/aarch64le/usr/lib\libstartup.a(cpuid_a57.o)
 .qnx.srctrack  0x00000000000d2277     0x28f3 C:/Users/Dell/ide-8.0-workspace/hw.raspberrypi-bcm2712-rpi5_2/src/hardware/startup/boards/../../../../install/aarch64le/usr/lib\libstartup.a(cpuid_a72.o)
 .qnx.srctrack  0x00000000000d4b6a     0x28f4 C:/Users/Dell/ide-8.0-workspace/hw.raspberrypi-bcm2712-rpi5_2/src/hardware/startup/boards/../../../../install/aarch64le/usr/lib\libstartup.a(cpuid_a720.o)
 .qnx.srctrack  0x00000000000d745e     0x28f6 C:/Users/Dell/ide-8.0-workspace/hw.raspberrypi-bcm2712-rpi5_2/src/hardware/startup/boards/../../../../install/aarch64le/usr/lib\libstartup.a(cpuid_a720ae.o)
 .qnx.srctrack  0x00000000000d9d54     0x28f3 C:/Users/Dell/ide-8.0-workspace/hw.raspberrypi-bcm2712-rpi5_2/src/hardware/startup/boards/../../../../install/aarch64le/usr/lib\libstartup.a(cpuid_a75.o)
 .qnx.srctrack  0x00000000000dc647     0x28f3 C:/Users/Dell/ide-8.0-workspace/hw.raspberrypi-bcm2712-rpi5_2/src/hardware/startup/boards/../../../../install/aarch64le/usr/lib\libstartup.a(cpuid_a76.o)
 .qnx.srctrack  0x00000000000def3a     0x28f5 C:/Users/Dell/ide-8.0-workspace/hw.raspberrypi-bcm2712-rpi5_2/src/hardware/startup/boards/../../../../install/aarch64le/usr/lib\libstartup.a(cpuid_a78ae.o)
 .qnx.srctrack  0x00000000000e182f     0x28f3 C:/Users/Dell/ide-8.0-workspace/hw.raspberrypi-bcm2712-rpi5_2/src/hardware/startup/boards/../../../../install/aarch64le/usr/lib\libstartup.a(cpuid_d15.o)
 .qnx.srctrack  0x00000000000e4122     0x28f3 C:/Users/Dell/ide-8.0-workspace/hw.raspberrypi-bcm2712-rpi5_2/src/hardware/startup/boards/../../../../install/aarch64le/usr/lib\libstartup.a(cpuid_d20.o)
 .qnx.srctrack  0x00000000000e6a15     0x28f2 C:/Users/Dell/ide-8.0-workspace/hw.raspberrypi-bcm2712-rpi5_2/src/hardware/startup/boards/../../../../install/aarch64le/usr/lib\libstartup.a(cpuid_n1.o)
 .qnx.srctrack  0x00000000000e9307     0x28f6 C:/Users/Dell/ide-8.0-workspace/hw.raspberrypi-bcm2712-rpi5_2/src/hardware/startup/boards/../../../../install/aarch64le/usr/lib\libstartup.a(cpuid_neo_v1.o)
 .qnx.srctrack  0x00000000000ebbfd     0x28f6 C:/Users/Dell/ide-8.0-workspace/hw.raspberrypi-bcm2712-rpi5_2/src/hardware/startup/boards/../../../../install/aarch64le/usr/lib\libstartup.a(cpuid_neo_v2.o)
 .qnx.srctrack  0x00000000000ee4f3     0x28f6 C:/Users/Dell/ide-8.0-workspace/hw.raspberrypi-bcm2712-rpi5_2/src/hardware/startup/boards/../../../../install/aarch64le/usr/lib\libstartup.a(cpuid_v8_aem.o)
 .qnx.srctrack  0x00000000000f0de9     0x28f5 C:/Users/Dell/ide-8.0-workspace/hw.raspberrypi-bcm2712-rpi5_2/src/hardware/startup/boards/../../../../install/aarch64le/usr/lib\libstartup.a(cpuid_v8_fm.o)
 .qnx.srctrack  0x00000000000f36de     0x28f2 C:/Users/Dell/ide-8.0-workspace/hw.raspberrypi-bcm2712-rpi5_2/src/hardware/startup/boards/../../../../install/aarch64le/usr/lib\libstartup.a(cpuid_x2.o)
 .qnx.srctrack  0x00000000000f5fd0     0x28f2 C:/Users/Dell/ide-8.0-workspace/hw.raspberrypi-bcm2712-rpi5_2/src/hardware/startup/boards/../../../../install/aarch64le/usr/lib\libstartup.a(cpuid_x4.o)
 .qnx.srctrack  0x00000000000f88c2     0x28f4 C:/Users/Dell/ide-8.0-workspace/hw.raspberrypi-bcm2712-rpi5_2/src/hardware/startup/boards/../../../../install/aarch64le/usr/lib\libstartup.a(cpuid_x925.o)
 .qnx.srctrack  0x00000000000fb1b6     0x28f4 C:/Users/Dell/ide-8.0-workspace/hw.raspberrypi-bcm2712-rpi5_2/src/hardware/startup/boards/../../../../install/aarch64le/usr/lib\libstartup.a(crash_done.o)
 .qnx.srctrack  0x00000000000fdaaa     0x28f2 C:/Users/Dell/ide-8.0-workspace/hw.raspberrypi-bcm2712-rpi5_2/src/hardware/startup/boards/../../../../install/aarch64le/usr/lib\libstartup.a(dummy_print_char.o)
 .qnx.srctrack  0x000000000010039c     0x28e5 C:/Users/Dell/ide-8.0-workspace/hw.raspberrypi-bcm2712-rpi5_2/src/hardware/startup/boards/../../../../install/aarch64le/usr/lib\libstartup.a(elf.o)
 .qnx.srctrack  0x0000000000102c81     0x28e7 C:/Users/Dell/ide-8.0-workspace/hw.raspberrypi-bcm2712-rpi5_2/src/hardware/startup/boards/../../../../install/aarch64le/usr/lib\libstartup.a(elf32.o)
 .qnx.srctrack  0x0000000000105568     0x28e7 C:/Users/Dell/ide-8.0-workspace/hw.raspberrypi-bcm2712-rpi5_2/src/hardware/startup/boards/../../../../install/aarch64le/usr/lib\libstartup.a(elf64.o)
 .qnx.srctrack  0x0000000000107e4f     0x28f1 C:/Users/Dell/ide-8.0-workspace/hw.raspberrypi-bcm2712-rpi5_2/src/hardware/startup/boards/../../../../install/aarch64le/usr/lib\libstartup.a(elf_map.o)
 .qnx.srctrack  0x000000000010a740     0x28f0 C:/Users/Dell/ide-8.0-workspace/hw.raspberrypi-bcm2712-rpi5_2/src/hardware/startup/boards/../../../../install/aarch64le/usr/lib\libstartup.a(hwi_add_device.o)
 .qnx.srctrack  0x000000000010d030     0x28ed C:/Users/Dell/ide-8.0-workspace/hw.raspberrypi-bcm2712-rpi5_2/src/hardware/startup/boards/../../../../install/aarch64le/usr/lib\libstartup.a(hwi_default.o)
 .qnx.srctrack  0x000000000010f91d     0x28f4 C:/Users/Dell/ide-8.0-workspace/hw.raspberrypi-bcm2712-rpi5_2/src/hardware/startup/boards/../../../../install/aarch64le/usr/lib\libstartup.a(hypervisor.o)
 .qnx.srctrack  0x0000000000112211     0x28fd C:/Users/Dell/ide-8.0-workspace/hw.raspberrypi-bcm2712-rpi5_2/src/hardware/startup/boards/../../../../install/aarch64le/usr/lib\libstartup.a(init_mitigation_mem.o)
 .qnx.srctrack  0x0000000000114b0e     0x28f2 C:/Users/Dell/ide-8.0-workspace/hw.raspberrypi-bcm2712-rpi5_2/src/hardware/startup/boards/../../../../install/aarch64le/usr/lib\libstartup.a(rtc_time.o)
 .qnx.srctrack  0x0000000000117400     0x28ee C:/Users/Dell/ide-8.0-workspace/hw.raspberrypi-bcm2712-rpi5_2/src/hardware/startup/boards/../../../../install/aarch64le/usr/lib\libstartup.a(startup_info.o)
 .qnx.srctrack  0x0000000000119cee      0xd50 C:/Users/Dell/qnx800/target/qnx/aarch64le/usr/lib\libucl.a(n2b_d.o)
 .qnx.srctrack  0x000000000011aa3e      0x9bd C:/Users/Dell/qnx800/target/qnx/aarch64le/usr/lib\libdrvr.a(hwi_find_unit.o)
 .qnx.srctrack  0x000000000011b3fb      0x9bc C:/Users/Dell/qnx800/target/qnx/aarch64le/usr/lib\libdrvr.a(hwi_tag_find.o)
 .qnx.srctrack  0x000000000011bdb7      0x9bc C:/Users/Dell/qnx800/target/qnx/aarch64le/usr/lib\libdrvr.a(hwi_find_bus.o)
 .qnx.srctrack  0x000000000011c773      0x9bf C:/Users/Dell/qnx800/target/qnx/aarch64le/usr/lib\libdrvr.a(hwi_find_device.o)
 .qnx.srctrack  0x000000000011d132      0x9b8 C:/Users/Dell/qnx800/target/qnx/aarch64le/usr/lib\libdrvr.a(hwi_find.o)
 .qnx.srctrack  0x000000000011daea      0xc7b C:/Users/Dell/qnx800/target/qnx/aarch64le/usr/lib\libfdt.a(fdt.o)
 .qnx.srctrack  0x000000000011e765      0xc7e C:/Users/Dell/qnx800/target/qnx/aarch64le/usr/lib\libfdt.a(fdt_ro.o)
 .qnx.srctrack  0x000000000011f3e3      0x8cc C:/Users/Dell/qnx800/target/qnx/aarch64le/lib\libc.a(hwi_find_item.o)
 .qnx.srctrack  0x000000000011fcaf      0x637 C:/Users/Dell/qnx800/target/qnx/aarch64le/lib\libc.a(hwi_next_tag.o)
 .qnx.srctrack  0x00000000001202e6      0x636 C:/Users/Dell/qnx800/target/qnx/aarch64le/lib\libc.a(hwi_off2tag.o)
 .qnx.srctrack  0x000000000012091c      0x636 C:/Users/Dell/qnx800/target/qnx/aarch64le/lib\libc.a(hwi_tag2off.o)
 .qnx.srctrack  0x0000000000120f52      0x70c C:/Users/Dell/qnx800/target/qnx/aarch64le/lib\libc.a(memchr.o)
 .qnx.srctrack  0x000000000012165e      0x859 C:/Users/Dell/qnx800/target/qnx/aarch64le/lib\libc.a(memset.o)
 .qnx.srctrack  0x0000000000121eb7      0x70c C:/Users/Dell/qnx800/target/qnx/aarch64le/lib\libc.a(strchr.o)
 .qnx.srctrack  0x00000000001225c3      0x708 C:/Users/Dell/qnx800/target/qnx/aarch64le/lib\libc.a(strlcpy.o)
 .qnx.srctrack  0x0000000000122ccb      0x698 C:/Users/Dell/qnx800/target/qnx/aarch64le/lib\libc.a(strnlen.o)
 .qnx.srctrack  0x0000000000123363      0x698 C:/Users/Dell/qnx800/target/qnx/aarch64le/lib\libc.a(strrchr.o)
 .qnx.srctrack  0x00000000001239fb      0x76f C:/Users/Dell/qnx800/target/qnx/aarch64le/lib\libc.a(strstr.o)
 .qnx.srctrack  0x000000000012416a      0x70e C:/Users/Dell/qnx800/target/qnx/aarch64le/lib\libc.a(__progname.o)
 .qnx.srctrack  0x0000000000124878      0x298 C:/Users/Dell/qnx800/target/qnx/aarch64le/lib\libc.a(_ssp.o)
 .qnx.srctrack  0x0000000000124b10      0xcab C:/Users/Dell/qnx800/target/qnx/aarch64le/lib\libc.a(__stack_chk_guard.o)
 .qnx.srctrack  0x00000000001257bb      0xa0b C:/Users/Dell/qnx800/target/qnx/aarch64le/lib\libc.a(getsubopt.o)
 .qnx.srctrack  0x00000000001261c6     0x14ec C:/Users/Dell/qnx800/target/qnx/aarch64le/lib\libc.a(xtolotab.o)
 .qnx.srctrack  0x00000000001276b2      0x69c C:/Users/Dell/qnx800/target/qnx/aarch64le/lib\libc.a(strncasecmp.o)
 .qnx.srctrack  0x0000000000127d4e      0x698 C:/Users/Dell/qnx800/target/qnx/aarch64le/lib\libc.a(strncmp.o)

.gnu.build.attributes
 *(.gnu.build.attributes)

.debug
 *(.debug)

.line
 *(.line)

.debug_srcinfo
 *(.debug_srcinfo)

.debug_sfnames
 *(.debug_sfnames)

.debug_aranges  0x0000000000000000      0x800
 *(.debug_aranges)
 .debug_aranges
                0x0000000000000000       0x30 C:/Users/Dell/ide-8.0-workspace/hw.raspberrypi-bcm2712-rpi5_2/src/hardware/startup/boards/../../../../install/aarch64le/usr/lib\libstartup.a(_start.o)
 .debug_aranges
                0x0000000000000030       0x30 C:/Users/Dell/ide-8.0-workspace/hw.raspberrypi-bcm2712-rpi5_2/src/hardware/startup/boards/../../../../install/aarch64le/usr/lib\libstartup.a(callout_debug_pl011.o)
 .debug_aranges
                0x0000000000000060       0x30 C:/Users/Dell/ide-8.0-workspace/hw.raspberrypi-bcm2712-rpi5_2/src/hardware/startup/boards/../../../../install/aarch64le/usr/lib\libstartup.a(callout_sendipi_gic_v2.o)
 .debug_aranges
                0x0000000000000090       0x30 C:/Users/Dell/ide-8.0-workspace/hw.raspberrypi-bcm2712-rpi5_2/src/hardware/startup/boards/../../../../install/aarch64le/usr/lib\libstartup.a(cstart.o)
 .debug_aranges
                0x00000000000000c0       0x30 C:/Users/Dell/ide-8.0-workspace/hw.raspberrypi-bcm2712-rpi5_2/src/hardware/startup/boards/../../../../install/aarch64le/usr/lib\libstartup.a(psci_call.o)
 .debug_aranges
                0x00000000000000f0       0x30 C:/Users/Dell/ide-8.0-workspace/hw.raspberrypi-bcm2712-rpi5_2/src/hardware/startup/boards/../../../../install/aarch64le/usr/lib\libstartup.a(smp_start.o)
 .debug_aranges
                0x0000000000000120       0x30 C:/Users/Dell/ide-8.0-workspace/hw.raspberrypi-bcm2712-rpi5_2/src/hardware/startup/boards/../../../../install/aarch64le/usr/lib\libstartup.a(vbar_default.o)
 .debug_aranges
                0x0000000000000150       0x30 C:/Users/Dell/ide-8.0-workspace/hw.raspberrypi-bcm2712-rpi5_2/src/hardware/startup/boards/../../../../install/aarch64le/usr/lib\libstartup.a(_start_el1.o)
 .debug_aranges
                0x0000000000000180       0x30 C:/Users/Dell/ide-8.0-workspace/hw.raspberrypi-bcm2712-rpi5_2/src/hardware/startup/boards/../../../../install/aarch64le/usr/lib\libstartup.a(aarch64_cache_flush.o)
 .debug_aranges
                0x00000000000001b0       0x30 C:/Users/Dell/ide-8.0-workspace/hw.raspberrypi-bcm2712-rpi5_2/src/hardware/startup/boards/../../../../install/aarch64le/usr/lib\libstartup.a(callout_cache_armv8.o)
 .debug_aranges
                0x00000000000001e0       0x30 C:/Users/Dell/ide-8.0-workspace/hw.raspberrypi-bcm2712-rpi5_2/src/hardware/startup/boards/../../../../install/aarch64le/usr/lib\libstartup.a(callout_interrupt_gic_v2.o)
 .debug_aranges
                0x0000000000000210       0x30 C:/Users/Dell/ide-8.0-workspace/hw.raspberrypi-bcm2712-rpi5_2/src/hardware/startup/boards/../../../../install/aarch64le/usr/lib\libstartup.a(callout_smp_spin.o)
 .debug_aranges
                0x0000000000000240       0x30 C:/Users/Dell/ide-8.0-workspace/hw.raspberrypi-bcm2712-rpi5_2/src/hardware/startup/boards/../../../../install/aarch64le/usr/lib\libstartup.a(hypervisor_enable.o)
 .debug_aranges
                0x0000000000000270       0x30 C:/Users/Dell/ide-8.0-workspace/hw.raspberrypi-bcm2712-rpi5_2/src/hardware/startup/boards/../../../../install/aarch64le/usr/lib\libstartup.a(vstart.o)
 .debug_aranges
                0x00000000000002a0       0x30 C:/Users/Dell/qnx800/target/qnx/aarch64le/usr/lib\libucl.a(n2b_d.o)
 .debug_aranges
                0x00000000000002d0       0x30 C:/Users/Dell/qnx800/target/qnx/aarch64le/usr/lib\libdrvr.a(hwi_find_unit.o)
 .debug_aranges
                0x0000000000000300       0x30 C:/Users/Dell/qnx800/target/qnx/aarch64le/usr/lib\libdrvr.a(hwi_tag_find.o)
 .debug_aranges
                0x0000000000000330       0x30 C:/Users/Dell/qnx800/target/qnx/aarch64le/usr/lib\libdrvr.a(hwi_find_bus.o)
 .debug_aranges
                0x0000000000000360       0x30 C:/Users/Dell/qnx800/target/qnx/aarch64le/usr/lib\libdrvr.a(hwi_find_device.o)
 .debug_aranges
                0x0000000000000390       0x30 C:/Users/Dell/qnx800/target/qnx/aarch64le/usr/lib\libdrvr.a(hwi_find.o)
 .debug_aranges
                0x00000000000003c0       0x30 C:/Users/Dell/qnx800/target/qnx/aarch64le/usr/lib\libfdt.a(fdt.o)
 .debug_aranges
                0x00000000000003f0       0x30 C:/Users/Dell/qnx800/target/qnx/aarch64le/usr/lib\libfdt.a(fdt_ro.o)
 .debug_aranges
                0x0000000000000420       0x30 C:/Users/Dell/qnx800/target/qnx/aarch64le/lib\libc.a(hwi_find_item.o)
 .debug_aranges
                0x0000000000000450       0x30 C:/Users/Dell/qnx800/target/qnx/aarch64le/lib\libc.a(hwi_next_tag.o)
 .debug_aranges
                0x0000000000000480       0x30 C:/Users/Dell/qnx800/target/qnx/aarch64le/lib\libc.a(hwi_off2tag.o)
 .debug_aranges
                0x00000000000004b0       0x30 C:/Users/Dell/qnx800/target/qnx/aarch64le/lib\libc.a(hwi_tag2off.o)
 .debug_aranges
                0x00000000000004e0       0x30 C:/Users/Dell/qnx800/target/qnx/aarch64le/lib\libc.a(memchr.o)
 .debug_aranges
                0x0000000000000510       0x30 C:/Users/Dell/qnx800/target/qnx/aarch64le/lib\libc.a(memcmp.o)
 .debug_aranges
                0x0000000000000540       0x30 C:/Users/Dell/qnx800/target/qnx/aarch64le/lib\libc.a(memset.o)
 .debug_aranges
                0x0000000000000570       0x30 C:/Users/Dell/qnx800/target/qnx/aarch64le/lib\libc.a(strchr.o)
 .debug_aranges
                0x00000000000005a0       0x30 C:/Users/Dell/qnx800/target/qnx/aarch64le/lib\libc.a(strcmp.o)
 .debug_aranges
                0x00000000000005d0       0x30 C:/Users/Dell/qnx800/target/qnx/aarch64le/lib\libc.a(strlcpy.o)
 .debug_aranges
                0x0000000000000600       0x30 C:/Users/Dell/qnx800/target/qnx/aarch64le/lib\libc.a(strlen.o)
 .debug_aranges
                0x0000000000000630       0x30 C:/Users/Dell/qnx800/target/qnx/aarch64le/lib\libc.a(strnlen.o)
 .debug_aranges
                0x0000000000000660       0x30 C:/Users/Dell/qnx800/target/qnx/aarch64le/lib\libc.a(strrchr.o)
 .debug_aranges
                0x0000000000000690       0x30 C:/Users/Dell/qnx800/target/qnx/aarch64le/lib\libc.a(strstr.o)
 .debug_aranges
                0x00000000000006c0       0x30 C:/Users/Dell/qnx800/target/qnx/aarch64le/lib\libc.a(__progname.o)
 .debug_aranges
                0x00000000000006f0       0x30 C:/Users/Dell/qnx800/target/qnx/aarch64le/lib\libc.a(_ssp.o)
 .debug_aranges
                0x0000000000000720       0x20 C:/Users/Dell/qnx800/target/qnx/aarch64le/lib\libc.a(__stack_chk_guard.o)
 .debug_aranges
                0x0000000000000740       0x30 C:/Users/Dell/qnx800/target/qnx/aarch64le/lib\libc.a(getsubopt.o)
 .debug_aranges
                0x0000000000000770       0x30 C:/Users/Dell/qnx800/target/qnx/aarch64le/lib\libc.a(xtolotab.o)
 .debug_aranges
                0x00000000000007a0       0x30 C:/Users/Dell/qnx800/target/qnx/aarch64le/lib\libc.a(strncasecmp.o)
 .debug_aranges
                0x00000000000007d0       0x30 C:/Users/Dell/qnx800/target/qnx/aarch64le/lib\libc.a(strncmp.o)

.debug_pubnames
 *(.debug_pubnames)

.debug_info     0x0000000000000000     0xa15c
 *(.debug_info)
 .debug_info    0x0000000000000000       0x2e C:/Users/Dell/ide-8.0-workspace/hw.raspberrypi-bcm2712-rpi5_2/src/hardware/startup/boards/../../../../install/aarch64le/usr/lib\libstartup.a(_start.o)
 .debug_info    0x000000000000002e       0x2e C:/Users/Dell/ide-8.0-workspace/hw.raspberrypi-bcm2712-rpi5_2/src/hardware/startup/boards/../../../../install/aarch64le/usr/lib\libstartup.a(callout_debug_pl011.o)
 .debug_info    0x000000000000005c       0x2e C:/Users/Dell/ide-8.0-workspace/hw.raspberrypi-bcm2712-rpi5_2/src/hardware/startup/boards/../../../../install/aarch64le/usr/lib\libstartup.a(callout_sendipi_gic_v2.o)
 .debug_info    0x000000000000008a       0x2e C:/Users/Dell/ide-8.0-workspace/hw.raspberrypi-bcm2712-rpi5_2/src/hardware/startup/boards/../../../../install/aarch64le/usr/lib\libstartup.a(cstart.o)
 .debug_info    0x00000000000000b8       0x5b C:/Users/Dell/ide-8.0-workspace/hw.raspberrypi-bcm2712-rpi5_2/src/hardware/startup/boards/../../../../install/aarch64le/usr/lib\libstartup.a(psci_call.o)
 .debug_info    0x0000000000000113       0x2e C:/Users/Dell/ide-8.0-workspace/hw.raspberrypi-bcm2712-rpi5_2/src/hardware/startup/boards/../../../../install/aarch64le/usr/lib\libstartup.a(smp_start.o)
 .debug_info    0x0000000000000141       0x2e C:/Users/Dell/ide-8.0-workspace/hw.raspberrypi-bcm2712-rpi5_2/src/hardware/startup/boards/../../../../install/aarch64le/usr/lib\libstartup.a(vbar_default.o)
 .debug_info    0x000000000000016f       0x2e C:/Users/Dell/ide-8.0-workspace/hw.raspberrypi-bcm2712-rpi5_2/src/hardware/startup/boards/../../../../install/aarch64le/usr/lib\libstartup.a(_start_el1.o)
 .debug_info    0x000000000000019d       0x2e C:/Users/Dell/ide-8.0-workspace/hw.raspberrypi-bcm2712-rpi5_2/src/hardware/startup/boards/../../../../install/aarch64le/usr/lib\libstartup.a(aarch64_cache_flush.o)
 .debug_info    0x00000000000001cb       0x2e C:/Users/Dell/ide-8.0-workspace/hw.raspberrypi-bcm2712-rpi5_2/src/hardware/startup/boards/../../../../install/aarch64le/usr/lib\libstartup.a(callout_cache_armv8.o)
 .debug_info    0x00000000000001f9       0x2e C:/Users/Dell/ide-8.0-workspace/hw.raspberrypi-bcm2712-rpi5_2/src/hardware/startup/boards/../../../../install/aarch64le/usr/lib\libstartup.a(callout_interrupt_gic_v2.o)
 .debug_info    0x0000000000000227       0x2e C:/Users/Dell/ide-8.0-workspace/hw.raspberrypi-bcm2712-rpi5_2/src/hardware/startup/boards/../../../../install/aarch64le/usr/lib\libstartup.a(callout_smp_spin.o)
 .debug_info    0x0000000000000255       0x2e C:/Users/Dell/ide-8.0-workspace/hw.raspberrypi-bcm2712-rpi5_2/src/hardware/startup/boards/../../../../install/aarch64le/usr/lib\libstartup.a(hypervisor_enable.o)
 .debug_info    0x0000000000000283       0x2e C:/Users/Dell/ide-8.0-workspace/hw.raspberrypi-bcm2712-rpi5_2/src/hardware/startup/boards/../../../../install/aarch64le/usr/lib\libstartup.a(vstart.o)
 .debug_info    0x00000000000002b1      0x402 C:/Users/Dell/qnx800/target/qnx/aarch64le/usr/lib\libucl.a(n2b_d.o)
 .debug_info    0x00000000000006b3      0x929 C:/Users/Dell/qnx800/target/qnx/aarch64le/usr/lib\libdrvr.a(hwi_find_unit.o)
 .debug_info    0x0000000000000fdc      0x8ea C:/Users/Dell/qnx800/target/qnx/aarch64le/usr/lib\libdrvr.a(hwi_tag_find.o)
 .debug_info    0x00000000000018c6      0x8a2 C:/Users/Dell/qnx800/target/qnx/aarch64le/usr/lib\libdrvr.a(hwi_find_bus.o)
 .debug_info    0x0000000000002168      0x8a2 C:/Users/Dell/qnx800/target/qnx/aarch64le/usr/lib\libdrvr.a(hwi_find_device.o)
 .debug_info    0x0000000000002a0a      0x92c C:/Users/Dell/qnx800/target/qnx/aarch64le/usr/lib\libdrvr.a(hwi_find.o)
 .debug_info    0x0000000000003336      0xf44 C:/Users/Dell/qnx800/target/qnx/aarch64le/usr/lib\libfdt.a(fdt.o)
 .debug_info    0x000000000000427a     0x339e C:/Users/Dell/qnx800/target/qnx/aarch64le/usr/lib\libfdt.a(fdt_ro.o)
 .debug_info    0x0000000000007618      0xaf8 C:/Users/Dell/qnx800/target/qnx/aarch64le/lib\libc.a(hwi_find_item.o)
 .debug_info    0x0000000000008110      0x872 C:/Users/Dell/qnx800/target/qnx/aarch64le/lib\libc.a(hwi_next_tag.o)
 .debug_info    0x0000000000008982       0xef C:/Users/Dell/qnx800/target/qnx/aarch64le/lib\libc.a(hwi_off2tag.o)
 .debug_info    0x0000000000008a71       0xfb C:/Users/Dell/qnx800/target/qnx/aarch64le/lib\libc.a(hwi_tag2off.o)
 .debug_info    0x0000000000008b6c      0x135 C:/Users/Dell/qnx800/target/qnx/aarch64le/lib\libc.a(memchr.o)
 .debug_info    0x0000000000008ca1       0x5b C:/Users/Dell/qnx800/target/qnx/aarch64le/lib\libc.a(memcmp.o)
 .debug_info    0x0000000000008cfc      0x1e9 C:/Users/Dell/qnx800/target/qnx/aarch64le/lib\libc.a(memset.o)
 .debug_info    0x0000000000008ee5       0xe6 C:/Users/Dell/qnx800/target/qnx/aarch64le/lib\libc.a(strchr.o)
 .debug_info    0x0000000000008fcb       0x5b C:/Users/Dell/qnx800/target/qnx/aarch64le/lib\libc.a(strcmp.o)
 .debug_info    0x0000000000009026      0x14a C:/Users/Dell/qnx800/target/qnx/aarch64le/lib\libc.a(strlcpy.o)
 .debug_info    0x0000000000009170       0x5b C:/Users/Dell/qnx800/target/qnx/aarch64le/lib\libc.a(strlen.o)
 .debug_info    0x00000000000091cb      0x125 C:/Users/Dell/qnx800/target/qnx/aarch64le/lib\libc.a(strnlen.o)
 .debug_info    0x00000000000092f0       0xf9 C:/Users/Dell/qnx800/target/qnx/aarch64le/lib\libc.a(strrchr.o)
 .debug_info    0x00000000000093e9      0x491 C:/Users/Dell/qnx800/target/qnx/aarch64le/lib\libc.a(strstr.o)
 .debug_info    0x000000000000987a      0x147 C:/Users/Dell/qnx800/target/qnx/aarch64le/lib\libc.a(__progname.o)
 .debug_info    0x00000000000099c1      0x1e0 C:/Users/Dell/qnx800/target/qnx/aarch64le/lib\libc.a(_ssp.o)
 .debug_info    0x0000000000009ba1       0x8b C:/Users/Dell/qnx800/target/qnx/aarch64le/lib\libc.a(__stack_chk_guard.o)
 .debug_info    0x0000000000009c2c      0x1c7 C:/Users/Dell/qnx800/target/qnx/aarch64le/lib\libc.a(getsubopt.o)
 .debug_info    0x0000000000009df3      0x121 C:/Users/Dell/qnx800/target/qnx/aarch64le/lib\libc.a(xtolotab.o)
 .debug_info    0x0000000000009f14      0x135 C:/Users/Dell/qnx800/target/qnx/aarch64le/lib\libc.a(strncasecmp.o)
 .debug_info    0x000000000000a049      0x113 C:/Users/Dell/qnx800/target/qnx/aarch64le/lib\libc.a(strncmp.o)

.debug_abbrev   0x0000000000000000     0x23e2
 *(.debug_abbrev)
 .debug_abbrev  0x0000000000000000       0x14 C:/Users/Dell/ide-8.0-workspace/hw.raspberrypi-bcm2712-rpi5_2/src/hardware/startup/boards/../../../../install/aarch64le/usr/lib\libstartup.a(_start.o)
 .debug_abbrev  0x0000000000000014       0x14 C:/Users/Dell/ide-8.0-workspace/hw.raspberrypi-bcm2712-rpi5_2/src/hardware/startup/boards/../../../../install/aarch64le/usr/lib\libstartup.a(callout_debug_pl011.o)
 .debug_abbrev  0x0000000000000028       0x14 C:/Users/Dell/ide-8.0-workspace/hw.raspberrypi-bcm2712-rpi5_2/src/hardware/startup/boards/../../../../install/aarch64le/usr/lib\libstartup.a(callout_sendipi_gic_v2.o)
 .debug_abbrev  0x000000000000003c       0x14 C:/Users/Dell/ide-8.0-workspace/hw.raspberrypi-bcm2712-rpi5_2/src/hardware/startup/boards/../../../../install/aarch64le/usr/lib\libstartup.a(cstart.o)
 .debug_abbrev  0x0000000000000050       0x21 C:/Users/Dell/ide-8.0-workspace/hw.raspberrypi-bcm2712-rpi5_2/src/hardware/startup/boards/../../../../install/aarch64le/usr/lib\libstartup.a(psci_call.o)
 .debug_abbrev  0x0000000000000071       0x14 C:/Users/Dell/ide-8.0-workspace/hw.raspberrypi-bcm2712-rpi5_2/src/hardware/startup/boards/../../../../install/aarch64le/usr/lib\libstartup.a(smp_start.o)
 .debug_abbrev  0x0000000000000085       0x14 C:/Users/Dell/ide-8.0-workspace/hw.raspberrypi-bcm2712-rpi5_2/src/hardware/startup/boards/../../../../install/aarch64le/usr/lib\libstartup.a(vbar_default.o)
 .debug_abbrev  0x0000000000000099       0x14 C:/Users/Dell/ide-8.0-workspace/hw.raspberrypi-bcm2712-rpi5_2/src/hardware/startup/boards/../../../../install/aarch64le/usr/lib\libstartup.a(_start_el1.o)
 .debug_abbrev  0x00000000000000ad       0x14 C:/Users/Dell/ide-8.0-workspace/hw.raspberrypi-bcm2712-rpi5_2/src/hardware/startup/boards/../../../../install/aarch64le/usr/lib\libstartup.a(aarch64_cache_flush.o)
 .debug_abbrev  0x00000000000000c1       0x14 C:/Users/Dell/ide-8.0-workspace/hw.raspberrypi-bcm2712-rpi5_2/src/hardware/startup/boards/../../../../install/aarch64le/usr/lib\libstartup.a(callout_cache_armv8.o)
 .debug_abbrev  0x00000000000000d5       0x14 C:/Users/Dell/ide-8.0-workspace/hw.raspberrypi-bcm2712-rpi5_2/src/hardware/startup/boards/../../../../install/aarch64le/usr/lib\libstartup.a(callout_interrupt_gic_v2.o)
 .debug_abbrev  0x00000000000000e9       0x14 C:/Users/Dell/ide-8.0-workspace/hw.raspberrypi-bcm2712-rpi5_2/src/hardware/startup/boards/../../../../install/aarch64le/usr/lib\libstartup.a(callout_smp_spin.o)
 .debug_abbrev  0x00000000000000fd       0x14 C:/Users/Dell/ide-8.0-workspace/hw.raspberrypi-bcm2712-rpi5_2/src/hardware/startup/boards/../../../../install/aarch64le/usr/lib\libstartup.a(hypervisor_enable.o)
 .debug_abbrev  0x0000000000000111       0x14 C:/Users/Dell/ide-8.0-workspace/hw.raspberrypi-bcm2712-rpi5_2/src/hardware/startup/boards/../../../../install/aarch64le/usr/lib\libstartup.a(vstart.o)
 .debug_abbrev  0x0000000000000125      0x119 C:/Users/Dell/qnx800/target/qnx/aarch64le/usr/lib\libucl.a(n2b_d.o)
 .debug_abbrev  0x000000000000023e      0x1ce C:/Users/Dell/qnx800/target/qnx/aarch64le/usr/lib\libdrvr.a(hwi_find_unit.o)
 .debug_abbrev  0x000000000000040c      0x1f0 C:/Users/Dell/qnx800/target/qnx/aarch64le/usr/lib\libdrvr.a(hwi_tag_find.o)
 .debug_abbrev  0x00000000000005fc      0x1d3 C:/Users/Dell/qnx800/target/qnx/aarch64le/usr/lib\libdrvr.a(hwi_find_bus.o)
 .debug_abbrev  0x00000000000007cf      0x1d3 C:/Users/Dell/qnx800/target/qnx/aarch64le/usr/lib\libdrvr.a(hwi_find_device.o)
 .debug_abbrev  0x00000000000009a2      0x25d C:/Users/Dell/qnx800/target/qnx/aarch64le/usr/lib\libdrvr.a(hwi_find.o)
 .debug_abbrev  0x0000000000000bff      0x33c C:/Users/Dell/qnx800/target/qnx/aarch64le/usr/lib\libfdt.a(fdt.o)
 .debug_abbrev  0x0000000000000f3b      0x4b0 C:/Users/Dell/qnx800/target/qnx/aarch64le/usr/lib\libfdt.a(fdt_ro.o)
 .debug_abbrev  0x00000000000013eb      0x2c4 C:/Users/Dell/qnx800/target/qnx/aarch64le/lib\libc.a(hwi_find_item.o)
 .debug_abbrev  0x00000000000016af      0x1b3 C:/Users/Dell/qnx800/target/qnx/aarch64le/lib\libc.a(hwi_next_tag.o)
 .debug_abbrev  0x0000000000001862       0x8d C:/Users/Dell/qnx800/target/qnx/aarch64le/lib\libc.a(hwi_off2tag.o)
 .debug_abbrev  0x00000000000018ef       0x8d C:/Users/Dell/qnx800/target/qnx/aarch64le/lib\libc.a(hwi_tag2off.o)
 .debug_abbrev  0x000000000000197c       0x9e C:/Users/Dell/qnx800/target/qnx/aarch64le/lib\libc.a(memchr.o)
 .debug_abbrev  0x0000000000001a1a       0x21 C:/Users/Dell/qnx800/target/qnx/aarch64le/lib\libc.a(memcmp.o)
 .debug_abbrev  0x0000000000001a3b      0x10c C:/Users/Dell/qnx800/target/qnx/aarch64le/lib\libc.a(memset.o)
 .debug_abbrev  0x0000000000001b47       0x91 C:/Users/Dell/qnx800/target/qnx/aarch64le/lib\libc.a(strchr.o)
 .debug_abbrev  0x0000000000001bd8       0x21 C:/Users/Dell/qnx800/target/qnx/aarch64le/lib\libc.a(strcmp.o)
 .debug_abbrev  0x0000000000001bf9       0xa3 C:/Users/Dell/qnx800/target/qnx/aarch64le/lib\libc.a(strlcpy.o)
 .debug_abbrev  0x0000000000001c9c       0x21 C:/Users/Dell/qnx800/target/qnx/aarch64le/lib\libc.a(strlen.o)
 .debug_abbrev  0x0000000000001cbd       0xa2 C:/Users/Dell/qnx800/target/qnx/aarch64le/lib\libc.a(strnlen.o)
 .debug_abbrev  0x0000000000001d5f       0x83 C:/Users/Dell/qnx800/target/qnx/aarch64le/lib\libc.a(strrchr.o)
 .debug_abbrev  0x0000000000001de2      0x19d C:/Users/Dell/qnx800/target/qnx/aarch64le/lib\libc.a(strstr.o)
 .debug_abbrev  0x0000000000001f7f       0xdc C:/Users/Dell/qnx800/target/qnx/aarch64le/lib\libc.a(__progname.o)
 .debug_abbrev  0x000000000000205b       0x9c C:/Users/Dell/qnx800/target/qnx/aarch64le/lib\libc.a(_ssp.o)
 .debug_abbrev  0x00000000000020f7       0x40 C:/Users/Dell/qnx800/target/qnx/aarch64le/lib\libc.a(__stack_chk_guard.o)
 .debug_abbrev  0x0000000000002137       0xd7 C:/Users/Dell/qnx800/target/qnx/aarch64le/lib\libc.a(getsubopt.o)
 .debug_abbrev  0x000000000000220e       0xc6 C:/Users/Dell/qnx800/target/qnx/aarch64le/lib\libc.a(xtolotab.o)
 .debug_abbrev  0x00000000000022d4       0x92 C:/Users/Dell/qnx800/target/qnx/aarch64le/lib\libc.a(strncasecmp.o)
 .debug_abbrev  0x0000000000002366       0x7c C:/Users/Dell/qnx800/target/qnx/aarch64le/lib\libc.a(strncmp.o)

.debug_line     0x0000000000000000     0x433c
 *(.debug_line)
 .debug_line    0x0000000000000000       0x91 C:/Users/Dell/ide-8.0-workspace/hw.raspberrypi-bcm2712-rpi5_2/src/hardware/startup/boards/../../../../install/aarch64le/usr/lib\libstartup.a(_start.o)
 .debug_line    0x0000000000000091       0xc8 C:/Users/Dell/ide-8.0-workspace/hw.raspberrypi-bcm2712-rpi5_2/src/hardware/startup/boards/../../../../install/aarch64le/usr/lib\libstartup.a(callout_debug_pl011.o)
 .debug_line    0x0000000000000159       0xb7 C:/Users/Dell/ide-8.0-workspace/hw.raspberrypi-bcm2712-rpi5_2/src/hardware/startup/boards/../../../../install/aarch64le/usr/lib\libstartup.a(callout_sendipi_gic_v2.o)
 .debug_line    0x0000000000000210       0x9d C:/Users/Dell/ide-8.0-workspace/hw.raspberrypi-bcm2712-rpi5_2/src/hardware/startup/boards/../../../../install/aarch64le/usr/lib\libstartup.a(cstart.o)
 .debug_line    0x00000000000002ad       0x97 C:/Users/Dell/ide-8.0-workspace/hw.raspberrypi-bcm2712-rpi5_2/src/hardware/startup/boards/../../../../install/aarch64le/usr/lib\libstartup.a(psci_call.o)
 .debug_line    0x0000000000000344       0xaf C:/Users/Dell/ide-8.0-workspace/hw.raspberrypi-bcm2712-rpi5_2/src/hardware/startup/boards/../../../../install/aarch64le/usr/lib\libstartup.a(smp_start.o)
 .debug_line    0x00000000000003f3       0xb5 C:/Users/Dell/ide-8.0-workspace/hw.raspberrypi-bcm2712-rpi5_2/src/hardware/startup/boards/../../../../install/aarch64le/usr/lib\libstartup.a(vbar_default.o)
 .debug_line    0x00000000000004a8       0xf9 C:/Users/Dell/ide-8.0-workspace/hw.raspberrypi-bcm2712-rpi5_2/src/hardware/startup/boards/../../../../install/aarch64le/usr/lib\libstartup.a(_start_el1.o)
 .debug_line    0x00000000000005a1       0xc1 C:/Users/Dell/ide-8.0-workspace/hw.raspberrypi-bcm2712-rpi5_2/src/hardware/startup/boards/../../../../install/aarch64le/usr/lib\libstartup.a(aarch64_cache_flush.o)
 .debug_line    0x0000000000000662       0xc9 C:/Users/Dell/ide-8.0-workspace/hw.raspberrypi-bcm2712-rpi5_2/src/hardware/startup/boards/../../../../install/aarch64le/usr/lib\libstartup.a(callout_cache_armv8.o)
 .debug_line    0x000000000000072b      0x106 C:/Users/Dell/ide-8.0-workspace/hw.raspberrypi-bcm2712-rpi5_2/src/hardware/startup/boards/../../../../install/aarch64le/usr/lib\libstartup.a(callout_interrupt_gic_v2.o)
 .debug_line    0x0000000000000831       0xaf C:/Users/Dell/ide-8.0-workspace/hw.raspberrypi-bcm2712-rpi5_2/src/hardware/startup/boards/../../../../install/aarch64le/usr/lib\libstartup.a(callout_smp_spin.o)
 .debug_line    0x00000000000008e0       0xa9 C:/Users/Dell/ide-8.0-workspace/hw.raspberrypi-bcm2712-rpi5_2/src/hardware/startup/boards/../../../../install/aarch64le/usr/lib\libstartup.a(hypervisor_enable.o)
 .debug_line    0x0000000000000989       0xa7 C:/Users/Dell/ide-8.0-workspace/hw.raspberrypi-bcm2712-rpi5_2/src/hardware/startup/boards/../../../../install/aarch64le/usr/lib\libstartup.a(vstart.o)
 .debug_line    0x0000000000000a30      0x999 C:/Users/Dell/qnx800/target/qnx/aarch64le/usr/lib\libucl.a(n2b_d.o)
 .debug_line    0x00000000000013c9      0x145 C:/Users/Dell/qnx800/target/qnx/aarch64le/usr/lib\libdrvr.a(hwi_find_unit.o)
 .debug_line    0x000000000000150e       0xf4 C:/Users/Dell/qnx800/target/qnx/aarch64le/usr/lib\libdrvr.a(hwi_tag_find.o)
 .debug_line    0x0000000000001602       0xb3 C:/Users/Dell/qnx800/target/qnx/aarch64le/usr/lib\libdrvr.a(hwi_find_bus.o)
 .debug_line    0x00000000000016b5       0xb3 C:/Users/Dell/qnx800/target/qnx/aarch64le/usr/lib\libdrvr.a(hwi_find_device.o)
 .debug_line    0x0000000000001768      0x11e C:/Users/Dell/qnx800/target/qnx/aarch64le/usr/lib\libdrvr.a(hwi_find.o)
 .debug_line    0x0000000000001886      0x6a3 C:/Users/Dell/qnx800/target/qnx/aarch64le/usr/lib\libfdt.a(fdt.o)
 .debug_line    0x0000000000001f29     0x13a5 C:/Users/Dell/qnx800/target/qnx/aarch64le/usr/lib\libfdt.a(fdt_ro.o)
 .debug_line    0x00000000000032ce      0x1d6 C:/Users/Dell/qnx800/target/qnx/aarch64le/lib\libc.a(hwi_find_item.o)
 .debug_line    0x00000000000034a4       0xb2 C:/Users/Dell/qnx800/target/qnx/aarch64le/lib\libc.a(hwi_next_tag.o)
 .debug_line    0x0000000000003556       0x79 C:/Users/Dell/qnx800/target/qnx/aarch64le/lib\libc.a(hwi_off2tag.o)
 .debug_line    0x00000000000035cf       0x79 C:/Users/Dell/qnx800/target/qnx/aarch64le/lib\libc.a(hwi_tag2off.o)
 .debug_line    0x0000000000003648       0x89 C:/Users/Dell/qnx800/target/qnx/aarch64le/lib\libc.a(memchr.o)
 .debug_line    0x00000000000036d1       0xda C:/Users/Dell/qnx800/target/qnx/aarch64le/lib\libc.a(memcmp.o)
 .debug_line    0x00000000000037ab      0x125 C:/Users/Dell/qnx800/target/qnx/aarch64le/lib\libc.a(memset.o)
 .debug_line    0x00000000000038d0       0x7a C:/Users/Dell/qnx800/target/qnx/aarch64le/lib\libc.a(strchr.o)
 .debug_line    0x000000000000394a       0xa3 C:/Users/Dell/qnx800/target/qnx/aarch64le/lib\libc.a(strcmp.o)
 .debug_line    0x00000000000039ed       0xd2 C:/Users/Dell/qnx800/target/qnx/aarch64le/lib\libc.a(strlcpy.o)
 .debug_line    0x0000000000003abf       0xe8 C:/Users/Dell/qnx800/target/qnx/aarch64le/lib\libc.a(strlen.o)
 .debug_line    0x0000000000003ba7       0x93 C:/Users/Dell/qnx800/target/qnx/aarch64le/lib\libc.a(strnlen.o)
 .debug_line    0x0000000000003c3a       0x7d C:/Users/Dell/qnx800/target/qnx/aarch64le/lib\libc.a(strrchr.o)
 .debug_line    0x0000000000003cb7      0x168 C:/Users/Dell/qnx800/target/qnx/aarch64le/lib\libc.a(strstr.o)
 .debug_line    0x0000000000003e1f       0x86 C:/Users/Dell/qnx800/target/qnx/aarch64le/lib\libc.a(__progname.o)
 .debug_line    0x0000000000003ea5       0xe0 C:/Users/Dell/qnx800/target/qnx/aarch64le/lib\libc.a(_ssp.o)
 .debug_line    0x0000000000003f85       0x3a C:/Users/Dell/qnx800/target/qnx/aarch64le/lib\libc.a(__stack_chk_guard.o)
 .debug_line    0x0000000000003fbf      0x15d C:/Users/Dell/qnx800/target/qnx/aarch64le/lib\libc.a(getsubopt.o)
 .debug_line    0x000000000000411c       0x80 C:/Users/Dell/qnx800/target/qnx/aarch64le/lib\libc.a(xtolotab.o)
 .debug_line    0x000000000000419c      0x10e C:/Users/Dell/qnx800/target/qnx/aarch64le/lib\libc.a(strncasecmp.o)
 .debug_line    0x00000000000042aa       0x92 C:/Users/Dell/qnx800/target/qnx/aarch64le/lib\libc.a(strncmp.o)

.debug_frame
 *(.debug_frame)

.debug_str      0x0000000000000000     0x8d48
 *(.debug_str)
 .debug_str     0x0000000000000000       0xca C:/Users/Dell/ide-8.0-workspace/hw.raspberrypi-bcm2712-rpi5_2/src/hardware/startup/boards/../../../../install/aarch64le/usr/lib\libstartup.a(_start.o)
 .debug_str     0x00000000000000ca       0xd7 C:/Users/Dell/ide-8.0-workspace/hw.raspberrypi-bcm2712-rpi5_2/src/hardware/startup/boards/../../../../install/aarch64le/usr/lib\libstartup.a(callout_debug_pl011.o)
 .debug_str     0x00000000000001a1       0xda C:/Users/Dell/ide-8.0-workspace/hw.raspberrypi-bcm2712-rpi5_2/src/hardware/startup/boards/../../../../install/aarch64le/usr/lib\libstartup.a(callout_sendipi_gic_v2.o)
 .debug_str     0x000000000000027b       0xca C:/Users/Dell/ide-8.0-workspace/hw.raspberrypi-bcm2712-rpi5_2/src/hardware/startup/boards/../../../../install/aarch64le/usr/lib\libstartup.a(cstart.o)
 .debug_str     0x0000000000000345       0xdf C:/Users/Dell/ide-8.0-workspace/hw.raspberrypi-bcm2712-rpi5_2/src/hardware/startup/boards/../../../../install/aarch64le/usr/lib\libstartup.a(psci_call.o)
 .debug_str     0x0000000000000424       0xcd C:/Users/Dell/ide-8.0-workspace/hw.raspberrypi-bcm2712-rpi5_2/src/hardware/startup/boards/../../../../install/aarch64le/usr/lib\libstartup.a(smp_start.o)
 .debug_str     0x00000000000004f1       0xd0 C:/Users/Dell/ide-8.0-workspace/hw.raspberrypi-bcm2712-rpi5_2/src/hardware/startup/boards/../../../../install/aarch64le/usr/lib\libstartup.a(vbar_default.o)
 .debug_str     0x00000000000005c1       0xce C:/Users/Dell/ide-8.0-workspace/hw.raspberrypi-bcm2712-rpi5_2/src/hardware/startup/boards/../../../../install/aarch64le/usr/lib\libstartup.a(_start_el1.o)
 .debug_str     0x000000000000068f       0xd7 C:/Users/Dell/ide-8.0-workspace/hw.raspberrypi-bcm2712-rpi5_2/src/hardware/startup/boards/../../../../install/aarch64le/usr/lib\libstartup.a(aarch64_cache_flush.o)
 .debug_str     0x0000000000000766       0xd7 C:/Users/Dell/ide-8.0-workspace/hw.raspberrypi-bcm2712-rpi5_2/src/hardware/startup/boards/../../../../install/aarch64le/usr/lib\libstartup.a(callout_cache_armv8.o)
 .debug_str     0x000000000000083d       0xdc C:/Users/Dell/ide-8.0-workspace/hw.raspberrypi-bcm2712-rpi5_2/src/hardware/startup/boards/../../../../install/aarch64le/usr/lib\libstartup.a(callout_interrupt_gic_v2.o)
 .debug_str     0x0000000000000919       0xd4 C:/Users/Dell/ide-8.0-workspace/hw.raspberrypi-bcm2712-rpi5_2/src/hardware/startup/boards/../../../../install/aarch64le/usr/lib\libstartup.a(callout_smp_spin.o)
 .debug_str     0x00000000000009ed       0xd5 C:/Users/Dell/ide-8.0-workspace/hw.raspberrypi-bcm2712-rpi5_2/src/hardware/startup/boards/../../../../install/aarch64le/usr/lib\libstartup.a(hypervisor_enable.o)
 .debug_str     0x0000000000000ac2       0xca C:/Users/Dell/ide-8.0-workspace/hw.raspberrypi-bcm2712-rpi5_2/src/hardware/startup/boards/../../../../install/aarch64le/usr/lib\libstartup.a(vstart.o)
 .debug_str     0x0000000000000b8c      0x398 C:/Users/Dell/qnx800/target/qnx/aarch64le/usr/lib\libucl.a(n2b_d.o)
 .debug_str     0x0000000000000f24      0x688 C:/Users/Dell/qnx800/target/qnx/aarch64le/usr/lib\libdrvr.a(hwi_find_unit.o)
 .debug_str     0x00000000000015ac      0x694 C:/Users/Dell/qnx800/target/qnx/aarch64le/usr/lib\libdrvr.a(hwi_tag_find.o)
 .debug_str     0x0000000000001c40      0x662 C:/Users/Dell/qnx800/target/qnx/aarch64le/usr/lib\libdrvr.a(hwi_find_bus.o)
 .debug_str     0x00000000000022a2      0x665 C:/Users/Dell/qnx800/target/qnx/aarch64le/usr/lib\libdrvr.a(hwi_find_device.o)
 .debug_str     0x0000000000002907      0x68b C:/Users/Dell/qnx800/target/qnx/aarch64le/usr/lib\libdrvr.a(hwi_find.o)
 .debug_str     0x0000000000002f92      0x6fd C:/Users/Dell/qnx800/target/qnx/aarch64le/usr/lib\libfdt.a(fdt.o)
 .debug_str     0x000000000000368f      0xb07 C:/Users/Dell/qnx800/target/qnx/aarch64le/usr/lib\libfdt.a(fdt_ro.o)
 .debug_str     0x0000000000004196      0x878 C:/Users/Dell/qnx800/target/qnx/aarch64le/lib\libc.a(hwi_find_item.o)
 .debug_str     0x0000000000004a0e      0x770 C:/Users/Dell/qnx800/target/qnx/aarch64le/lib\libc.a(hwi_next_tag.o)
 .debug_str     0x000000000000517e      0x39c C:/Users/Dell/qnx800/target/qnx/aarch64le/lib\libc.a(hwi_off2tag.o)
 .debug_str     0x000000000000551a      0x3aa C:/Users/Dell/qnx800/target/qnx/aarch64le/lib\libc.a(hwi_tag2off.o)
 .debug_str     0x00000000000058c4      0x394 C:/Users/Dell/qnx800/target/qnx/aarch64le/lib\libc.a(memchr.o)
 .debug_str     0x0000000000005c58       0xac C:/Users/Dell/qnx800/target/qnx/aarch64le/lib\libc.a(memcmp.o)
 .debug_str     0x0000000000005d04      0x3b1 C:/Users/Dell/qnx800/target/qnx/aarch64le/lib\libc.a(memset.o)
 .debug_str     0x00000000000060b5      0x36d C:/Users/Dell/qnx800/target/qnx/aarch64le/lib\libc.a(strchr.o)
 .debug_str     0x0000000000006422       0xac C:/Users/Dell/qnx800/target/qnx/aarch64le/lib\libc.a(strcmp.o)
 .debug_str     0x00000000000064ce      0x39a C:/Users/Dell/qnx800/target/qnx/aarch64le/lib\libc.a(strlcpy.o)
 .debug_str     0x0000000000006868       0xac C:/Users/Dell/qnx800/target/qnx/aarch64le/lib\libc.a(strlen.o)
 .debug_str     0x0000000000006914      0x3a1 C:/Users/Dell/qnx800/target/qnx/aarch64le/lib\libc.a(strnlen.o)
 .debug_str     0x0000000000006cb5      0x36e C:/Users/Dell/qnx800/target/qnx/aarch64le/lib\libc.a(strrchr.o)
 .debug_str     0x0000000000007023      0x3f4 C:/Users/Dell/qnx800/target/qnx/aarch64le/lib\libc.a(strstr.o)
 .debug_str     0x0000000000007417      0x396 C:/Users/Dell/qnx800/target/qnx/aarch64le/lib\libc.a(__progname.o)
 .debug_str     0x00000000000077ad      0x382 C:/Users/Dell/qnx800/target/qnx/aarch64le/lib\libc.a(_ssp.o)
 .debug_str     0x0000000000007b2f      0x378 C:/Users/Dell/qnx800/target/qnx/aarch64le/lib\libc.a(__stack_chk_guard.o)
 .debug_str     0x0000000000007ea7      0x3c6 C:/Users/Dell/qnx800/target/qnx/aarch64le/lib\libc.a(getsubopt.o)
 .debug_str     0x000000000000826d      0x3a3 C:/Users/Dell/qnx800/target/qnx/aarch64le/lib\libc.a(xtolotab.o)
 .debug_str     0x0000000000008610      0x39e C:/Users/Dell/qnx800/target/qnx/aarch64le/lib\libc.a(strncasecmp.o)
 .debug_str     0x00000000000089ae      0x39a C:/Users/Dell/qnx800/target/qnx/aarch64le/lib\libc.a(strncmp.o)

.debug_loc
 *(.debug_loc)

.debug_macinfo
 *(.debug_macinfo)

.debug_weaknames
 *(.debug_weaknames)

.debug_funcnames
 *(.debug_funcnames)

.debug_typenames
 *(.debug_typenames)

.debug_varnames
 *(.debug_varnames)

.debug_pubtypes
 *(.debug_pubtypes)

.debug_ranges
 *(.debug_ranges)

.debug_addr
 *(.debug_addr)

.debug_line_str
                0x0000000000000000     0x2c16
 *(.debug_line_str)
 .debug_line_str
                0x0000000000000000      0x149 C:/Users/Dell/qnx800/target/qnx/aarch64le/usr/lib\libucl.a(n2b_d.o)
 .debug_line_str
                0x0000000000000149      0x240 C:/Users/Dell/qnx800/target/qnx/aarch64le/usr/lib\libdrvr.a(hwi_find_unit.o)
 .debug_line_str
                0x0000000000000389      0x1f1 C:/Users/Dell/qnx800/target/qnx/aarch64le/usr/lib\libdrvr.a(hwi_tag_find.o)
 .debug_line_str
                0x000000000000057a      0x23d C:/Users/Dell/qnx800/target/qnx/aarch64le/usr/lib\libdrvr.a(hwi_find_bus.o)
 .debug_line_str
                0x00000000000007b7      0x246 C:/Users/Dell/qnx800/target/qnx/aarch64le/usr/lib\libdrvr.a(hwi_find_device.o)
 .debug_line_str
                0x00000000000009fd      0x1e5 C:/Users/Dell/qnx800/target/qnx/aarch64le/usr/lib\libdrvr.a(hwi_find.o)
 .debug_line_str
                0x0000000000000be2      0x208 C:/Users/Dell/qnx800/target/qnx/aarch64le/usr/lib\libfdt.a(fdt.o)
 .debug_line_str
                0x0000000000000dea      0x211 C:/Users/Dell/qnx800/target/qnx/aarch64le/usr/lib\libfdt.a(fdt_ro.o)
 .debug_line_str
                0x0000000000000ffb      0x224 C:/Users/Dell/qnx800/target/qnx/aarch64le/lib\libc.a(hwi_find_item.o)
 .debug_line_str
                0x000000000000121f      0x1bb C:/Users/Dell/qnx800/target/qnx/aarch64le/lib\libc.a(hwi_next_tag.o)
 .debug_line_str
                0x00000000000013da      0x1f8 C:/Users/Dell/qnx800/target/qnx/aarch64le/lib\libc.a(hwi_off2tag.o)
 .debug_line_str
                0x00000000000015d2      0x1f8 C:/Users/Dell/qnx800/target/qnx/aarch64le/lib\libc.a(hwi_tag2off.o)
 .debug_line_str
                0x00000000000017ca      0x19b C:/Users/Dell/qnx800/target/qnx/aarch64le/lib\libc.a(memchr.o)
 .debug_line_str
                0x0000000000001965      0x1b1 C:/Users/Dell/qnx800/target/qnx/aarch64le/lib\libc.a(memset.o)
 .debug_line_str
                0x0000000000001b16      0x111 C:/Users/Dell/qnx800/target/qnx/aarch64le/lib\libc.a(strchr.o)
 .debug_line_str
                0x0000000000001c27      0x166 C:/Users/Dell/qnx800/target/qnx/aarch64le/lib\libc.a(strlcpy.o)
 .debug_line_str
                0x0000000000001d8d      0x19e C:/Users/Dell/qnx800/target/qnx/aarch64le/lib\libc.a(strnlen.o)
 .debug_line_str
                0x0000000000001f2b      0x114 C:/Users/Dell/qnx800/target/qnx/aarch64le/lib\libc.a(strrchr.o)
 .debug_line_str
                0x000000000000203f      0x1ad C:/Users/Dell/qnx800/target/qnx/aarch64le/lib\libc.a(strstr.o)
 .debug_line_str
                0x00000000000021ec      0x161 C:/Users/Dell/qnx800/target/qnx/aarch64le/lib\libc.a(__progname.o)
 .debug_line_str
                0x000000000000234d      0x154 C:/Users/Dell/qnx800/target/qnx/aarch64le/lib\libc.a(_ssp.o)
 .debug_line_str
                0x00000000000024a1      0x136 C:/Users/Dell/qnx800/target/qnx/aarch64le/lib\libc.a(__stack_chk_guard.o)
 .debug_line_str
                0x00000000000025d7      0x1a9 C:/Users/Dell/qnx800/target/qnx/aarch64le/lib\libc.a(getsubopt.o)
 .debug_line_str
                0x0000000000002780      0x14e C:/Users/Dell/qnx800/target/qnx/aarch64le/lib\libc.a(xtolotab.o)
 .debug_line_str
                0x00000000000028ce      0x1aa C:/Users/Dell/qnx800/target/qnx/aarch64le/lib\libc.a(strncasecmp.o)
 .debug_line_str
                0x0000000000002a78      0x19e C:/Users/Dell/qnx800/target/qnx/aarch64le/lib\libc.a(strncmp.o)

.debug_loclists
                0x0000000000000000     0x4816
 *(.debug_loclists)
 .debug_loclists
                0x0000000000000000      0x8a2 C:/Users/Dell/qnx800/target/qnx/aarch64le/usr/lib\libucl.a(n2b_d.o)
 .debug_loclists
                0x00000000000008a2       0xde C:/Users/Dell/qnx800/target/qnx/aarch64le/usr/lib\libdrvr.a(hwi_find_unit.o)
 .debug_loclists
                0x0000000000000980       0xfb C:/Users/Dell/qnx800/target/qnx/aarch64le/usr/lib\libdrvr.a(hwi_tag_find.o)
 .debug_loclists
                0x0000000000000a7b       0x4e C:/Users/Dell/qnx800/target/qnx/aarch64le/usr/lib\libdrvr.a(hwi_find_bus.o)
 .debug_loclists
                0x0000000000000ac9       0x4e C:/Users/Dell/qnx800/target/qnx/aarch64le/usr/lib\libdrvr.a(hwi_find_device.o)
 .debug_loclists
                0x0000000000000b17      0x111 C:/Users/Dell/qnx800/target/qnx/aarch64le/usr/lib\libdrvr.a(hwi_find.o)
 .debug_loclists
                0x0000000000000c28      0xdfe C:/Users/Dell/qnx800/target/qnx/aarch64le/usr/lib\libfdt.a(fdt.o)
 .debug_loclists
                0x0000000000001a26     0x2363 C:/Users/Dell/qnx800/target/qnx/aarch64le/usr/lib\libfdt.a(fdt_ro.o)
 .debug_loclists
                0x0000000000003d89      0x122 C:/Users/Dell/qnx800/target/qnx/aarch64le/lib\libc.a(hwi_find_item.o)
 .debug_loclists
                0x0000000000003eab       0x79 C:/Users/Dell/qnx800/target/qnx/aarch64le/lib\libc.a(hwi_next_tag.o)
 .debug_loclists
                0x0000000000003f24       0x25 C:/Users/Dell/qnx800/target/qnx/aarch64le/lib\libc.a(hwi_off2tag.o)
 .debug_loclists
                0x0000000000003f49       0x25 C:/Users/Dell/qnx800/target/qnx/aarch64le/lib\libc.a(hwi_tag2off.o)
 .debug_loclists
                0x0000000000003f6e       0x59 C:/Users/Dell/qnx800/target/qnx/aarch64le/lib\libc.a(memchr.o)
 .debug_loclists
                0x0000000000003fc7      0x125 C:/Users/Dell/qnx800/target/qnx/aarch64le/lib\libc.a(memset.o)
 .debug_loclists
                0x00000000000040ec       0x35 C:/Users/Dell/qnx800/target/qnx/aarch64le/lib\libc.a(strchr.o)
 .debug_loclists
                0x0000000000004121       0xdd C:/Users/Dell/qnx800/target/qnx/aarch64le/lib\libc.a(strlcpy.o)
 .debug_loclists
                0x00000000000041fe       0x41 C:/Users/Dell/qnx800/target/qnx/aarch64le/lib\libc.a(strnlen.o)
 .debug_loclists
                0x000000000000423f       0x45 C:/Users/Dell/qnx800/target/qnx/aarch64le/lib\libc.a(strrchr.o)
 .debug_loclists
                0x0000000000004284      0x286 C:/Users/Dell/qnx800/target/qnx/aarch64le/lib\libc.a(strstr.o)
 .debug_loclists
                0x000000000000450a       0x2d C:/Users/Dell/qnx800/target/qnx/aarch64le/lib\libc.a(__progname.o)
 .debug_loclists
                0x0000000000004537      0x144 C:/Users/Dell/qnx800/target/qnx/aarch64le/lib\libc.a(getsubopt.o)
 .debug_loclists
                0x000000000000467b       0xf9 C:/Users/Dell/qnx800/target/qnx/aarch64le/lib\libc.a(strncasecmp.o)
 .debug_loclists
                0x0000000000004774       0xa2 C:/Users/Dell/qnx800/target/qnx/aarch64le/lib\libc.a(strncmp.o)

.debug_macro
 *(.debug_macro)

.debug_names
 *(.debug_names)

.debug_rnglists
                0x0000000000000000      0x348
 *(.debug_rnglists)
 .debug_rnglists
                0x0000000000000000       0x61 C:/Users/Dell/qnx800/target/qnx/aarch64le/usr/lib\libucl.a(n2b_d.o)
 .debug_rnglists
                0x0000000000000061       0x1b C:/Users/Dell/qnx800/target/qnx/aarch64le/usr/lib\libdrvr.a(hwi_find_unit.o)
 .debug_rnglists
                0x000000000000007c       0x28 C:/Users/Dell/qnx800/target/qnx/aarch64le/usr/lib\libdrvr.a(hwi_tag_find.o)
 .debug_rnglists
                0x00000000000000a4       0x2e C:/Users/Dell/qnx800/target/qnx/aarch64le/usr/lib\libdrvr.a(hwi_find.o)
 .debug_rnglists
                0x00000000000000d2       0x38 C:/Users/Dell/qnx800/target/qnx/aarch64le/usr/lib\libfdt.a(fdt.o)
 .debug_rnglists
                0x000000000000010a      0x1de C:/Users/Dell/qnx800/target/qnx/aarch64le/usr/lib\libfdt.a(fdt_ro.o)
 .debug_rnglists
                0x00000000000002e8       0x17 C:/Users/Dell/qnx800/target/qnx/aarch64le/lib\libc.a(hwi_find_item.o)
 .debug_rnglists
                0x00000000000002ff       0x16 C:/Users/Dell/qnx800/target/qnx/aarch64le/lib\libc.a(memset.o)
 .debug_rnglists
                0x0000000000000315       0x33 C:/Users/Dell/qnx800/target/qnx/aarch64le/lib\libc.a(strstr.o)

.debug_str_offsets
 *(.debug_str_offsets)

.debug_sup
 *(.debug_sup)

.ARM.attributes
 *(.ARM.attributes)
 *(.gnu.attributes)

.note.gnu.arm.ident
 *(.note.gnu.arm.ident)
OUTPUT(C:/Users/Dell/ide-8.0-workspace/hw.raspberrypi-bcm2712-rpi5_2/src/hardware/startup/boards/bcm/bcm2712/rpi5/aarch64/le/startup-bcm2712-rpi5 elf64-littleaarch64)
LOAD linker stubs
